
pixman-arm-simd-asm.o:     file format elf32-littlearm
pixman-arm-simd-asm.o
architecture: armv4, flags 0x00000010:
HAS_SYMS
start address 0x00000000
private flags = 5000000: [Version5 EABI]

Sections:
Idx Name          Size      VMA       LMA       File off  Algn
  0 .text         00007bbc  00000000  00000000  00000034  2**2
                  CONTENTS, ALLOC, LOAD, READONLY, CODE
  1 .data         00000000  00000000  00000000  00007bf0  2**0
                  CONTENTS, ALLOC, LOAD, DATA
  2 .bss          00000000  00000000  00000000  00007bf0  2**0
                  ALLOC
  3 .ARM.attributes 00000017  00000000  00000000  00007bf0  2**0
                  CONTENTS, READONLY
SYMBOL TABLE:
00000000 l    d  .text	00000000 .text
00000000 l    d  .data	00000000 .data
00000000 l    d  .bss	00000000 .bss
00000000 l       *ABS*	00000000 FLAG_DST_WRITEONLY
00000001 l       *ABS*	00000000 FLAG_DST_READWRITE
00000000 l       *ABS*	00000000 FLAG_COND_EXEC
00000002 l       *ABS*	00000000 FLAG_BRANCH_OVER
00000000 l       *ABS*	00000000 FLAG_PROCESS_PRESERVES_PSR
00000004 l       *ABS*	00000000 FLAG_PROCESS_CORRUPTS_PSR
00000000 l       *ABS*	00000000 FLAG_PROCESS_DOESNT_STORE
00000008 l       *ABS*	00000000 FLAG_PROCESS_DOES_STORE
00000000 l       *ABS*	00000000 FLAG_NO_SPILL_LINE_VARS
00000010 l       *ABS*	00000000 FLAG_SPILL_LINE_VARS_WIDE
00000020 l       *ABS*	00000000 FLAG_SPILL_LINE_VARS_NON_WIDE
00000030 l       *ABS*	00000000 FLAG_SPILL_LINE_VARS
00000000 l       *ABS*	00000000 FLAG_PROCESS_CORRUPTS_SCRATCH
00000040 l       *ABS*	00000000 FLAG_PROCESS_PRESERVES_SCRATCH
00000024 l       *ABS*	00000000 ARGS_STACK_OFFSET
00000000 l       *ABS*	00000000 PREFETCH_TYPE_NONE
00000001 l       *ABS*	00000000 PREFETCH_TYPE_STANDARD
00000000 l       *ABS*	00000000 src_bpp
00000008 l       *ABS*	00000000 mask_bpp
00000020 l       *ABS*	00000000 dst_w_bpp
0000003f l       *ABS*	00000000 flags
00000002 l       *ABS*	00000000 prefetch_distance
00000001 l       *ABS*	00000000 PREFETCH_TYPE_CURRENT
ffffffff l       *ABS*	00000000 src_bpp_shift
00000000 l       *ABS*	00000000 mask_bpp_shift
00000002 l       *ABS*	00000000 dst_bpp_shift
00000020 l       *ABS*	00000000 dst_r_bpp
00000020 l       *ABS*	00000000 pix_per_block
0000408a l       *ABS*	00000000 LINE_SAVED_REGS
00000004 l       *ABS*	00000000 LINE_SAVED_REG_COUNT
00000060 l       *ABS*	00000000 OFFSET
00000008 l       *ABS*	00000000 SUBBLOCK
00000003 l       *ABS*	00000000 PROCESS_REG
00000000 l       *ABS*	00000000 PROCESS_OFF
00000000 l    d  .ARM.attributes	00000000 .ARM.attributes
00000000 g     F .text	00000000 .hidden pixman_composite_src_8888_8888_asm_armv6
0000022c g     F .text	00000000 .hidden pixman_composite_src_0565_0565_asm_armv6
00000604 g     F .text	00000000 .hidden pixman_composite_src_8_8_asm_armv6
00000a28 g     F .text	00000000 .hidden pixman_composite_src_n_8888_asm_armv6
00000ad4 g     F .text	00000000 .hidden pixman_composite_src_n_0565_asm_armv6
00000bbc g     F .text	00000000 .hidden pixman_composite_src_n_8_asm_armv6
00000cc0 g     F .text	00000000 .hidden pixman_composite_src_x888_8888_asm_armv6
00000f64 g     F .text	00000000 .hidden pixman_composite_src_0565_8888_asm_armv6
00001c7c g     F .text	00000000 .hidden pixman_composite_add_8_8_asm_armv6
00002490 g     F .text	00000000 .hidden pixman_composite_over_8888_8888_asm_armv6
00003108 g     F .text	00000000 .hidden pixman_composite_over_8888_n_8888_asm_armv6
000041fc g     F .text	00000000 .hidden pixman_composite_over_n_8_8888_asm_armv6



Disassembly of section .text:

00000000 <pixman_composite_src_8888_8888_asm_armv6>:
       0:	e92d4ff0 	push	{r4, r5, r6, r7, r8, r9, sl, fp, lr}
       4:	e2511001 	subs	r1, r1, #1
       8:	3a000086 	bcc	228 <OFFSET+0x1c8>
       c:	e59d4024 	ldr	r4, [sp, #36]	; 0x24
      10:	e59d5028 	ldr	r5, [sp, #40]	; 0x28
      14:	e1a03103 	lsl	r3, r3, #2
      18:	e0433100 	sub	r3, r3, r0, lsl #2
      1c:	e1a05105 	lsl	r5, r5, #2
      20:	e0455100 	sub	r5, r5, r0, lsl #2
      24:	e3500007 	cmp	r0, #7
      28:	3a000068 	bcc	1d0 <OFFSET+0x170>
      2c:	e3500037 	cmp	r0, #55	; 0x37
      30:	3a00003d 	bcc	12c <OFFSET+0xcc>
      34:	e2400030 	sub	r0, r0, #48	; 0x30
      38:	e1a0e000 	mov	lr, r0
      3c:	e92d0028 	push	{r3, r5}
      40:	e3c4901f 	bic	r9, r4, #31
      44:	f5d9f000 	pld	[r9]
      48:	f5d9f020 	pld	[r9, #32]
      4c:	f5d9f040 	pld	[r9, #64]	; 0x40
      50:	f5d9f060 	pld	[r9, #96]	; 0x60
      54:	f5d9f080 	pld	[r9, #128]	; 0x80
      58:	e312000f 	tst	r2, #15
      5c:	0a00000e 	beq	9c <OFFSET+0x3c>
      60:	e2628000 	rsb	r8, r2, #0
      64:	e208800f 	and	r8, r8, #15
      68:	e1a0cd84 	lsl	ip, r4, #27
      6c:	e08ccd88 	add	ip, ip, r8, lsl #27
      70:	e07ccd88 	rsbs	ip, ip, r8, lsl #27
      74:	9a000000 	bls	7c <OFFSET+0x1c>
      78:	f5d9f0a0 	pld	[r9, #160]	; 0xa0
      7c:	e1b0ce88 	lsls	ip, r8, #29
      80:	44949004 	ldrmi	r9, [r4], #4
      84:	2494a004 	ldrcs	sl, [r4], #4
      88:	2494b004 	ldrcs	fp, [r4], #4
      8c:	42400001 	submi	r0, r0, #1
      90:	22400002 	subcs	r0, r0, #2
      94:	44829004 	strmi	r9, [r2], #4
      98:	28a20c00 	stmiacs	r2!, {sl, fp}
      9c:	e204c01f 	and	ip, r4, #31
      a0:	e26cc080 	rsb	ip, ip, #128	; 0x80
      a4:	e8b40f00 	ldm	r4!, {r8, r9, sl, fp}
      a8:	e8b400e8 	ldm	r4!, {r3, r5, r6, r7}
      ac:	f7d4f00c 	pld	[r4, ip]
      b0:	e8a20f00 	stmia	r2!, {r8, r9, sl, fp}
      b4:	e8a200e8 	stmia	r2!, {r3, r5, r6, r7}
      b8:	e2500008 	subs	r0, r0, #8
      bc:	2afffff8 	bcs	a4 <OFFSET+0x44>
      c0:	e1a0cd84 	lsl	ip, r4, #27
      c4:	e09cce80 	adds	ip, ip, r0, lsl #29
      c8:	02bcc000 	adcseq	ip, ip, #0
      cc:	0a000003 	beq	e0 <OFFSET+0x80>
      d0:	e3c4c01f 	bic	ip, r4, #31
      d4:	3a000000 	bcc	dc <OFFSET+0x7c>
      d8:	f5dcf0c0 	pld	[ip, #192]	; 0xc0
      dc:	f5dcf0a0 	pld	[ip, #160]	; 0xa0
      e0:	e280002c 	add	r0, r0, #44	; 0x2c
      e4:	e8b40f00 	ldm	r4!, {r8, r9, sl, fp}
      e8:	e8a20f00 	stmia	r2!, {r8, r9, sl, fp}
      ec:	e2500004 	subs	r0, r0, #4
      f0:	2afffffb 	bcs	e4 <OFFSET+0x84>
      f4:	e3100003 	tst	r0, #3
      f8:	0a000004 	beq	110 <OFFSET+0xb0>
      fc:	e1b0cf80 	lsls	ip, r0, #31
     100:	28b40300 	ldmcs	r4!, {r8, r9}
     104:	4494a004 	ldrmi	sl, [r4], #4
     108:	28a20300 	stmiacs	r2!, {r8, r9}
     10c:	4482a004 	strmi	sl, [r2], #4
     110:	e89d0028 	ldm	sp, {r3, r5}
     114:	e2511001 	subs	r1, r1, #1
     118:	e0822003 	add	r2, r2, r3
     11c:	e0844005 	add	r4, r4, r5
     120:	e1a0000e 	mov	r0, lr
     124:	2affffc5 	bcs	40 <FLAG_PROCESS_PRESERVES_SCRATCH>
     128:	ea00003d 	b	224 <OFFSET+0x1c4>
     12c:	e1a0e000 	mov	lr, r0
     130:	e3c4801f 	bic	r8, r4, #31
     134:	f5d8f000 	pld	[r8]
     138:	e0849100 	add	r9, r4, r0, lsl #2
     13c:	e2499001 	sub	r9, r9, #1
     140:	e3c9901f 	bic	r9, r9, #31
     144:	e1590008 	cmp	r9, r8
     148:	0a000003 	beq	15c <OFFSET+0xfc>
     14c:	e2888020 	add	r8, r8, #32
     150:	e1580009 	cmp	r8, r9
     154:	f5d8f000 	pld	[r8]
     158:	1afffffb 	bne	14c <OFFSET+0xec>
     15c:	e2400004 	sub	r0, r0, #4
     160:	e312000f 	tst	r2, #15
     164:	0a000008 	beq	18c <OFFSET+0x12c>
     168:	e2628000 	rsb	r8, r2, #0
     16c:	e1b0ce88 	lsls	ip, r8, #29
     170:	44949004 	ldrmi	r9, [r4], #4
     174:	2494a004 	ldrcs	sl, [r4], #4
     178:	2494b004 	ldrcs	fp, [r4], #4
     17c:	42400001 	submi	r0, r0, #1
     180:	22400002 	subcs	r0, r0, #2
     184:	44829004 	strmi	r9, [r2], #4
     188:	28a20c00 	stmiacs	r2!, {sl, fp}
     18c:	e8b40f00 	ldm	r4!, {r8, r9, sl, fp}
     190:	e8a20f00 	stmia	r2!, {r8, r9, sl, fp}
     194:	e2500004 	subs	r0, r0, #4
     198:	2afffffb 	bcs	18c <OFFSET+0x12c>
     19c:	e3100003 	tst	r0, #3
     1a0:	0a000004 	beq	1b8 <OFFSET+0x158>
     1a4:	e1b0cf80 	lsls	ip, r0, #31
     1a8:	28b40300 	ldmcs	r4!, {r8, r9}
     1ac:	4494a004 	ldrmi	sl, [r4], #4
     1b0:	28a20300 	stmiacs	r2!, {r8, r9}
     1b4:	4482a004 	strmi	sl, [r2], #4
     1b8:	e2511001 	subs	r1, r1, #1
     1bc:	e0822003 	add	r2, r2, r3
     1c0:	e0844005 	add	r4, r4, r5
     1c4:	e1a0000e 	mov	r0, lr
     1c8:	2affffd8 	bcs	130 <OFFSET+0xd0>
     1cc:	ea000015 	b	228 <OFFSET+0x1c8>
     1d0:	e3c4801f 	bic	r8, r4, #31
     1d4:	f5d8f000 	pld	[r8]
     1d8:	e0849100 	add	r9, r4, r0, lsl #2
     1dc:	e2499001 	sub	r9, r9, #1
     1e0:	e3c9901f 	bic	r9, r9, #31
     1e4:	e1590008 	cmp	r9, r8
     1e8:	0a000000 	beq	1f0 <OFFSET+0x190>
     1ec:	f5d9f000 	pld	[r9]
     1f0:	e3100004 	tst	r0, #4
     1f4:	18b40f00 	ldmne	r4!, {r8, r9, sl, fp}
     1f8:	18a20f00 	stmiane	r2!, {r8, r9, sl, fp}
     1fc:	e1b0cf80 	lsls	ip, r0, #31
     200:	28b40300 	ldmcs	r4!, {r8, r9}
     204:	4494a004 	ldrmi	sl, [r4], #4
     208:	28a20300 	stmiacs	r2!, {r8, r9}
     20c:	4482a004 	strmi	sl, [r2], #4
     210:	e2511001 	subs	r1, r1, #1
     214:	e0822003 	add	r2, r2, r3
     218:	e0844005 	add	r4, r4, r5
     21c:	2affffeb 	bcs	1d0 <OFFSET+0x170>
     220:	ea000000 	b	228 <OFFSET+0x1c8>
     224:	e28dd008 	add	sp, sp, #8
     228:	e8bd8ff0 	pop	{r4, r5, r6, r7, r8, r9, sl, fp, pc}

0000022c <pixman_composite_src_0565_0565_asm_armv6>:
     22c:	e92d4ff0 	push	{r4, r5, r6, r7, r8, r9, sl, fp, lr}
     230:	e2511001 	subs	r1, r1, #1
     234:	3a0000f1 	bcc	600 <pixman_composite_src_0565_0565_asm_armv6+0x3d4>
     238:	e59d4024 	ldr	r4, [sp, #36]	; 0x24
     23c:	e59d5028 	ldr	r5, [sp, #40]	; 0x28
     240:	e1a03083 	lsl	r3, r3, #1
     244:	e0433080 	sub	r3, r3, r0, lsl #1
     248:	e1a05085 	lsl	r5, r5, #1
     24c:	e0455080 	sub	r5, r5, r0, lsl #1
     250:	e350000f 	cmp	r0, #15
     254:	3a0000b6 	bcc	534 <pixman_composite_src_0565_0565_asm_armv6+0x308>
     258:	e350006f 	cmp	r0, #111	; 0x6f
     25c:	3a00006f 	bcc	420 <pixman_composite_src_0565_0565_asm_armv6+0x1f4>
     260:	e2400060 	sub	r0, r0, #96	; 0x60
     264:	e1a0e000 	mov	lr, r0
     268:	e92d0028 	push	{r3, r5}
     26c:	e3c4901f 	bic	r9, r4, #31
     270:	f5d9f000 	pld	[r9]
     274:	f5d9f020 	pld	[r9, #32]
     278:	f5d9f040 	pld	[r9, #64]	; 0x40
     27c:	f5d9f060 	pld	[r9, #96]	; 0x60
     280:	f5d9f080 	pld	[r9, #128]	; 0x80
     284:	e312000f 	tst	r2, #15
     288:	0a000012 	beq	2d8 <pixman_composite_src_0565_0565_asm_armv6+0xac>
     28c:	e2628000 	rsb	r8, r2, #0
     290:	e208800f 	and	r8, r8, #15
     294:	e1a0cd84 	lsl	ip, r4, #27
     298:	e08ccd88 	add	ip, ip, r8, lsl #27
     29c:	e07ccd88 	rsbs	ip, ip, r8, lsl #27
     2a0:	9a000000 	bls	2a8 <pixman_composite_src_0565_0565_asm_armv6+0x7c>
     2a4:	f5d9f0a0 	pld	[r9, #160]	; 0xa0
     2a8:	e1b0cf88 	lsls	ip, r8, #31
     2ac:	20d4a0b2 	ldrhcs	sl, [r4], #2
     2b0:	22400001 	subcs	r0, r0, #1
     2b4:	20c2a0b2 	strhcs	sl, [r2], #2
     2b8:	e1b0ce88 	lsls	ip, r8, #29
     2bc:	44949004 	ldrmi	r9, [r4], #4
     2c0:	2494a004 	ldrcs	sl, [r4], #4
     2c4:	2494b004 	ldrcs	fp, [r4], #4
     2c8:	42400002 	submi	r0, r0, #2
     2cc:	22400004 	subcs	r0, r0, #4
     2d0:	44829004 	strmi	r9, [r2], #4
     2d4:	28a20c00 	stmiacs	r2!, {sl, fp}
     2d8:	e204c01f 	and	ip, r4, #31
     2dc:	e26cc080 	rsb	ip, ip, #128	; 0x80
     2e0:	e3140003 	tst	r4, #3
     2e4:	1a00001e 	bne	364 <pixman_composite_src_0565_0565_asm_armv6+0x138>
     2e8:	e8b40f00 	ldm	r4!, {r8, r9, sl, fp}
     2ec:	e8b400e8 	ldm	r4!, {r3, r5, r6, r7}
     2f0:	f7d4f00c 	pld	[r4, ip]
     2f4:	e8a20f00 	stmia	r2!, {r8, r9, sl, fp}
     2f8:	e8a200e8 	stmia	r2!, {r3, r5, r6, r7}
     2fc:	e2500010 	subs	r0, r0, #16
     300:	2afffff8 	bcs	2e8 <pixman_composite_src_0565_0565_asm_armv6+0xbc>
     304:	e1a0cd84 	lsl	ip, r4, #27
     308:	e09cce00 	adds	ip, ip, r0, lsl #28
     30c:	02bcc000 	adcseq	ip, ip, #0
     310:	0a000003 	beq	324 <pixman_composite_src_0565_0565_asm_armv6+0xf8>
     314:	e3c4c01f 	bic	ip, r4, #31
     318:	3a000000 	bcc	320 <pixman_composite_src_0565_0565_asm_armv6+0xf4>
     31c:	f5dcf0c0 	pld	[ip, #192]	; 0xc0
     320:	f5dcf0a0 	pld	[ip, #160]	; 0xa0
     324:	e2800058 	add	r0, r0, #88	; 0x58
     328:	e8b40f00 	ldm	r4!, {r8, r9, sl, fp}
     32c:	e8a20f00 	stmia	r2!, {r8, r9, sl, fp}
     330:	e2500008 	subs	r0, r0, #8
     334:	2afffffb 	bcs	328 <pixman_composite_src_0565_0565_asm_armv6+0xfc>
     338:	e3100007 	tst	r0, #7
     33c:	0a000030 	beq	404 <pixman_composite_src_0565_0565_asm_armv6+0x1d8>
     340:	e1b0cf00 	lsls	ip, r0, #30
     344:	28b40300 	ldmcs	r4!, {r8, r9}
     348:	4494a004 	ldrmi	sl, [r4], #4
     34c:	28a20300 	stmiacs	r2!, {r8, r9}
     350:	4482a004 	strmi	sl, [r2], #4
     354:	e1b0c0a0 	lsrs	ip, r0, #1
     358:	20d480b2 	ldrhcs	r8, [r4], #2
     35c:	20c280b2 	strhcs	r8, [r2], #2
     360:	ea000027 	b	404 <pixman_composite_src_0565_0565_asm_armv6+0x1d8>
     364:	e4948004 	ldr	r8, [r4], #4
     368:	e4949004 	ldr	r9, [r4], #4
     36c:	e494a004 	ldr	sl, [r4], #4
     370:	e494b004 	ldr	fp, [r4], #4
     374:	e4943004 	ldr	r3, [r4], #4
     378:	e4945004 	ldr	r5, [r4], #4
     37c:	e4946004 	ldr	r6, [r4], #4
     380:	e4947004 	ldr	r7, [r4], #4
     384:	f7d4f00c 	pld	[r4, ip]
     388:	e8a20f00 	stmia	r2!, {r8, r9, sl, fp}
     38c:	e8a200e8 	stmia	r2!, {r3, r5, r6, r7}
     390:	e2500010 	subs	r0, r0, #16
     394:	2afffff2 	bcs	364 <pixman_composite_src_0565_0565_asm_armv6+0x138>
     398:	e1a0cd84 	lsl	ip, r4, #27
     39c:	e09cce00 	adds	ip, ip, r0, lsl #28
     3a0:	02bcc000 	adcseq	ip, ip, #0
     3a4:	0a000003 	beq	3b8 <pixman_composite_src_0565_0565_asm_armv6+0x18c>
     3a8:	e3c4c01f 	bic	ip, r4, #31
     3ac:	3a000000 	bcc	3b4 <pixman_composite_src_0565_0565_asm_armv6+0x188>
     3b0:	f5dcf0c0 	pld	[ip, #192]	; 0xc0
     3b4:	f5dcf0a0 	pld	[ip, #160]	; 0xa0
     3b8:	e2800058 	add	r0, r0, #88	; 0x58
     3bc:	e4948004 	ldr	r8, [r4], #4
     3c0:	e4949004 	ldr	r9, [r4], #4
     3c4:	e494a004 	ldr	sl, [r4], #4
     3c8:	e494b004 	ldr	fp, [r4], #4
     3cc:	e8a20f00 	stmia	r2!, {r8, r9, sl, fp}
     3d0:	e2500008 	subs	r0, r0, #8
     3d4:	2afffff8 	bcs	3bc <pixman_composite_src_0565_0565_asm_armv6+0x190>
     3d8:	e3100007 	tst	r0, #7
     3dc:	0a000008 	beq	404 <pixman_composite_src_0565_0565_asm_armv6+0x1d8>
     3e0:	e1b0cf00 	lsls	ip, r0, #30
     3e4:	24948004 	ldrcs	r8, [r4], #4
     3e8:	24949004 	ldrcs	r9, [r4], #4
     3ec:	4494a004 	ldrmi	sl, [r4], #4
     3f0:	28a20300 	stmiacs	r2!, {r8, r9}
     3f4:	4482a004 	strmi	sl, [r2], #4
     3f8:	e1b0c0a0 	lsrs	ip, r0, #1
     3fc:	20d480b2 	ldrhcs	r8, [r4], #2
     400:	20c280b2 	strhcs	r8, [r2], #2
     404:	e89d0028 	ldm	sp, {r3, r5}
     408:	e2511001 	subs	r1, r1, #1
     40c:	e0822003 	add	r2, r2, r3
     410:	e0844005 	add	r4, r4, r5
     414:	e1a0000e 	mov	r0, lr
     418:	2affff93 	bcs	26c <pixman_composite_src_0565_0565_asm_armv6+0x40>
     41c:	ea000076 	b	5fc <pixman_composite_src_0565_0565_asm_armv6+0x3d0>
     420:	e1a0e000 	mov	lr, r0
     424:	e3c4801f 	bic	r8, r4, #31
     428:	f5d8f000 	pld	[r8]
     42c:	e0849080 	add	r9, r4, r0, lsl #1
     430:	e2499001 	sub	r9, r9, #1
     434:	e3c9901f 	bic	r9, r9, #31
     438:	e1590008 	cmp	r9, r8
     43c:	0a000003 	beq	450 <pixman_composite_src_0565_0565_asm_armv6+0x224>
     440:	e2888020 	add	r8, r8, #32
     444:	e1580009 	cmp	r8, r9
     448:	f5d8f000 	pld	[r8]
     44c:	1afffffb 	bne	440 <pixman_composite_src_0565_0565_asm_armv6+0x214>
     450:	e2400008 	sub	r0, r0, #8
     454:	e312000f 	tst	r2, #15
     458:	0a00000c 	beq	490 <pixman_composite_src_0565_0565_asm_armv6+0x264>
     45c:	e2628000 	rsb	r8, r2, #0
     460:	e1b0cf88 	lsls	ip, r8, #31
     464:	20d4a0b2 	ldrhcs	sl, [r4], #2
     468:	22400001 	subcs	r0, r0, #1
     46c:	20c2a0b2 	strhcs	sl, [r2], #2
     470:	e1b0ce88 	lsls	ip, r8, #29
     474:	44949004 	ldrmi	r9, [r4], #4
     478:	2494a004 	ldrcs	sl, [r4], #4
     47c:	2494b004 	ldrcs	fp, [r4], #4
     480:	42400002 	submi	r0, r0, #2
     484:	22400004 	subcs	r0, r0, #4
     488:	44829004 	strmi	r9, [r2], #4
     48c:	28a20c00 	stmiacs	r2!, {sl, fp}
     490:	e3140003 	tst	r4, #3
     494:	1a00000e 	bne	4d4 <pixman_composite_src_0565_0565_asm_armv6+0x2a8>
     498:	e8b40f00 	ldm	r4!, {r8, r9, sl, fp}
     49c:	e8a20f00 	stmia	r2!, {r8, r9, sl, fp}
     4a0:	e2500008 	subs	r0, r0, #8
     4a4:	2afffffb 	bcs	498 <pixman_composite_src_0565_0565_asm_armv6+0x26c>
     4a8:	e3100007 	tst	r0, #7
     4ac:	0a00001a 	beq	51c <pixman_composite_src_0565_0565_asm_armv6+0x2f0>
     4b0:	e1b0cf00 	lsls	ip, r0, #30
     4b4:	28b40300 	ldmcs	r4!, {r8, r9}
     4b8:	4494a004 	ldrmi	sl, [r4], #4
     4bc:	28a20300 	stmiacs	r2!, {r8, r9}
     4c0:	4482a004 	strmi	sl, [r2], #4
     4c4:	e1b0c0a0 	lsrs	ip, r0, #1
     4c8:	20d480b2 	ldrhcs	r8, [r4], #2
     4cc:	20c280b2 	strhcs	r8, [r2], #2
     4d0:	ea000011 	b	51c <pixman_composite_src_0565_0565_asm_armv6+0x2f0>
     4d4:	e4948004 	ldr	r8, [r4], #4
     4d8:	e4949004 	ldr	r9, [r4], #4
     4dc:	e494a004 	ldr	sl, [r4], #4
     4e0:	e494b004 	ldr	fp, [r4], #4
     4e4:	e8a20f00 	stmia	r2!, {r8, r9, sl, fp}
     4e8:	e2500008 	subs	r0, r0, #8
     4ec:	2afffff8 	bcs	4d4 <pixman_composite_src_0565_0565_asm_armv6+0x2a8>
     4f0:	e3100007 	tst	r0, #7
     4f4:	0a000008 	beq	51c <pixman_composite_src_0565_0565_asm_armv6+0x2f0>
     4f8:	e1b0cf00 	lsls	ip, r0, #30
     4fc:	24948004 	ldrcs	r8, [r4], #4
     500:	24949004 	ldrcs	r9, [r4], #4
     504:	4494a004 	ldrmi	sl, [r4], #4
     508:	28a20300 	stmiacs	r2!, {r8, r9}
     50c:	4482a004 	strmi	sl, [r2], #4
     510:	e1b0c0a0 	lsrs	ip, r0, #1
     514:	20d480b2 	ldrhcs	r8, [r4], #2
     518:	20c280b2 	strhcs	r8, [r2], #2
     51c:	e2511001 	subs	r1, r1, #1
     520:	e0822003 	add	r2, r2, r3
     524:	e0844005 	add	r4, r4, r5
     528:	e1a0000e 	mov	r0, lr
     52c:	2affffbc 	bcs	424 <pixman_composite_src_0565_0565_asm_armv6+0x1f8>
     530:	ea000032 	b	600 <pixman_composite_src_0565_0565_asm_armv6+0x3d4>
     534:	e1a0e000 	mov	lr, r0
     538:	e3c4801f 	bic	r8, r4, #31
     53c:	f5d8f000 	pld	[r8]
     540:	e0849080 	add	r9, r4, r0, lsl #1
     544:	e2499001 	sub	r9, r9, #1
     548:	e3c9901f 	bic	r9, r9, #31
     54c:	e1590008 	cmp	r9, r8
     550:	0a000000 	beq	558 <pixman_composite_src_0565_0565_asm_armv6+0x32c>
     554:	f5d9f000 	pld	[r9]
     558:	e3120002 	tst	r2, #2
     55c:	0a000003 	beq	570 <pixman_composite_src_0565_0565_asm_armv6+0x344>
     560:	e2500001 	subs	r0, r0, #1
     564:	3a00001e 	bcc	5e4 <pixman_composite_src_0565_0565_asm_armv6+0x3b8>
     568:	e0d480b2 	ldrh	r8, [r4], #2
     56c:	e0c280b2 	strh	r8, [r2], #2
     570:	e3140003 	tst	r4, #3
     574:	1a00000b 	bne	5a8 <pixman_composite_src_0565_0565_asm_armv6+0x37c>
     578:	e3100008 	tst	r0, #8
     57c:	18b40f00 	ldmne	r4!, {r8, r9, sl, fp}
     580:	18a20f00 	stmiane	r2!, {r8, r9, sl, fp}
     584:	e1b0cf00 	lsls	ip, r0, #30
     588:	28b40300 	ldmcs	r4!, {r8, r9}
     58c:	4494a004 	ldrmi	sl, [r4], #4
     590:	28a20300 	stmiacs	r2!, {r8, r9}
     594:	4482a004 	strmi	sl, [r2], #4
     598:	e1b0c0a0 	lsrs	ip, r0, #1
     59c:	20d480b2 	ldrhcs	r8, [r4], #2
     5a0:	20c280b2 	strhcs	r8, [r2], #2
     5a4:	ea00000e 	b	5e4 <pixman_composite_src_0565_0565_asm_armv6+0x3b8>
     5a8:	e3100008 	tst	r0, #8
     5ac:	14948004 	ldrne	r8, [r4], #4
     5b0:	14949004 	ldrne	r9, [r4], #4
     5b4:	1494a004 	ldrne	sl, [r4], #4
     5b8:	1494b004 	ldrne	fp, [r4], #4
     5bc:	18a20f00 	stmiane	r2!, {r8, r9, sl, fp}
     5c0:	e1b0cf00 	lsls	ip, r0, #30
     5c4:	24948004 	ldrcs	r8, [r4], #4
     5c8:	24949004 	ldrcs	r9, [r4], #4
     5cc:	4494a004 	ldrmi	sl, [r4], #4
     5d0:	28a20300 	stmiacs	r2!, {r8, r9}
     5d4:	4482a004 	strmi	sl, [r2], #4
     5d8:	e1b0c0a0 	lsrs	ip, r0, #1
     5dc:	20d480b2 	ldrhcs	r8, [r4], #2
     5e0:	20c280b2 	strhcs	r8, [r2], #2
     5e4:	e2511001 	subs	r1, r1, #1
     5e8:	e0822003 	add	r2, r2, r3
     5ec:	e0844005 	add	r4, r4, r5
     5f0:	e1a0000e 	mov	r0, lr
     5f4:	2affffcf 	bcs	538 <pixman_composite_src_0565_0565_asm_armv6+0x30c>
     5f8:	ea000000 	b	600 <pixman_composite_src_0565_0565_asm_armv6+0x3d4>
     5fc:	e28dd008 	add	sp, sp, #8
     600:	e8bd8ff0 	pop	{r4, r5, r6, r7, r8, r9, sl, fp, pc}

00000604 <pixman_composite_src_8_8_asm_armv6>:
     604:	e92d4ff0 	push	{r4, r5, r6, r7, r8, r9, sl, fp, lr}
     608:	e2511001 	subs	r1, r1, #1
     60c:	3a000104 	bcc	a24 <pixman_composite_src_8_8_asm_armv6+0x420>
     610:	e59d4024 	ldr	r4, [sp, #36]	; 0x24
     614:	e59d5028 	ldr	r5, [sp, #40]	; 0x28
     618:	e1a03003 	mov	r3, r3
     61c:	e0433000 	sub	r3, r3, r0
     620:	e1a05005 	mov	r5, r5
     624:	e0455000 	sub	r5, r5, r0
     628:	e350001f 	cmp	r0, #31
     62c:	3a0000c3 	bcc	940 <pixman_composite_src_8_8_asm_armv6+0x33c>
     630:	e35000bf 	cmp	r0, #191	; 0xbf
     634:	3a000075 	bcc	810 <pixman_composite_src_8_8_asm_armv6+0x20c>
     638:	e24000a0 	sub	r0, r0, #160	; 0xa0
     63c:	e1a0e000 	mov	lr, r0
     640:	e92d0028 	push	{r3, r5}
     644:	e3c4901f 	bic	r9, r4, #31
     648:	f5d9f000 	pld	[r9]
     64c:	f5d9f020 	pld	[r9, #32]
     650:	f5d9f040 	pld	[r9, #64]	; 0x40
     654:	f5d9f060 	pld	[r9, #96]	; 0x60
     658:	e312000f 	tst	r2, #15
     65c:	0a000015 	beq	6b8 <pixman_composite_src_8_8_asm_armv6+0xb4>
     660:	e2628000 	rsb	r8, r2, #0
     664:	e208800f 	and	r8, r8, #15
     668:	e1a0cd84 	lsl	ip, r4, #27
     66c:	e08ccd88 	add	ip, ip, r8, lsl #27
     670:	e07ccd88 	rsbs	ip, ip, r8, lsl #27
     674:	9a000000 	bls	67c <pixman_composite_src_8_8_asm_armv6+0x78>
     678:	f5d9f080 	pld	[r9, #128]	; 0x80
     67c:	e1b0cf88 	lsls	ip, r8, #31
     680:	44d49001 	ldrbmi	r9, [r4], #1
     684:	20d4a0b2 	ldrhcs	sl, [r4], #2
     688:	42400001 	submi	r0, r0, #1
     68c:	22400002 	subcs	r0, r0, #2
     690:	44c29001 	strbmi	r9, [r2], #1
     694:	20c2a0b2 	strhcs	sl, [r2], #2
     698:	e1b0ce88 	lsls	ip, r8, #29
     69c:	44949004 	ldrmi	r9, [r4], #4
     6a0:	2494a004 	ldrcs	sl, [r4], #4
     6a4:	2494b004 	ldrcs	fp, [r4], #4
     6a8:	42400004 	submi	r0, r0, #4
     6ac:	22400008 	subcs	r0, r0, #8
     6b0:	44829004 	strmi	r9, [r2], #4
     6b4:	28a20c00 	stmiacs	r2!, {sl, fp}
     6b8:	e204c01f 	and	ip, r4, #31
     6bc:	e26cc060 	rsb	ip, ip, #96	; 0x60
     6c0:	e3140003 	tst	r4, #3
     6c4:	1a000020 	bne	74c <pixman_composite_src_8_8_asm_armv6+0x148>
     6c8:	e8b40f00 	ldm	r4!, {r8, r9, sl, fp}
     6cc:	e8b400e8 	ldm	r4!, {r3, r5, r6, r7}
     6d0:	f7d4f00c 	pld	[r4, ip]
     6d4:	e8a20f00 	stmia	r2!, {r8, r9, sl, fp}
     6d8:	e8a200e8 	stmia	r2!, {r3, r5, r6, r7}
     6dc:	e2500020 	subs	r0, r0, #32
     6e0:	2afffff8 	bcs	6c8 <pixman_composite_src_8_8_asm_armv6+0xc4>
     6e4:	e1a0cd84 	lsl	ip, r4, #27
     6e8:	e09ccd80 	adds	ip, ip, r0, lsl #27
     6ec:	02bcc000 	adcseq	ip, ip, #0
     6f0:	0a000003 	beq	704 <pixman_composite_src_8_8_asm_armv6+0x100>
     6f4:	e3c4c01f 	bic	ip, r4, #31
     6f8:	3a000000 	bcc	700 <pixman_composite_src_8_8_asm_armv6+0xfc>
     6fc:	f5dcf0a0 	pld	[ip, #160]	; 0xa0
     700:	f5dcf080 	pld	[ip, #128]	; 0x80
     704:	e2800090 	add	r0, r0, #144	; 0x90
     708:	e8b40f00 	ldm	r4!, {r8, r9, sl, fp}
     70c:	e8a20f00 	stmia	r2!, {r8, r9, sl, fp}
     710:	e2500010 	subs	r0, r0, #16
     714:	2afffffb 	bcs	708 <pixman_composite_src_8_8_asm_armv6+0x104>
     718:	e310000f 	tst	r0, #15
     71c:	0a000034 	beq	7f4 <pixman_composite_src_8_8_asm_armv6+0x1f0>
     720:	e1b0ce80 	lsls	ip, r0, #29
     724:	28b40300 	ldmcs	r4!, {r8, r9}
     728:	4494a004 	ldrmi	sl, [r4], #4
     72c:	28a20300 	stmiacs	r2!, {r8, r9}
     730:	4482a004 	strmi	sl, [r2], #4
     734:	e1b0cf80 	lsls	ip, r0, #31
     738:	20d480b2 	ldrhcs	r8, [r4], #2
     73c:	44d49001 	ldrbmi	r9, [r4], #1
     740:	20c280b2 	strhcs	r8, [r2], #2
     744:	44c29001 	strbmi	r9, [r2], #1
     748:	ea000029 	b	7f4 <pixman_composite_src_8_8_asm_armv6+0x1f0>
     74c:	e4948004 	ldr	r8, [r4], #4
     750:	e4949004 	ldr	r9, [r4], #4
     754:	e494a004 	ldr	sl, [r4], #4
     758:	e494b004 	ldr	fp, [r4], #4
     75c:	e4943004 	ldr	r3, [r4], #4
     760:	e4945004 	ldr	r5, [r4], #4
     764:	e4946004 	ldr	r6, [r4], #4
     768:	e4947004 	ldr	r7, [r4], #4
     76c:	f7d4f00c 	pld	[r4, ip]
     770:	e8a20f00 	stmia	r2!, {r8, r9, sl, fp}
     774:	e8a200e8 	stmia	r2!, {r3, r5, r6, r7}
     778:	e2500020 	subs	r0, r0, #32
     77c:	2afffff2 	bcs	74c <pixman_composite_src_8_8_asm_armv6+0x148>
     780:	e1a0cd84 	lsl	ip, r4, #27
     784:	e09ccd80 	adds	ip, ip, r0, lsl #27
     788:	02bcc000 	adcseq	ip, ip, #0
     78c:	0a000003 	beq	7a0 <pixman_composite_src_8_8_asm_armv6+0x19c>
     790:	e3c4c01f 	bic	ip, r4, #31
     794:	3a000000 	bcc	79c <pixman_composite_src_8_8_asm_armv6+0x198>
     798:	f5dcf0a0 	pld	[ip, #160]	; 0xa0
     79c:	f5dcf080 	pld	[ip, #128]	; 0x80
     7a0:	e2800090 	add	r0, r0, #144	; 0x90
     7a4:	e4948004 	ldr	r8, [r4], #4
     7a8:	e4949004 	ldr	r9, [r4], #4
     7ac:	e494a004 	ldr	sl, [r4], #4
     7b0:	e494b004 	ldr	fp, [r4], #4
     7b4:	e8a20f00 	stmia	r2!, {r8, r9, sl, fp}
     7b8:	e2500010 	subs	r0, r0, #16
     7bc:	2afffff8 	bcs	7a4 <pixman_composite_src_8_8_asm_armv6+0x1a0>
     7c0:	e310000f 	tst	r0, #15
     7c4:	0a00000a 	beq	7f4 <pixman_composite_src_8_8_asm_armv6+0x1f0>
     7c8:	e1b0ce80 	lsls	ip, r0, #29
     7cc:	24948004 	ldrcs	r8, [r4], #4
     7d0:	24949004 	ldrcs	r9, [r4], #4
     7d4:	4494a004 	ldrmi	sl, [r4], #4
     7d8:	28a20300 	stmiacs	r2!, {r8, r9}
     7dc:	4482a004 	strmi	sl, [r2], #4
     7e0:	e1b0cf80 	lsls	ip, r0, #31
     7e4:	20d480b2 	ldrhcs	r8, [r4], #2
     7e8:	44d49001 	ldrbmi	r9, [r4], #1
     7ec:	20c280b2 	strhcs	r8, [r2], #2
     7f0:	44c29001 	strbmi	r9, [r2], #1
     7f4:	e89d0028 	ldm	sp, {r3, r5}
     7f8:	e2511001 	subs	r1, r1, #1
     7fc:	e0822003 	add	r2, r2, r3
     800:	e0844005 	add	r4, r4, r5
     804:	e1a0000e 	mov	r0, lr
     808:	2affff8d 	bcs	644 <pixman_composite_src_8_8_asm_armv6+0x40>
     80c:	ea000083 	b	a20 <pixman_composite_src_8_8_asm_armv6+0x41c>
     810:	e1a0e000 	mov	lr, r0
     814:	e3c4801f 	bic	r8, r4, #31
     818:	f5d8f000 	pld	[r8]
     81c:	e0849000 	add	r9, r4, r0
     820:	e2499001 	sub	r9, r9, #1
     824:	e3c9901f 	bic	r9, r9, #31
     828:	e1590008 	cmp	r9, r8
     82c:	0a000003 	beq	840 <pixman_composite_src_8_8_asm_armv6+0x23c>
     830:	e2888020 	add	r8, r8, #32
     834:	e1580009 	cmp	r8, r9
     838:	f5d8f000 	pld	[r8]
     83c:	1afffffb 	bne	830 <pixman_composite_src_8_8_asm_armv6+0x22c>
     840:	e2400010 	sub	r0, r0, #16
     844:	e312000f 	tst	r2, #15
     848:	0a00000f 	beq	88c <pixman_composite_src_8_8_asm_armv6+0x288>
     84c:	e2628000 	rsb	r8, r2, #0
     850:	e1b0cf88 	lsls	ip, r8, #31
     854:	44d49001 	ldrbmi	r9, [r4], #1
     858:	20d4a0b2 	ldrhcs	sl, [r4], #2
     85c:	42400001 	submi	r0, r0, #1
     860:	22400002 	subcs	r0, r0, #2
     864:	44c29001 	strbmi	r9, [r2], #1
     868:	20c2a0b2 	strhcs	sl, [r2], #2
     86c:	e1b0ce88 	lsls	ip, r8, #29
     870:	44949004 	ldrmi	r9, [r4], #4
     874:	2494a004 	ldrcs	sl, [r4], #4
     878:	2494b004 	ldrcs	fp, [r4], #4
     87c:	42400004 	submi	r0, r0, #4
     880:	22400008 	subcs	r0, r0, #8
     884:	44829004 	strmi	r9, [r2], #4
     888:	28a20c00 	stmiacs	r2!, {sl, fp}
     88c:	e3140003 	tst	r4, #3
     890:	1a000010 	bne	8d8 <pixman_composite_src_8_8_asm_armv6+0x2d4>
     894:	e8b40f00 	ldm	r4!, {r8, r9, sl, fp}
     898:	e8a20f00 	stmia	r2!, {r8, r9, sl, fp}
     89c:	e2500010 	subs	r0, r0, #16
     8a0:	2afffffb 	bcs	894 <pixman_composite_src_8_8_asm_armv6+0x290>
     8a4:	e310000f 	tst	r0, #15
     8a8:	0a00001e 	beq	928 <pixman_composite_src_8_8_asm_armv6+0x324>
     8ac:	e1b0ce80 	lsls	ip, r0, #29
     8b0:	28b40300 	ldmcs	r4!, {r8, r9}
     8b4:	4494a004 	ldrmi	sl, [r4], #4
     8b8:	28a20300 	stmiacs	r2!, {r8, r9}
     8bc:	4482a004 	strmi	sl, [r2], #4
     8c0:	e1b0cf80 	lsls	ip, r0, #31
     8c4:	20d480b2 	ldrhcs	r8, [r4], #2
     8c8:	44d49001 	ldrbmi	r9, [r4], #1
     8cc:	20c280b2 	strhcs	r8, [r2], #2
     8d0:	44c29001 	strbmi	r9, [r2], #1
     8d4:	ea000013 	b	928 <pixman_composite_src_8_8_asm_armv6+0x324>
     8d8:	e4948004 	ldr	r8, [r4], #4
     8dc:	e4949004 	ldr	r9, [r4], #4
     8e0:	e494a004 	ldr	sl, [r4], #4
     8e4:	e494b004 	ldr	fp, [r4], #4
     8e8:	e8a20f00 	stmia	r2!, {r8, r9, sl, fp}
     8ec:	e2500010 	subs	r0, r0, #16
     8f0:	2afffff8 	bcs	8d8 <pixman_composite_src_8_8_asm_armv6+0x2d4>
     8f4:	e310000f 	tst	r0, #15
     8f8:	0a00000a 	beq	928 <pixman_composite_src_8_8_asm_armv6+0x324>
     8fc:	e1b0ce80 	lsls	ip, r0, #29
     900:	24948004 	ldrcs	r8, [r4], #4
     904:	24949004 	ldrcs	r9, [r4], #4
     908:	4494a004 	ldrmi	sl, [r4], #4
     90c:	28a20300 	stmiacs	r2!, {r8, r9}
     910:	4482a004 	strmi	sl, [r2], #4
     914:	e1b0cf80 	lsls	ip, r0, #31
     918:	20d480b2 	ldrhcs	r8, [r4], #2
     91c:	44d49001 	ldrbmi	r9, [r4], #1
     920:	20c280b2 	strhcs	r8, [r2], #2
     924:	44c29001 	strbmi	r9, [r2], #1
     928:	e2511001 	subs	r1, r1, #1
     92c:	e0822003 	add	r2, r2, r3
     930:	e0844005 	add	r4, r4, r5
     934:	e1a0000e 	mov	r0, lr
     938:	2affffb5 	bcs	814 <pixman_composite_src_8_8_asm_armv6+0x210>
     93c:	ea000038 	b	a24 <pixman_composite_src_8_8_asm_armv6+0x420>
     940:	e1a0e000 	mov	lr, r0
     944:	e3c4801f 	bic	r8, r4, #31
     948:	f5d8f000 	pld	[r8]
     94c:	e0849000 	add	r9, r4, r0
     950:	e2499001 	sub	r9, r9, #1
     954:	e3c9901f 	bic	r9, r9, #31
     958:	e1590008 	cmp	r9, r8
     95c:	0a000000 	beq	964 <pixman_composite_src_8_8_asm_armv6+0x360>
     960:	f5d9f000 	pld	[r9]
     964:	e3120003 	tst	r2, #3
     968:	0a000005 	beq	984 <pixman_composite_src_8_8_asm_armv6+0x380>
     96c:	e2500001 	subs	r0, r0, #1
     970:	3a000024 	bcc	a08 <pixman_composite_src_8_8_asm_armv6+0x404>
     974:	e4d48001 	ldrb	r8, [r4], #1
     978:	e4c28001 	strb	r8, [r2], #1
     97c:	e3120003 	tst	r2, #3
     980:	1afffff9 	bne	96c <pixman_composite_src_8_8_asm_armv6+0x368>
     984:	e3140003 	tst	r4, #3
     988:	1a00000d 	bne	9c4 <pixman_composite_src_8_8_asm_armv6+0x3c0>
     98c:	e3100010 	tst	r0, #16
     990:	18b40f00 	ldmne	r4!, {r8, r9, sl, fp}
     994:	18a20f00 	stmiane	r2!, {r8, r9, sl, fp}
     998:	e1b0ce80 	lsls	ip, r0, #29
     99c:	28b40300 	ldmcs	r4!, {r8, r9}
     9a0:	4494a004 	ldrmi	sl, [r4], #4
     9a4:	28a20300 	stmiacs	r2!, {r8, r9}
     9a8:	4482a004 	strmi	sl, [r2], #4
     9ac:	e1b0cf80 	lsls	ip, r0, #31
     9b0:	20d480b2 	ldrhcs	r8, [r4], #2
     9b4:	44d49001 	ldrbmi	r9, [r4], #1
     9b8:	20c280b2 	strhcs	r8, [r2], #2
     9bc:	44c29001 	strbmi	r9, [r2], #1
     9c0:	ea000010 	b	a08 <pixman_composite_src_8_8_asm_armv6+0x404>
     9c4:	e3100010 	tst	r0, #16
     9c8:	14948004 	ldrne	r8, [r4], #4
     9cc:	14949004 	ldrne	r9, [r4], #4
     9d0:	1494a004 	ldrne	sl, [r4], #4
     9d4:	1494b004 	ldrne	fp, [r4], #4
     9d8:	18a20f00 	stmiane	r2!, {r8, r9, sl, fp}
     9dc:	e1b0ce80 	lsls	ip, r0, #29
     9e0:	24948004 	ldrcs	r8, [r4], #4
     9e4:	24949004 	ldrcs	r9, [r4], #4
     9e8:	4494a004 	ldrmi	sl, [r4], #4
     9ec:	28a20300 	stmiacs	r2!, {r8, r9}
     9f0:	4482a004 	strmi	sl, [r2], #4
     9f4:	e1b0cf80 	lsls	ip, r0, #31
     9f8:	20d480b2 	ldrhcs	r8, [r4], #2
     9fc:	44d49001 	ldrbmi	r9, [r4], #1
     a00:	20c280b2 	strhcs	r8, [r2], #2
     a04:	44c29001 	strbmi	r9, [r2], #1
     a08:	e2511001 	subs	r1, r1, #1
     a0c:	e0822003 	add	r2, r2, r3
     a10:	e0844005 	add	r4, r4, r5
     a14:	e1a0000e 	mov	r0, lr
     a18:	2affffc9 	bcs	944 <pixman_composite_src_8_8_asm_armv6+0x340>
     a1c:	ea000000 	b	a24 <pixman_composite_src_8_8_asm_armv6+0x420>
     a20:	e28dd008 	add	sp, sp, #8
     a24:	e8bd8ff0 	pop	{r4, r5, r6, r7, r8, r9, sl, fp, pc}

00000a28 <pixman_composite_src_n_8888_asm_armv6>:
     a28:	e92d4ff0 	push	{r4, r5, r6, r7, r8, r9, sl, fp, lr}
     a2c:	e2511001 	subs	r1, r1, #1
     a30:	3a000026 	bcc	ad0 <pixman_composite_src_n_8888_asm_armv6+0xa8>
     a34:	e59d4024 	ldr	r4, [sp, #36]	; 0x24
     a38:	e1a05004 	mov	r5, r4
     a3c:	e1a06004 	mov	r6, r4
     a40:	e1a07004 	mov	r7, r4
     a44:	e1a03103 	lsl	r3, r3, #2
     a48:	e0433100 	sub	r3, r3, r0, lsl #2
     a4c:	e3500007 	cmp	r0, #7
     a50:	3a000016 	bcc	ab0 <pixman_composite_src_n_8888_asm_armv6+0x88>
     a54:	e1a0e000 	mov	lr, r0
     a58:	e2400004 	sub	r0, r0, #4
     a5c:	e312000f 	tst	r2, #15
     a60:	0a000005 	beq	a7c <pixman_composite_src_n_8888_asm_armv6+0x54>
     a64:	e2628000 	rsb	r8, r2, #0
     a68:	e1b0ce88 	lsls	ip, r8, #29
     a6c:	42400001 	submi	r0, r0, #1
     a70:	44824004 	strmi	r4, [r2], #4
     a74:	22400002 	subcs	r0, r0, #2
     a78:	28a20030 	stmiacs	r2!, {r4, r5}
     a7c:	e8a200f0 	stmia	r2!, {r4, r5, r6, r7}
     a80:	e2500004 	subs	r0, r0, #4
     a84:	2afffffc 	bcs	a7c <pixman_composite_src_n_8888_asm_armv6+0x54>
     a88:	e3100003 	tst	r0, #3
     a8c:	0a000002 	beq	a9c <pixman_composite_src_n_8888_asm_armv6+0x74>
     a90:	e1b0cf80 	lsls	ip, r0, #31
     a94:	28a20030 	stmiacs	r2!, {r4, r5}
     a98:	44824004 	strmi	r4, [r2], #4
     a9c:	e2511001 	subs	r1, r1, #1
     aa0:	e0822003 	add	r2, r2, r3
     aa4:	e1a0000e 	mov	r0, lr
     aa8:	2affffea 	bcs	a58 <pixman_composite_src_n_8888_asm_armv6+0x30>
     aac:	ea000007 	b	ad0 <pixman_composite_src_n_8888_asm_armv6+0xa8>
     ab0:	e3100004 	tst	r0, #4
     ab4:	18a200f0 	stmiane	r2!, {r4, r5, r6, r7}
     ab8:	e1b0cf80 	lsls	ip, r0, #31
     abc:	28a20030 	stmiacs	r2!, {r4, r5}
     ac0:	44824004 	strmi	r4, [r2], #4
     ac4:	e2511001 	subs	r1, r1, #1
     ac8:	e0822003 	add	r2, r2, r3
     acc:	2afffff7 	bcs	ab0 <pixman_composite_src_n_8888_asm_armv6+0x88>
     ad0:	e8bd8ff0 	pop	{r4, r5, r6, r7, r8, r9, sl, fp, pc}

00000ad4 <pixman_composite_src_n_0565_asm_armv6>:
     ad4:	e92d4ff0 	push	{r4, r5, r6, r7, r8, r9, sl, fp, lr}
     ad8:	e2511001 	subs	r1, r1, #1
     adc:	3a000035 	bcc	bb8 <pixman_composite_src_n_0565_asm_armv6+0xe4>
     ae0:	e1dd42b4 	ldrh	r4, [sp, #36]	; 0x24
     ae4:	e1844804 	orr	r4, r4, r4, lsl #16
     ae8:	e1a05004 	mov	r5, r4
     aec:	e1a06004 	mov	r6, r4
     af0:	e1a07004 	mov	r7, r4
     af4:	e1a03083 	lsl	r3, r3, #1
     af8:	e0433080 	sub	r3, r3, r0, lsl #1
     afc:	e350000f 	cmp	r0, #15
     b00:	3a00001b 	bcc	b74 <pixman_composite_src_n_0565_asm_armv6+0xa0>
     b04:	e1a0e000 	mov	lr, r0
     b08:	e2400008 	sub	r0, r0, #8
     b0c:	e312000f 	tst	r2, #15
     b10:	0a000008 	beq	b38 <pixman_composite_src_n_0565_asm_armv6+0x64>
     b14:	e2628000 	rsb	r8, r2, #0
     b18:	e1b0cf88 	lsls	ip, r8, #31
     b1c:	22400001 	subcs	r0, r0, #1
     b20:	20c240b2 	strhcs	r4, [r2], #2
     b24:	e1b0ce88 	lsls	ip, r8, #29
     b28:	42400002 	submi	r0, r0, #2
     b2c:	44824004 	strmi	r4, [r2], #4
     b30:	22400004 	subcs	r0, r0, #4
     b34:	28a20030 	stmiacs	r2!, {r4, r5}
     b38:	e8a200f0 	stmia	r2!, {r4, r5, r6, r7}
     b3c:	e2500008 	subs	r0, r0, #8
     b40:	2afffffc 	bcs	b38 <pixman_composite_src_n_0565_asm_armv6+0x64>
     b44:	e3100007 	tst	r0, #7
     b48:	0a000004 	beq	b60 <pixman_composite_src_n_0565_asm_armv6+0x8c>
     b4c:	e1b0cf00 	lsls	ip, r0, #30
     b50:	28a20030 	stmiacs	r2!, {r4, r5}
     b54:	44824004 	strmi	r4, [r2], #4
     b58:	e1b0c0a0 	lsrs	ip, r0, #1
     b5c:	20c240b2 	strhcs	r4, [r2], #2
     b60:	e2511001 	subs	r1, r1, #1
     b64:	e0822003 	add	r2, r2, r3
     b68:	e1a0000e 	mov	r0, lr
     b6c:	2affffe5 	bcs	b08 <pixman_composite_src_n_0565_asm_armv6+0x34>
     b70:	ea000010 	b	bb8 <pixman_composite_src_n_0565_asm_armv6+0xe4>
     b74:	e1a0e000 	mov	lr, r0
     b78:	e3120002 	tst	r2, #2
     b7c:	0a000002 	beq	b8c <pixman_composite_src_n_0565_asm_armv6+0xb8>
     b80:	e2500001 	subs	r0, r0, #1
     b84:	3a000007 	bcc	ba8 <pixman_composite_src_n_0565_asm_armv6+0xd4>
     b88:	e0c240b2 	strh	r4, [r2], #2
     b8c:	e3100008 	tst	r0, #8
     b90:	18a200f0 	stmiane	r2!, {r4, r5, r6, r7}
     b94:	e1b0cf00 	lsls	ip, r0, #30
     b98:	28a20030 	stmiacs	r2!, {r4, r5}
     b9c:	44824004 	strmi	r4, [r2], #4
     ba0:	e1b0c0a0 	lsrs	ip, r0, #1
     ba4:	20c240b2 	strhcs	r4, [r2], #2
     ba8:	e2511001 	subs	r1, r1, #1
     bac:	e0822003 	add	r2, r2, r3
     bb0:	e1a0000e 	mov	r0, lr
     bb4:	2affffef 	bcs	b78 <pixman_composite_src_n_0565_asm_armv6+0xa4>
     bb8:	e8bd8ff0 	pop	{r4, r5, r6, r7, r8, r9, sl, fp, pc}

00000bbc <pixman_composite_src_n_8_asm_armv6>:
     bbc:	e92d4ff0 	push	{r4, r5, r6, r7, r8, r9, sl, fp, lr}
     bc0:	e2511001 	subs	r1, r1, #1
     bc4:	3a00003c 	bcc	cbc <pixman_composite_src_n_8_asm_armv6+0x100>
     bc8:	e5dd4024 	ldrb	r4, [sp, #36]	; 0x24
     bcc:	e1844404 	orr	r4, r4, r4, lsl #8
     bd0:	e1844804 	orr	r4, r4, r4, lsl #16
     bd4:	e1a05004 	mov	r5, r4
     bd8:	e1a06004 	mov	r6, r4
     bdc:	e1a07004 	mov	r7, r4
     be0:	e1a03003 	mov	r3, r3
     be4:	e0433000 	sub	r3, r3, r0
     be8:	e350001f 	cmp	r0, #31
     bec:	3a00001e 	bcc	c6c <pixman_composite_src_n_8_asm_armv6+0xb0>
     bf0:	e1a0e000 	mov	lr, r0
     bf4:	e2400010 	sub	r0, r0, #16
     bf8:	e312000f 	tst	r2, #15
     bfc:	0a00000a 	beq	c2c <pixman_composite_src_n_8_asm_armv6+0x70>
     c00:	e2628000 	rsb	r8, r2, #0
     c04:	e1b0cf88 	lsls	ip, r8, #31
     c08:	42400001 	submi	r0, r0, #1
     c0c:	44c24001 	strbmi	r4, [r2], #1
     c10:	22400002 	subcs	r0, r0, #2
     c14:	20c240b2 	strhcs	r4, [r2], #2
     c18:	e1b0ce88 	lsls	ip, r8, #29
     c1c:	42400004 	submi	r0, r0, #4
     c20:	44824004 	strmi	r4, [r2], #4
     c24:	22400008 	subcs	r0, r0, #8
     c28:	28a20030 	stmiacs	r2!, {r4, r5}
     c2c:	e8a200f0 	stmia	r2!, {r4, r5, r6, r7}
     c30:	e2500010 	subs	r0, r0, #16
     c34:	2afffffc 	bcs	c2c <pixman_composite_src_n_8_asm_armv6+0x70>
     c38:	e310000f 	tst	r0, #15
     c3c:	0a000005 	beq	c58 <pixman_composite_src_n_8_asm_armv6+0x9c>
     c40:	e1b0ce80 	lsls	ip, r0, #29
     c44:	28a20030 	stmiacs	r2!, {r4, r5}
     c48:	44824004 	strmi	r4, [r2], #4
     c4c:	e1b0cf80 	lsls	ip, r0, #31
     c50:	20c240b2 	strhcs	r4, [r2], #2
     c54:	44c24001 	strbmi	r4, [r2], #1
     c58:	e2511001 	subs	r1, r1, #1
     c5c:	e0822003 	add	r2, r2, r3
     c60:	e1a0000e 	mov	r0, lr
     c64:	2affffe2 	bcs	bf4 <pixman_composite_src_n_8_asm_armv6+0x38>
     c68:	ea000013 	b	cbc <pixman_composite_src_n_8_asm_armv6+0x100>
     c6c:	e1a0e000 	mov	lr, r0
     c70:	e3120003 	tst	r2, #3
     c74:	0a000004 	beq	c8c <pixman_composite_src_n_8_asm_armv6+0xd0>
     c78:	e2500001 	subs	r0, r0, #1
     c7c:	3a00000a 	bcc	cac <pixman_composite_src_n_8_asm_armv6+0xf0>
     c80:	e4c24001 	strb	r4, [r2], #1
     c84:	e3120003 	tst	r2, #3
     c88:	1afffffa 	bne	c78 <pixman_composite_src_n_8_asm_armv6+0xbc>
     c8c:	e3100010 	tst	r0, #16
     c90:	18a200f0 	stmiane	r2!, {r4, r5, r6, r7}
     c94:	e1b0ce80 	lsls	ip, r0, #29
     c98:	28a20030 	stmiacs	r2!, {r4, r5}
     c9c:	44824004 	strmi	r4, [r2], #4
     ca0:	e1b0cf80 	lsls	ip, r0, #31
     ca4:	20c240b2 	strhcs	r4, [r2], #2
     ca8:	44c24001 	strbmi	r4, [r2], #1
     cac:	e2511001 	subs	r1, r1, #1
     cb0:	e0822003 	add	r2, r2, r3
     cb4:	e1a0000e 	mov	r0, lr
     cb8:	2affffec 	bcs	c70 <pixman_composite_src_n_8_asm_armv6+0xb4>
     cbc:	e8bd8ff0 	pop	{r4, r5, r6, r7, r8, r9, sl, fp, pc}

00000cc0 <pixman_composite_src_x888_8888_asm_armv6>:
     cc0:	e92d4ff0 	push	{r4, r5, r6, r7, r8, r9, sl, fp, lr}
     cc4:	e2511001 	subs	r1, r1, #1
     cc8:	3a0000a4 	bcc	f60 <pixman_composite_src_x888_8888_asm_armv6+0x2a0>
     ccc:	e59d4024 	ldr	r4, [sp, #36]	; 0x24
     cd0:	e59d5028 	ldr	r5, [sp, #40]	; 0x28
     cd4:	e1a03103 	lsl	r3, r3, #2
     cd8:	e0433100 	sub	r3, r3, r0, lsl #2
     cdc:	e1a05105 	lsl	r5, r5, #2
     ce0:	e0455100 	sub	r5, r5, r0, lsl #2
     ce4:	e3500007 	cmp	r0, #7
     ce8:	3a000081 	bcc	ef4 <pixman_composite_src_x888_8888_asm_armv6+0x234>
     cec:	e350002f 	cmp	r0, #47	; 0x2f
     cf0:	3a00004c 	bcc	e28 <pixman_composite_src_x888_8888_asm_armv6+0x168>
     cf4:	e2400028 	sub	r0, r0, #40	; 0x28
     cf8:	e1a0e000 	mov	lr, r0
     cfc:	e3c4901f 	bic	r9, r4, #31
     d00:	f5d9f000 	pld	[r9]
     d04:	f5d9f020 	pld	[r9, #32]
     d08:	f5d9f040 	pld	[r9, #64]	; 0x40
     d0c:	f5d9f060 	pld	[r9, #96]	; 0x60
     d10:	e312000f 	tst	r2, #15
     d14:	0a000011 	beq	d60 <pixman_composite_src_x888_8888_asm_armv6+0xa0>
     d18:	e2628000 	rsb	r8, r2, #0
     d1c:	e208800f 	and	r8, r8, #15
     d20:	e1a0cd84 	lsl	ip, r4, #27
     d24:	e08ccd88 	add	ip, ip, r8, lsl #27
     d28:	e07ccd88 	rsbs	ip, ip, r8, lsl #27
     d2c:	9a000000 	bls	d34 <pixman_composite_src_x888_8888_asm_armv6+0x74>
     d30:	f5d9f080 	pld	[r9, #128]	; 0x80
     d34:	e1b0ce88 	lsls	ip, r8, #29
     d38:	44949004 	ldrmi	r9, [r4], #4
     d3c:	2494a004 	ldrcs	sl, [r4], #4
     d40:	2494b004 	ldrcs	fp, [r4], #4
     d44:	42400001 	submi	r0, r0, #1
     d48:	22400002 	subcs	r0, r0, #2
     d4c:	438994ff 	orrmi	r9, r9, #-16777216	; 0xff000000
     d50:	238aa4ff 	orrcs	sl, sl, #-16777216	; 0xff000000
     d54:	238bb4ff 	orrcs	fp, fp, #-16777216	; 0xff000000
     d58:	44829004 	strmi	r9, [r2], #4
     d5c:	28a20c00 	stmiacs	r2!, {sl, fp}
     d60:	e204c01f 	and	ip, r4, #31
     d64:	e26cc060 	rsb	ip, ip, #96	; 0x60
     d68:	e8b40f00 	ldm	r4!, {r8, r9, sl, fp}
     d6c:	e38884ff 	orr	r8, r8, #-16777216	; 0xff000000
     d70:	e38994ff 	orr	r9, r9, #-16777216	; 0xff000000
     d74:	e38aa4ff 	orr	sl, sl, #-16777216	; 0xff000000
     d78:	e38bb4ff 	orr	fp, fp, #-16777216	; 0xff000000
     d7c:	e8a20f00 	stmia	r2!, {r8, r9, sl, fp}
     d80:	e8b40f00 	ldm	r4!, {r8, r9, sl, fp}
     d84:	f7d4f00c 	pld	[r4, ip]
     d88:	e38884ff 	orr	r8, r8, #-16777216	; 0xff000000
     d8c:	e38994ff 	orr	r9, r9, #-16777216	; 0xff000000
     d90:	e38aa4ff 	orr	sl, sl, #-16777216	; 0xff000000
     d94:	e38bb4ff 	orr	fp, fp, #-16777216	; 0xff000000
     d98:	e8a20f00 	stmia	r2!, {r8, r9, sl, fp}
     d9c:	e2500008 	subs	r0, r0, #8
     da0:	2afffff0 	bcs	d68 <pixman_composite_src_x888_8888_asm_armv6+0xa8>
     da4:	e1a0cd84 	lsl	ip, r4, #27
     da8:	e09cce80 	adds	ip, ip, r0, lsl #29
     dac:	02bcc000 	adcseq	ip, ip, #0
     db0:	0a000003 	beq	dc4 <pixman_composite_src_x888_8888_asm_armv6+0x104>
     db4:	e3c4c01f 	bic	ip, r4, #31
     db8:	3a000000 	bcc	dc0 <pixman_composite_src_x888_8888_asm_armv6+0x100>
     dbc:	f5dcf0a0 	pld	[ip, #160]	; 0xa0
     dc0:	f5dcf080 	pld	[ip, #128]	; 0x80
     dc4:	e2800024 	add	r0, r0, #36	; 0x24
     dc8:	e8b40f00 	ldm	r4!, {r8, r9, sl, fp}
     dcc:	e38884ff 	orr	r8, r8, #-16777216	; 0xff000000
     dd0:	e38994ff 	orr	r9, r9, #-16777216	; 0xff000000
     dd4:	e38aa4ff 	orr	sl, sl, #-16777216	; 0xff000000
     dd8:	e38bb4ff 	orr	fp, fp, #-16777216	; 0xff000000
     ddc:	e8a20f00 	stmia	r2!, {r8, r9, sl, fp}
     de0:	e2500004 	subs	r0, r0, #4
     de4:	2afffff7 	bcs	dc8 <pixman_composite_src_x888_8888_asm_armv6+0x108>
     de8:	e3100003 	tst	r0, #3
     dec:	0a000007 	beq	e10 <pixman_composite_src_x888_8888_asm_armv6+0x150>
     df0:	e1b0cf80 	lsls	ip, r0, #31
     df4:	28b40300 	ldmcs	r4!, {r8, r9}
     df8:	4494a004 	ldrmi	sl, [r4], #4
     dfc:	238884ff 	orrcs	r8, r8, #-16777216	; 0xff000000
     e00:	238994ff 	orrcs	r9, r9, #-16777216	; 0xff000000
     e04:	438aa4ff 	orrmi	sl, sl, #-16777216	; 0xff000000
     e08:	28a20300 	stmiacs	r2!, {r8, r9}
     e0c:	4482a004 	strmi	sl, [r2], #4
     e10:	e2511001 	subs	r1, r1, #1
     e14:	e0822003 	add	r2, r2, r3
     e18:	e0844005 	add	r4, r4, r5
     e1c:	e1a0000e 	mov	r0, lr
     e20:	2affffb5 	bcs	cfc <pixman_composite_src_x888_8888_asm_armv6+0x3c>
     e24:	ea00004d 	b	f60 <pixman_composite_src_x888_8888_asm_armv6+0x2a0>
     e28:	e1a0e000 	mov	lr, r0
     e2c:	e3c4801f 	bic	r8, r4, #31
     e30:	f5d8f000 	pld	[r8]
     e34:	e0849100 	add	r9, r4, r0, lsl #2
     e38:	e2499001 	sub	r9, r9, #1
     e3c:	e3c9901f 	bic	r9, r9, #31
     e40:	e1590008 	cmp	r9, r8
     e44:	0a000003 	beq	e58 <pixman_composite_src_x888_8888_asm_armv6+0x198>
     e48:	e2888020 	add	r8, r8, #32
     e4c:	e1580009 	cmp	r8, r9
     e50:	f5d8f000 	pld	[r8]
     e54:	1afffffb 	bne	e48 <pixman_composite_src_x888_8888_asm_armv6+0x188>
     e58:	e2400004 	sub	r0, r0, #4
     e5c:	e312000f 	tst	r2, #15
     e60:	0a00000b 	beq	e94 <pixman_composite_src_x888_8888_asm_armv6+0x1d4>
     e64:	e2628000 	rsb	r8, r2, #0
     e68:	e1b0ce88 	lsls	ip, r8, #29
     e6c:	44949004 	ldrmi	r9, [r4], #4
     e70:	2494a004 	ldrcs	sl, [r4], #4
     e74:	2494b004 	ldrcs	fp, [r4], #4
     e78:	42400001 	submi	r0, r0, #1
     e7c:	22400002 	subcs	r0, r0, #2
     e80:	438994ff 	orrmi	r9, r9, #-16777216	; 0xff000000
     e84:	238aa4ff 	orrcs	sl, sl, #-16777216	; 0xff000000
     e88:	238bb4ff 	orrcs	fp, fp, #-16777216	; 0xff000000
     e8c:	44829004 	strmi	r9, [r2], #4
     e90:	28a20c00 	stmiacs	r2!, {sl, fp}
     e94:	e8b40f00 	ldm	r4!, {r8, r9, sl, fp}
     e98:	e38884ff 	orr	r8, r8, #-16777216	; 0xff000000
     e9c:	e38994ff 	orr	r9, r9, #-16777216	; 0xff000000
     ea0:	e38aa4ff 	orr	sl, sl, #-16777216	; 0xff000000
     ea4:	e38bb4ff 	orr	fp, fp, #-16777216	; 0xff000000
     ea8:	e8a20f00 	stmia	r2!, {r8, r9, sl, fp}
     eac:	e2500004 	subs	r0, r0, #4
     eb0:	2afffff7 	bcs	e94 <pixman_composite_src_x888_8888_asm_armv6+0x1d4>
     eb4:	e3100003 	tst	r0, #3
     eb8:	0a000007 	beq	edc <pixman_composite_src_x888_8888_asm_armv6+0x21c>
     ebc:	e1b0cf80 	lsls	ip, r0, #31
     ec0:	28b40300 	ldmcs	r4!, {r8, r9}
     ec4:	4494a004 	ldrmi	sl, [r4], #4
     ec8:	238884ff 	orrcs	r8, r8, #-16777216	; 0xff000000
     ecc:	238994ff 	orrcs	r9, r9, #-16777216	; 0xff000000
     ed0:	438aa4ff 	orrmi	sl, sl, #-16777216	; 0xff000000
     ed4:	28a20300 	stmiacs	r2!, {r8, r9}
     ed8:	4482a004 	strmi	sl, [r2], #4
     edc:	e2511001 	subs	r1, r1, #1
     ee0:	e0822003 	add	r2, r2, r3
     ee4:	e0844005 	add	r4, r4, r5
     ee8:	e1a0000e 	mov	r0, lr
     eec:	2affffce 	bcs	e2c <pixman_composite_src_x888_8888_asm_armv6+0x16c>
     ef0:	ea00001a 	b	f60 <pixman_composite_src_x888_8888_asm_armv6+0x2a0>
     ef4:	e3c4801f 	bic	r8, r4, #31
     ef8:	f5d8f000 	pld	[r8]
     efc:	e0849100 	add	r9, r4, r0, lsl #2
     f00:	e2499001 	sub	r9, r9, #1
     f04:	e3c9901f 	bic	r9, r9, #31
     f08:	e1590008 	cmp	r9, r8
     f0c:	0a000000 	beq	f14 <pixman_composite_src_x888_8888_asm_armv6+0x254>
     f10:	f5d9f000 	pld	[r9]
     f14:	e3100004 	tst	r0, #4
     f18:	18b40f00 	ldmne	r4!, {r8, r9, sl, fp}
     f1c:	138884ff 	orrne	r8, r8, #-16777216	; 0xff000000
     f20:	138994ff 	orrne	r9, r9, #-16777216	; 0xff000000
     f24:	138aa4ff 	orrne	sl, sl, #-16777216	; 0xff000000
     f28:	138bb4ff 	orrne	fp, fp, #-16777216	; 0xff000000
     f2c:	18a20f00 	stmiane	r2!, {r8, r9, sl, fp}
     f30:	e1b0cf80 	lsls	ip, r0, #31
     f34:	28b40300 	ldmcs	r4!, {r8, r9}
     f38:	4494a004 	ldrmi	sl, [r4], #4
     f3c:	238884ff 	orrcs	r8, r8, #-16777216	; 0xff000000
     f40:	238994ff 	orrcs	r9, r9, #-16777216	; 0xff000000
     f44:	438aa4ff 	orrmi	sl, sl, #-16777216	; 0xff000000
     f48:	28a20300 	stmiacs	r2!, {r8, r9}
     f4c:	4482a004 	strmi	sl, [r2], #4
     f50:	e2511001 	subs	r1, r1, #1
     f54:	e0822003 	add	r2, r2, r3
     f58:	e0844005 	add	r4, r4, r5
     f5c:	2affffe4 	bcs	ef4 <pixman_composite_src_x888_8888_asm_armv6+0x234>
     f60:	e8bd8ff0 	pop	{r4, r5, r6, r7, r8, r9, sl, fp, pc}

00000f64 <pixman_composite_src_0565_8888_asm_armv6>:
     f64:	e92d4ff0 	push	{r4, r5, r6, r7, r8, r9, sl, fp, lr}
     f68:	e2511001 	subs	r1, r1, #1
     f6c:	3a000341 	bcc	1c78 <pixman_composite_src_0565_8888_asm_armv6+0xd14>
     f70:	e59d4024 	ldr	r4, [sp, #36]	; 0x24
     f74:	e59d5028 	ldr	r5, [sp, #40]	; 0x28
     f78:	e59f67a4 	ldr	r6, [pc, #1956]	; 1724 <pixman_composite_src_0565_8888_asm_armv6+0x7c0>
     f7c:	e3a074ff 	mov	r7, #-16777216	; 0xff000000
     f80:	e59fc7a0 	ldr	ip, [pc, #1952]	; 1728 <pixman_composite_src_0565_8888_asm_armv6+0x7c4>
     f84:	e65ccf9c 	uadd8	ip, ip, ip
     f88:	e1a03103 	lsl	r3, r3, #2
     f8c:	e0433100 	sub	r3, r3, r0, lsl #2
     f90:	e1a05085 	lsl	r5, r5, #1
     f94:	e0455080 	sub	r5, r5, r0, lsl #1
     f98:	e3500007 	cmp	r0, #7
     f9c:	3a0002a3 	bcc	1a30 <pixman_composite_src_0565_8888_asm_armv6+0xacc>
     fa0:	e350005f 	cmp	r0, #95	; 0x5f
     fa4:	3a0001e0 	bcc	172c <pixman_composite_src_0565_8888_asm_armv6+0x7c8>
     fa8:	e2400050 	sub	r0, r0, #80	; 0x50
     fac:	e1a0e000 	mov	lr, r0
     fb0:	e3c4901f 	bic	r9, r4, #31
     fb4:	f5d9f000 	pld	[r9]
     fb8:	f5d9f020 	pld	[r9, #32]
     fbc:	f5d9f040 	pld	[r9, #64]	; 0x40
     fc0:	f5d9f060 	pld	[r9, #96]	; 0x60
     fc4:	e312000f 	tst	r2, #15
     fc8:	0a000027 	beq	106c <pixman_composite_src_0565_8888_asm_armv6+0x108>
     fcc:	e2628000 	rsb	r8, r2, #0
     fd0:	e208800f 	and	r8, r8, #15
     fd4:	e1a0cd84 	lsl	ip, r4, #27
     fd8:	e08ccd08 	add	ip, ip, r8, lsl #26
     fdc:	e07ccd08 	rsbs	ip, ip, r8, lsl #26
     fe0:	9a000000 	bls	fe8 <pixman_composite_src_0565_8888_asm_armv6+0x84>
     fe4:	f5d9f080 	pld	[r9, #128]	; 0x80
     fe8:	e1b0ce88 	lsls	ip, r8, #29
     fec:	5a00000b 	bpl	1020 <pixman_composite_src_0565_8888_asm_armv6+0xbc>
     ff0:	e0d490b2 	ldrh	r9, [r4], #2
     ff4:	e2400001 	sub	r0, r0, #1
     ff8:	e1c9c006 	bic	ip, r9, r6
     ffc:	e0099006 	and	r9, r9, r6
    1000:	e1a0c18c 	lsl	ip, ip, #3
    1004:	e1a09289 	lsl	r9, r9, #5
    1008:	e18cc2ac 	orr	ip, ip, ip, lsr #5
    100c:	e1899329 	orr	r9, r9, r9, lsr #6
    1010:	e68cc29c 	pkhbt	ip, ip, ip, lsl #5
    1014:	e6899fbc 	sel	r9, r9, ip
    1018:	e38994ff 	orr	r9, r9, #-16777216	; 0xff000000
    101c:	e4829004 	str	r9, [r2], #4
    1020:	3a000011 	bcc	106c <pixman_composite_src_0565_8888_asm_armv6+0x108>
    1024:	e494a004 	ldr	sl, [r4], #4
    1028:	e2400002 	sub	r0, r0, #2
    102c:	e00ac006 	and	ip, sl, r6
    1030:	e1cab006 	bic	fp, sl, r6
    1034:	e18cc32c 	orr	ip, ip, ip, lsr #6
    1038:	e1a0a80b 	lsl	sl, fp, #16
    103c:	e1a0c9ec 	ror	ip, ip, #19
    1040:	e1cbb82a 	bic	fp, fp, sl, lsr #16
    1044:	e18aa2aa 	orr	sl, sl, sl, lsr #5
    1048:	e18bb2ab 	orr	fp, fp, fp, lsr #5
    104c:	e68aa2da 	pkhtb	sl, sl, sl, asr #5
    1050:	e68aafbc 	sel	sl, sl, ip
    1054:	e1a0c86c 	ror	ip, ip, #16
    1058:	e68bb2db 	pkhtb	fp, fp, fp, asr #5
    105c:	e68bbfbc 	sel	fp, fp, ip
    1060:	e187a42a 	orr	sl, r7, sl, lsr #8
    1064:	e187b42b 	orr	fp, r7, fp, lsr #8
    1068:	e8a20c00 	stmia	r2!, {sl, fp}
    106c:	e3140003 	tst	r4, #3
    1070:	1a0000d0 	bne	13b8 <pixman_composite_src_0565_8888_asm_armv6+0x454>
    1074:	e8b40500 	ldm	r4!, {r8, sl}
    1078:	e008c006 	and	ip, r8, r6
    107c:	e1c89006 	bic	r9, r8, r6
    1080:	e18cc32c 	orr	ip, ip, ip, lsr #6
    1084:	e1a08809 	lsl	r8, r9, #16
    1088:	e1a0c9ec 	ror	ip, ip, #19
    108c:	e1c99828 	bic	r9, r9, r8, lsr #16
    1090:	e18882a8 	orr	r8, r8, r8, lsr #5
    1094:	e18992a9 	orr	r9, r9, r9, lsr #5
    1098:	e68882d8 	pkhtb	r8, r8, r8, asr #5
    109c:	e6888fbc 	sel	r8, r8, ip
    10a0:	e1a0c86c 	ror	ip, ip, #16
    10a4:	e68992d9 	pkhtb	r9, r9, r9, asr #5
    10a8:	e6899fbc 	sel	r9, r9, ip
    10ac:	e1878428 	orr	r8, r7, r8, lsr #8
    10b0:	e1879429 	orr	r9, r7, r9, lsr #8
    10b4:	e00ac006 	and	ip, sl, r6
    10b8:	e1cab006 	bic	fp, sl, r6
    10bc:	e18cc32c 	orr	ip, ip, ip, lsr #6
    10c0:	e1a0a80b 	lsl	sl, fp, #16
    10c4:	e1a0c9ec 	ror	ip, ip, #19
    10c8:	e1cbb82a 	bic	fp, fp, sl, lsr #16
    10cc:	e18aa2aa 	orr	sl, sl, sl, lsr #5
    10d0:	e18bb2ab 	orr	fp, fp, fp, lsr #5
    10d4:	e68aa2da 	pkhtb	sl, sl, sl, asr #5
    10d8:	e68aafbc 	sel	sl, sl, ip
    10dc:	e1a0c86c 	ror	ip, ip, #16
    10e0:	e68bb2db 	pkhtb	fp, fp, fp, asr #5
    10e4:	e68bbfbc 	sel	fp, fp, ip
    10e8:	e187a42a 	orr	sl, r7, sl, lsr #8
    10ec:	e187b42b 	orr	fp, r7, fp, lsr #8
    10f0:	e8a20f00 	stmia	r2!, {r8, r9, sl, fp}
    10f4:	e8b40500 	ldm	r4!, {r8, sl}
    10f8:	e008c006 	and	ip, r8, r6
    10fc:	e1c89006 	bic	r9, r8, r6
    1100:	e18cc32c 	orr	ip, ip, ip, lsr #6
    1104:	e1a08809 	lsl	r8, r9, #16
    1108:	e1a0c9ec 	ror	ip, ip, #19
    110c:	e1c99828 	bic	r9, r9, r8, lsr #16
    1110:	e18882a8 	orr	r8, r8, r8, lsr #5
    1114:	e18992a9 	orr	r9, r9, r9, lsr #5
    1118:	e68882d8 	pkhtb	r8, r8, r8, asr #5
    111c:	e6888fbc 	sel	r8, r8, ip
    1120:	e1a0c86c 	ror	ip, ip, #16
    1124:	e68992d9 	pkhtb	r9, r9, r9, asr #5
    1128:	e6899fbc 	sel	r9, r9, ip
    112c:	e1878428 	orr	r8, r7, r8, lsr #8
    1130:	e1879429 	orr	r9, r7, r9, lsr #8
    1134:	e00ac006 	and	ip, sl, r6
    1138:	e1cab006 	bic	fp, sl, r6
    113c:	e18cc32c 	orr	ip, ip, ip, lsr #6
    1140:	e1a0a80b 	lsl	sl, fp, #16
    1144:	e1a0c9ec 	ror	ip, ip, #19
    1148:	e1cbb82a 	bic	fp, fp, sl, lsr #16
    114c:	e18aa2aa 	orr	sl, sl, sl, lsr #5
    1150:	e18bb2ab 	orr	fp, fp, fp, lsr #5
    1154:	e68aa2da 	pkhtb	sl, sl, sl, asr #5
    1158:	e68aafbc 	sel	sl, sl, ip
    115c:	e1a0c86c 	ror	ip, ip, #16
    1160:	e68bb2db 	pkhtb	fp, fp, fp, asr #5
    1164:	e68bbfbc 	sel	fp, fp, ip
    1168:	e187a42a 	orr	sl, r7, sl, lsr #8
    116c:	e187b42b 	orr	fp, r7, fp, lsr #8
    1170:	e8a20f00 	stmia	r2!, {r8, r9, sl, fp}
    1174:	e8b40500 	ldm	r4!, {r8, sl}
    1178:	e008c006 	and	ip, r8, r6
    117c:	e1c89006 	bic	r9, r8, r6
    1180:	e18cc32c 	orr	ip, ip, ip, lsr #6
    1184:	e1a08809 	lsl	r8, r9, #16
    1188:	e1a0c9ec 	ror	ip, ip, #19
    118c:	e1c99828 	bic	r9, r9, r8, lsr #16
    1190:	e18882a8 	orr	r8, r8, r8, lsr #5
    1194:	e18992a9 	orr	r9, r9, r9, lsr #5
    1198:	e68882d8 	pkhtb	r8, r8, r8, asr #5
    119c:	e6888fbc 	sel	r8, r8, ip
    11a0:	e1a0c86c 	ror	ip, ip, #16
    11a4:	e68992d9 	pkhtb	r9, r9, r9, asr #5
    11a8:	e6899fbc 	sel	r9, r9, ip
    11ac:	e1878428 	orr	r8, r7, r8, lsr #8
    11b0:	e1879429 	orr	r9, r7, r9, lsr #8
    11b4:	e00ac006 	and	ip, sl, r6
    11b8:	e1cab006 	bic	fp, sl, r6
    11bc:	e18cc32c 	orr	ip, ip, ip, lsr #6
    11c0:	e1a0a80b 	lsl	sl, fp, #16
    11c4:	e1a0c9ec 	ror	ip, ip, #19
    11c8:	e1cbb82a 	bic	fp, fp, sl, lsr #16
    11cc:	e18aa2aa 	orr	sl, sl, sl, lsr #5
    11d0:	e18bb2ab 	orr	fp, fp, fp, lsr #5
    11d4:	e68aa2da 	pkhtb	sl, sl, sl, asr #5
    11d8:	e68aafbc 	sel	sl, sl, ip
    11dc:	e1a0c86c 	ror	ip, ip, #16
    11e0:	e68bb2db 	pkhtb	fp, fp, fp, asr #5
    11e4:	e68bbfbc 	sel	fp, fp, ip
    11e8:	e187a42a 	orr	sl, r7, sl, lsr #8
    11ec:	e187b42b 	orr	fp, r7, fp, lsr #8
    11f0:	e8a20f00 	stmia	r2!, {r8, r9, sl, fp}
    11f4:	e8b40500 	ldm	r4!, {r8, sl}
    11f8:	e3c4c01f 	bic	ip, r4, #31
    11fc:	f5dcf060 	pld	[ip, #96]	; 0x60
    1200:	e008c006 	and	ip, r8, r6
    1204:	e1c89006 	bic	r9, r8, r6
    1208:	e18cc32c 	orr	ip, ip, ip, lsr #6
    120c:	e1a08809 	lsl	r8, r9, #16
    1210:	e1a0c9ec 	ror	ip, ip, #19
    1214:	e1c99828 	bic	r9, r9, r8, lsr #16
    1218:	e18882a8 	orr	r8, r8, r8, lsr #5
    121c:	e18992a9 	orr	r9, r9, r9, lsr #5
    1220:	e68882d8 	pkhtb	r8, r8, r8, asr #5
    1224:	e6888fbc 	sel	r8, r8, ip
    1228:	e1a0c86c 	ror	ip, ip, #16
    122c:	e68992d9 	pkhtb	r9, r9, r9, asr #5
    1230:	e6899fbc 	sel	r9, r9, ip
    1234:	e1878428 	orr	r8, r7, r8, lsr #8
    1238:	e1879429 	orr	r9, r7, r9, lsr #8
    123c:	e00ac006 	and	ip, sl, r6
    1240:	e1cab006 	bic	fp, sl, r6
    1244:	e18cc32c 	orr	ip, ip, ip, lsr #6
    1248:	e1a0a80b 	lsl	sl, fp, #16
    124c:	e1a0c9ec 	ror	ip, ip, #19
    1250:	e1cbb82a 	bic	fp, fp, sl, lsr #16
    1254:	e18aa2aa 	orr	sl, sl, sl, lsr #5
    1258:	e18bb2ab 	orr	fp, fp, fp, lsr #5
    125c:	e68aa2da 	pkhtb	sl, sl, sl, asr #5
    1260:	e68aafbc 	sel	sl, sl, ip
    1264:	e1a0c86c 	ror	ip, ip, #16
    1268:	e68bb2db 	pkhtb	fp, fp, fp, asr #5
    126c:	e68bbfbc 	sel	fp, fp, ip
    1270:	e187a42a 	orr	sl, r7, sl, lsr #8
    1274:	e187b42b 	orr	fp, r7, fp, lsr #8
    1278:	e8a20f00 	stmia	r2!, {r8, r9, sl, fp}
    127c:	e2500010 	subs	r0, r0, #16
    1280:	2affff7b 	bcs	1074 <pixman_composite_src_0565_8888_asm_armv6+0x110>
    1284:	e1a0cd84 	lsl	ip, r4, #27
    1288:	e09cce00 	adds	ip, ip, r0, lsl #28
    128c:	02bcc000 	adcseq	ip, ip, #0
    1290:	0a000003 	beq	12a4 <pixman_composite_src_0565_8888_asm_armv6+0x340>
    1294:	e3c4c01f 	bic	ip, r4, #31
    1298:	3a000000 	bcc	12a0 <pixman_composite_src_0565_8888_asm_armv6+0x33c>
    129c:	f5dcf0a0 	pld	[ip, #160]	; 0xa0
    12a0:	f5dcf080 	pld	[ip, #128]	; 0x80
    12a4:	e280004c 	add	r0, r0, #76	; 0x4c
    12a8:	e8b40500 	ldm	r4!, {r8, sl}
    12ac:	e008c006 	and	ip, r8, r6
    12b0:	e1c89006 	bic	r9, r8, r6
    12b4:	e18cc32c 	orr	ip, ip, ip, lsr #6
    12b8:	e1a08809 	lsl	r8, r9, #16
    12bc:	e1a0c9ec 	ror	ip, ip, #19
    12c0:	e1c99828 	bic	r9, r9, r8, lsr #16
    12c4:	e18882a8 	orr	r8, r8, r8, lsr #5
    12c8:	e18992a9 	orr	r9, r9, r9, lsr #5
    12cc:	e68882d8 	pkhtb	r8, r8, r8, asr #5
    12d0:	e6888fbc 	sel	r8, r8, ip
    12d4:	e1a0c86c 	ror	ip, ip, #16
    12d8:	e68992d9 	pkhtb	r9, r9, r9, asr #5
    12dc:	e6899fbc 	sel	r9, r9, ip
    12e0:	e1878428 	orr	r8, r7, r8, lsr #8
    12e4:	e1879429 	orr	r9, r7, r9, lsr #8
    12e8:	e00ac006 	and	ip, sl, r6
    12ec:	e1cab006 	bic	fp, sl, r6
    12f0:	e18cc32c 	orr	ip, ip, ip, lsr #6
    12f4:	e1a0a80b 	lsl	sl, fp, #16
    12f8:	e1a0c9ec 	ror	ip, ip, #19
    12fc:	e1cbb82a 	bic	fp, fp, sl, lsr #16
    1300:	e18aa2aa 	orr	sl, sl, sl, lsr #5
    1304:	e18bb2ab 	orr	fp, fp, fp, lsr #5
    1308:	e68aa2da 	pkhtb	sl, sl, sl, asr #5
    130c:	e68aafbc 	sel	sl, sl, ip
    1310:	e1a0c86c 	ror	ip, ip, #16
    1314:	e68bb2db 	pkhtb	fp, fp, fp, asr #5
    1318:	e68bbfbc 	sel	fp, fp, ip
    131c:	e187a42a 	orr	sl, r7, sl, lsr #8
    1320:	e187b42b 	orr	fp, r7, fp, lsr #8
    1324:	e8a20f00 	stmia	r2!, {r8, r9, sl, fp}
    1328:	e2500004 	subs	r0, r0, #4
    132c:	2affffdd 	bcs	12a8 <pixman_composite_src_0565_8888_asm_armv6+0x344>
    1330:	e3100003 	tst	r0, #3
    1334:	0a0000f4 	beq	170c <pixman_composite_src_0565_8888_asm_armv6+0x7a8>
    1338:	e1b0cf80 	lsls	ip, r0, #31
    133c:	3a000010 	bcc	1384 <pixman_composite_src_0565_8888_asm_armv6+0x420>
    1340:	e4948004 	ldr	r8, [r4], #4
    1344:	e008c006 	and	ip, r8, r6
    1348:	e1c89006 	bic	r9, r8, r6
    134c:	e18cc32c 	orr	ip, ip, ip, lsr #6
    1350:	e1a08809 	lsl	r8, r9, #16
    1354:	e1a0c9ec 	ror	ip, ip, #19
    1358:	e1c99828 	bic	r9, r9, r8, lsr #16
    135c:	e18882a8 	orr	r8, r8, r8, lsr #5
    1360:	e18992a9 	orr	r9, r9, r9, lsr #5
    1364:	e68882d8 	pkhtb	r8, r8, r8, asr #5
    1368:	e6888fbc 	sel	r8, r8, ip
    136c:	e1a0c86c 	ror	ip, ip, #16
    1370:	e68992d9 	pkhtb	r9, r9, r9, asr #5
    1374:	e6899fbc 	sel	r9, r9, ip
    1378:	e1878428 	orr	r8, r7, r8, lsr #8
    137c:	e1879429 	orr	r9, r7, r9, lsr #8
    1380:	e8a20300 	stmia	r2!, {r8, r9}
    1384:	5a00000a 	bpl	13b4 <pixman_composite_src_0565_8888_asm_armv6+0x450>
    1388:	e0d4a0b2 	ldrh	sl, [r4], #2
    138c:	e1cac006 	bic	ip, sl, r6
    1390:	e00aa006 	and	sl, sl, r6
    1394:	e1a0c18c 	lsl	ip, ip, #3
    1398:	e1a0a28a 	lsl	sl, sl, #5
    139c:	e18cc2ac 	orr	ip, ip, ip, lsr #5
    13a0:	e18aa32a 	orr	sl, sl, sl, lsr #6
    13a4:	e68cc29c 	pkhbt	ip, ip, ip, lsl #5
    13a8:	e68aafbc 	sel	sl, sl, ip
    13ac:	e38aa4ff 	orr	sl, sl, #-16777216	; 0xff000000
    13b0:	e482a004 	str	sl, [r2], #4
    13b4:	ea0000d4 	b	170c <pixman_composite_src_0565_8888_asm_armv6+0x7a8>
    13b8:	e4948004 	ldr	r8, [r4], #4
    13bc:	e494a004 	ldr	sl, [r4], #4
    13c0:	e008c006 	and	ip, r8, r6
    13c4:	e1c89006 	bic	r9, r8, r6
    13c8:	e18cc32c 	orr	ip, ip, ip, lsr #6
    13cc:	e1a08809 	lsl	r8, r9, #16
    13d0:	e1a0c9ec 	ror	ip, ip, #19
    13d4:	e1c99828 	bic	r9, r9, r8, lsr #16
    13d8:	e18882a8 	orr	r8, r8, r8, lsr #5
    13dc:	e18992a9 	orr	r9, r9, r9, lsr #5
    13e0:	e68882d8 	pkhtb	r8, r8, r8, asr #5
    13e4:	e6888fbc 	sel	r8, r8, ip
    13e8:	e1a0c86c 	ror	ip, ip, #16
    13ec:	e68992d9 	pkhtb	r9, r9, r9, asr #5
    13f0:	e6899fbc 	sel	r9, r9, ip
    13f4:	e1878428 	orr	r8, r7, r8, lsr #8
    13f8:	e1879429 	orr	r9, r7, r9, lsr #8
    13fc:	e00ac006 	and	ip, sl, r6
    1400:	e1cab006 	bic	fp, sl, r6
    1404:	e18cc32c 	orr	ip, ip, ip, lsr #6
    1408:	e1a0a80b 	lsl	sl, fp, #16
    140c:	e1a0c9ec 	ror	ip, ip, #19
    1410:	e1cbb82a 	bic	fp, fp, sl, lsr #16
    1414:	e18aa2aa 	orr	sl, sl, sl, lsr #5
    1418:	e18bb2ab 	orr	fp, fp, fp, lsr #5
    141c:	e68aa2da 	pkhtb	sl, sl, sl, asr #5
    1420:	e68aafbc 	sel	sl, sl, ip
    1424:	e1a0c86c 	ror	ip, ip, #16
    1428:	e68bb2db 	pkhtb	fp, fp, fp, asr #5
    142c:	e68bbfbc 	sel	fp, fp, ip
    1430:	e187a42a 	orr	sl, r7, sl, lsr #8
    1434:	e187b42b 	orr	fp, r7, fp, lsr #8
    1438:	e8a20f00 	stmia	r2!, {r8, r9, sl, fp}
    143c:	e4948004 	ldr	r8, [r4], #4
    1440:	e494a004 	ldr	sl, [r4], #4
    1444:	e008c006 	and	ip, r8, r6
    1448:	e1c89006 	bic	r9, r8, r6
    144c:	e18cc32c 	orr	ip, ip, ip, lsr #6
    1450:	e1a08809 	lsl	r8, r9, #16
    1454:	e1a0c9ec 	ror	ip, ip, #19
    1458:	e1c99828 	bic	r9, r9, r8, lsr #16
    145c:	e18882a8 	orr	r8, r8, r8, lsr #5
    1460:	e18992a9 	orr	r9, r9, r9, lsr #5
    1464:	e68882d8 	pkhtb	r8, r8, r8, asr #5
    1468:	e6888fbc 	sel	r8, r8, ip
    146c:	e1a0c86c 	ror	ip, ip, #16
    1470:	e68992d9 	pkhtb	r9, r9, r9, asr #5
    1474:	e6899fbc 	sel	r9, r9, ip
    1478:	e1878428 	orr	r8, r7, r8, lsr #8
    147c:	e1879429 	orr	r9, r7, r9, lsr #8
    1480:	e00ac006 	and	ip, sl, r6
    1484:	e1cab006 	bic	fp, sl, r6
    1488:	e18cc32c 	orr	ip, ip, ip, lsr #6
    148c:	e1a0a80b 	lsl	sl, fp, #16
    1490:	e1a0c9ec 	ror	ip, ip, #19
    1494:	e1cbb82a 	bic	fp, fp, sl, lsr #16
    1498:	e18aa2aa 	orr	sl, sl, sl, lsr #5
    149c:	e18bb2ab 	orr	fp, fp, fp, lsr #5
    14a0:	e68aa2da 	pkhtb	sl, sl, sl, asr #5
    14a4:	e68aafbc 	sel	sl, sl, ip
    14a8:	e1a0c86c 	ror	ip, ip, #16
    14ac:	e68bb2db 	pkhtb	fp, fp, fp, asr #5
    14b0:	e68bbfbc 	sel	fp, fp, ip
    14b4:	e187a42a 	orr	sl, r7, sl, lsr #8
    14b8:	e187b42b 	orr	fp, r7, fp, lsr #8
    14bc:	e8a20f00 	stmia	r2!, {r8, r9, sl, fp}
    14c0:	e4948004 	ldr	r8, [r4], #4
    14c4:	e494a004 	ldr	sl, [r4], #4
    14c8:	e008c006 	and	ip, r8, r6
    14cc:	e1c89006 	bic	r9, r8, r6
    14d0:	e18cc32c 	orr	ip, ip, ip, lsr #6
    14d4:	e1a08809 	lsl	r8, r9, #16
    14d8:	e1a0c9ec 	ror	ip, ip, #19
    14dc:	e1c99828 	bic	r9, r9, r8, lsr #16
    14e0:	e18882a8 	orr	r8, r8, r8, lsr #5
    14e4:	e18992a9 	orr	r9, r9, r9, lsr #5
    14e8:	e68882d8 	pkhtb	r8, r8, r8, asr #5
    14ec:	e6888fbc 	sel	r8, r8, ip
    14f0:	e1a0c86c 	ror	ip, ip, #16
    14f4:	e68992d9 	pkhtb	r9, r9, r9, asr #5
    14f8:	e6899fbc 	sel	r9, r9, ip
    14fc:	e1878428 	orr	r8, r7, r8, lsr #8
    1500:	e1879429 	orr	r9, r7, r9, lsr #8
    1504:	e00ac006 	and	ip, sl, r6
    1508:	e1cab006 	bic	fp, sl, r6
    150c:	e18cc32c 	orr	ip, ip, ip, lsr #6
    1510:	e1a0a80b 	lsl	sl, fp, #16
    1514:	e1a0c9ec 	ror	ip, ip, #19
    1518:	e1cbb82a 	bic	fp, fp, sl, lsr #16
    151c:	e18aa2aa 	orr	sl, sl, sl, lsr #5
    1520:	e18bb2ab 	orr	fp, fp, fp, lsr #5
    1524:	e68aa2da 	pkhtb	sl, sl, sl, asr #5
    1528:	e68aafbc 	sel	sl, sl, ip
    152c:	e1a0c86c 	ror	ip, ip, #16
    1530:	e68bb2db 	pkhtb	fp, fp, fp, asr #5
    1534:	e68bbfbc 	sel	fp, fp, ip
    1538:	e187a42a 	orr	sl, r7, sl, lsr #8
    153c:	e187b42b 	orr	fp, r7, fp, lsr #8
    1540:	e8a20f00 	stmia	r2!, {r8, r9, sl, fp}
    1544:	e4948004 	ldr	r8, [r4], #4
    1548:	e494a004 	ldr	sl, [r4], #4
    154c:	e3c4c01f 	bic	ip, r4, #31
    1550:	f5dcf060 	pld	[ip, #96]	; 0x60
    1554:	e008c006 	and	ip, r8, r6
    1558:	e1c89006 	bic	r9, r8, r6
    155c:	e18cc32c 	orr	ip, ip, ip, lsr #6
    1560:	e1a08809 	lsl	r8, r9, #16
    1564:	e1a0c9ec 	ror	ip, ip, #19
    1568:	e1c99828 	bic	r9, r9, r8, lsr #16
    156c:	e18882a8 	orr	r8, r8, r8, lsr #5
    1570:	e18992a9 	orr	r9, r9, r9, lsr #5
    1574:	e68882d8 	pkhtb	r8, r8, r8, asr #5
    1578:	e6888fbc 	sel	r8, r8, ip
    157c:	e1a0c86c 	ror	ip, ip, #16
    1580:	e68992d9 	pkhtb	r9, r9, r9, asr #5
    1584:	e6899fbc 	sel	r9, r9, ip
    1588:	e1878428 	orr	r8, r7, r8, lsr #8
    158c:	e1879429 	orr	r9, r7, r9, lsr #8
    1590:	e00ac006 	and	ip, sl, r6
    1594:	e1cab006 	bic	fp, sl, r6
    1598:	e18cc32c 	orr	ip, ip, ip, lsr #6
    159c:	e1a0a80b 	lsl	sl, fp, #16
    15a0:	e1a0c9ec 	ror	ip, ip, #19
    15a4:	e1cbb82a 	bic	fp, fp, sl, lsr #16
    15a8:	e18aa2aa 	orr	sl, sl, sl, lsr #5
    15ac:	e18bb2ab 	orr	fp, fp, fp, lsr #5
    15b0:	e68aa2da 	pkhtb	sl, sl, sl, asr #5
    15b4:	e68aafbc 	sel	sl, sl, ip
    15b8:	e1a0c86c 	ror	ip, ip, #16
    15bc:	e68bb2db 	pkhtb	fp, fp, fp, asr #5
    15c0:	e68bbfbc 	sel	fp, fp, ip
    15c4:	e187a42a 	orr	sl, r7, sl, lsr #8
    15c8:	e187b42b 	orr	fp, r7, fp, lsr #8
    15cc:	e8a20f00 	stmia	r2!, {r8, r9, sl, fp}
    15d0:	e2500010 	subs	r0, r0, #16
    15d4:	2affff77 	bcs	13b8 <pixman_composite_src_0565_8888_asm_armv6+0x454>
    15d8:	e1a0cd84 	lsl	ip, r4, #27
    15dc:	e09cce00 	adds	ip, ip, r0, lsl #28
    15e0:	02bcc000 	adcseq	ip, ip, #0
    15e4:	0a000003 	beq	15f8 <pixman_composite_src_0565_8888_asm_armv6+0x694>
    15e8:	e3c4c01f 	bic	ip, r4, #31
    15ec:	3a000000 	bcc	15f4 <pixman_composite_src_0565_8888_asm_armv6+0x690>
    15f0:	f5dcf0a0 	pld	[ip, #160]	; 0xa0
    15f4:	f5dcf080 	pld	[ip, #128]	; 0x80
    15f8:	e280004c 	add	r0, r0, #76	; 0x4c
    15fc:	e4948004 	ldr	r8, [r4], #4
    1600:	e494a004 	ldr	sl, [r4], #4
    1604:	e008c006 	and	ip, r8, r6
    1608:	e1c89006 	bic	r9, r8, r6
    160c:	e18cc32c 	orr	ip, ip, ip, lsr #6
    1610:	e1a08809 	lsl	r8, r9, #16
    1614:	e1a0c9ec 	ror	ip, ip, #19
    1618:	e1c99828 	bic	r9, r9, r8, lsr #16
    161c:	e18882a8 	orr	r8, r8, r8, lsr #5
    1620:	e18992a9 	orr	r9, r9, r9, lsr #5
    1624:	e68882d8 	pkhtb	r8, r8, r8, asr #5
    1628:	e6888fbc 	sel	r8, r8, ip
    162c:	e1a0c86c 	ror	ip, ip, #16
    1630:	e68992d9 	pkhtb	r9, r9, r9, asr #5
    1634:	e6899fbc 	sel	r9, r9, ip
    1638:	e1878428 	orr	r8, r7, r8, lsr #8
    163c:	e1879429 	orr	r9, r7, r9, lsr #8
    1640:	e00ac006 	and	ip, sl, r6
    1644:	e1cab006 	bic	fp, sl, r6
    1648:	e18cc32c 	orr	ip, ip, ip, lsr #6
    164c:	e1a0a80b 	lsl	sl, fp, #16
    1650:	e1a0c9ec 	ror	ip, ip, #19
    1654:	e1cbb82a 	bic	fp, fp, sl, lsr #16
    1658:	e18aa2aa 	orr	sl, sl, sl, lsr #5
    165c:	e18bb2ab 	orr	fp, fp, fp, lsr #5
    1660:	e68aa2da 	pkhtb	sl, sl, sl, asr #5
    1664:	e68aafbc 	sel	sl, sl, ip
    1668:	e1a0c86c 	ror	ip, ip, #16
    166c:	e68bb2db 	pkhtb	fp, fp, fp, asr #5
    1670:	e68bbfbc 	sel	fp, fp, ip
    1674:	e187a42a 	orr	sl, r7, sl, lsr #8
    1678:	e187b42b 	orr	fp, r7, fp, lsr #8
    167c:	e8a20f00 	stmia	r2!, {r8, r9, sl, fp}
    1680:	e2500004 	subs	r0, r0, #4
    1684:	2affffdc 	bcs	15fc <pixman_composite_src_0565_8888_asm_armv6+0x698>
    1688:	e3100003 	tst	r0, #3
    168c:	0a00001e 	beq	170c <pixman_composite_src_0565_8888_asm_armv6+0x7a8>
    1690:	e1b0cf80 	lsls	ip, r0, #31
    1694:	3a000010 	bcc	16dc <pixman_composite_src_0565_8888_asm_armv6+0x778>
    1698:	e4948004 	ldr	r8, [r4], #4
    169c:	e008c006 	and	ip, r8, r6
    16a0:	e1c89006 	bic	r9, r8, r6
    16a4:	e18cc32c 	orr	ip, ip, ip, lsr #6
    16a8:	e1a08809 	lsl	r8, r9, #16
    16ac:	e1a0c9ec 	ror	ip, ip, #19
    16b0:	e1c99828 	bic	r9, r9, r8, lsr #16
    16b4:	e18882a8 	orr	r8, r8, r8, lsr #5
    16b8:	e18992a9 	orr	r9, r9, r9, lsr #5
    16bc:	e68882d8 	pkhtb	r8, r8, r8, asr #5
    16c0:	e6888fbc 	sel	r8, r8, ip
    16c4:	e1a0c86c 	ror	ip, ip, #16
    16c8:	e68992d9 	pkhtb	r9, r9, r9, asr #5
    16cc:	e6899fbc 	sel	r9, r9, ip
    16d0:	e1878428 	orr	r8, r7, r8, lsr #8
    16d4:	e1879429 	orr	r9, r7, r9, lsr #8
    16d8:	e8a20300 	stmia	r2!, {r8, r9}
    16dc:	5a00000a 	bpl	170c <pixman_composite_src_0565_8888_asm_armv6+0x7a8>
    16e0:	e0d4a0b2 	ldrh	sl, [r4], #2
    16e4:	e1cac006 	bic	ip, sl, r6
    16e8:	e00aa006 	and	sl, sl, r6
    16ec:	e1a0c18c 	lsl	ip, ip, #3
    16f0:	e1a0a28a 	lsl	sl, sl, #5
    16f4:	e18cc2ac 	orr	ip, ip, ip, lsr #5
    16f8:	e18aa32a 	orr	sl, sl, sl, lsr #6
    16fc:	e68cc29c 	pkhbt	ip, ip, ip, lsl #5
    1700:	e68aafbc 	sel	sl, sl, ip
    1704:	e38aa4ff 	orr	sl, sl, #-16777216	; 0xff000000
    1708:	e482a004 	str	sl, [r2], #4
    170c:	e2511001 	subs	r1, r1, #1
    1710:	e0822003 	add	r2, r2, r3
    1714:	e0844005 	add	r4, r4, r5
    1718:	e1a0000e 	mov	r0, lr
    171c:	2afffe23 	bcs	fb0 <pixman_composite_src_0565_8888_asm_armv6+0x4c>
    1720:	ea000154 	b	1c78 <pixman_composite_src_0565_8888_asm_armv6+0xd14>
    1724:	07e007e0 	strbeq	r0, [r0, r0, ror #15]!
    1728:	80008000 	andhi	r8, r0, r0
    172c:	e1a0e000 	mov	lr, r0
    1730:	e3c4801f 	bic	r8, r4, #31
    1734:	f5d8f000 	pld	[r8]
    1738:	e0849080 	add	r9, r4, r0, lsl #1
    173c:	e2499001 	sub	r9, r9, #1
    1740:	e3c9901f 	bic	r9, r9, #31
    1744:	e1590008 	cmp	r9, r8
    1748:	0a000003 	beq	175c <pixman_composite_src_0565_8888_asm_armv6+0x7f8>
    174c:	e2888020 	add	r8, r8, #32
    1750:	e1580009 	cmp	r8, r9
    1754:	f5d8f000 	pld	[r8]
    1758:	1afffffb 	bne	174c <pixman_composite_src_0565_8888_asm_armv6+0x7e8>
    175c:	e2400004 	sub	r0, r0, #4
    1760:	e312000f 	tst	r2, #15
    1764:	0a000021 	beq	17f0 <pixman_composite_src_0565_8888_asm_armv6+0x88c>
    1768:	e2628000 	rsb	r8, r2, #0
    176c:	e1b0ce88 	lsls	ip, r8, #29
    1770:	5a00000b 	bpl	17a4 <pixman_composite_src_0565_8888_asm_armv6+0x840>
    1774:	e0d490b2 	ldrh	r9, [r4], #2
    1778:	e2400001 	sub	r0, r0, #1
    177c:	e1c9c006 	bic	ip, r9, r6
    1780:	e0099006 	and	r9, r9, r6
    1784:	e1a0c18c 	lsl	ip, ip, #3
    1788:	e1a09289 	lsl	r9, r9, #5
    178c:	e18cc2ac 	orr	ip, ip, ip, lsr #5
    1790:	e1899329 	orr	r9, r9, r9, lsr #6
    1794:	e68cc29c 	pkhbt	ip, ip, ip, lsl #5
    1798:	e6899fbc 	sel	r9, r9, ip
    179c:	e38994ff 	orr	r9, r9, #-16777216	; 0xff000000
    17a0:	e4829004 	str	r9, [r2], #4
    17a4:	3a000011 	bcc	17f0 <pixman_composite_src_0565_8888_asm_armv6+0x88c>
    17a8:	e494a004 	ldr	sl, [r4], #4
    17ac:	e2400002 	sub	r0, r0, #2
    17b0:	e00ac006 	and	ip, sl, r6
    17b4:	e1cab006 	bic	fp, sl, r6
    17b8:	e18cc32c 	orr	ip, ip, ip, lsr #6
    17bc:	e1a0a80b 	lsl	sl, fp, #16
    17c0:	e1a0c9ec 	ror	ip, ip, #19
    17c4:	e1cbb82a 	bic	fp, fp, sl, lsr #16
    17c8:	e18aa2aa 	orr	sl, sl, sl, lsr #5
    17cc:	e18bb2ab 	orr	fp, fp, fp, lsr #5
    17d0:	e68aa2da 	pkhtb	sl, sl, sl, asr #5
    17d4:	e68aafbc 	sel	sl, sl, ip
    17d8:	e1a0c86c 	ror	ip, ip, #16
    17dc:	e68bb2db 	pkhtb	fp, fp, fp, asr #5
    17e0:	e68bbfbc 	sel	fp, fp, ip
    17e4:	e187a42a 	orr	sl, r7, sl, lsr #8
    17e8:	e187b42b 	orr	fp, r7, fp, lsr #8
    17ec:	e8a20c00 	stmia	r2!, {sl, fp}
    17f0:	e3140003 	tst	r4, #3
    17f4:	1a000043 	bne	1908 <pixman_composite_src_0565_8888_asm_armv6+0x9a4>
    17f8:	e8b40500 	ldm	r4!, {r8, sl}
    17fc:	e008c006 	and	ip, r8, r6
    1800:	e1c89006 	bic	r9, r8, r6
    1804:	e18cc32c 	orr	ip, ip, ip, lsr #6
    1808:	e1a08809 	lsl	r8, r9, #16
    180c:	e1a0c9ec 	ror	ip, ip, #19
    1810:	e1c99828 	bic	r9, r9, r8, lsr #16
    1814:	e18882a8 	orr	r8, r8, r8, lsr #5
    1818:	e18992a9 	orr	r9, r9, r9, lsr #5
    181c:	e68882d8 	pkhtb	r8, r8, r8, asr #5
    1820:	e6888fbc 	sel	r8, r8, ip
    1824:	e1a0c86c 	ror	ip, ip, #16
    1828:	e68992d9 	pkhtb	r9, r9, r9, asr #5
    182c:	e6899fbc 	sel	r9, r9, ip
    1830:	e1878428 	orr	r8, r7, r8, lsr #8
    1834:	e1879429 	orr	r9, r7, r9, lsr #8
    1838:	e00ac006 	and	ip, sl, r6
    183c:	e1cab006 	bic	fp, sl, r6
    1840:	e18cc32c 	orr	ip, ip, ip, lsr #6
    1844:	e1a0a80b 	lsl	sl, fp, #16
    1848:	e1a0c9ec 	ror	ip, ip, #19
    184c:	e1cbb82a 	bic	fp, fp, sl, lsr #16
    1850:	e18aa2aa 	orr	sl, sl, sl, lsr #5
    1854:	e18bb2ab 	orr	fp, fp, fp, lsr #5
    1858:	e68aa2da 	pkhtb	sl, sl, sl, asr #5
    185c:	e68aafbc 	sel	sl, sl, ip
    1860:	e1a0c86c 	ror	ip, ip, #16
    1864:	e68bb2db 	pkhtb	fp, fp, fp, asr #5
    1868:	e68bbfbc 	sel	fp, fp, ip
    186c:	e187a42a 	orr	sl, r7, sl, lsr #8
    1870:	e187b42b 	orr	fp, r7, fp, lsr #8
    1874:	e8a20f00 	stmia	r2!, {r8, r9, sl, fp}
    1878:	e2500004 	subs	r0, r0, #4
    187c:	2affffdd 	bcs	17f8 <pixman_composite_src_0565_8888_asm_armv6+0x894>
    1880:	e3100003 	tst	r0, #3
    1884:	0a000063 	beq	1a18 <pixman_composite_src_0565_8888_asm_armv6+0xab4>
    1888:	e1b0cf80 	lsls	ip, r0, #31
    188c:	3a000010 	bcc	18d4 <pixman_composite_src_0565_8888_asm_armv6+0x970>
    1890:	e4948004 	ldr	r8, [r4], #4
    1894:	e008c006 	and	ip, r8, r6
    1898:	e1c89006 	bic	r9, r8, r6
    189c:	e18cc32c 	orr	ip, ip, ip, lsr #6
    18a0:	e1a08809 	lsl	r8, r9, #16
    18a4:	e1a0c9ec 	ror	ip, ip, #19
    18a8:	e1c99828 	bic	r9, r9, r8, lsr #16
    18ac:	e18882a8 	orr	r8, r8, r8, lsr #5
    18b0:	e18992a9 	orr	r9, r9, r9, lsr #5
    18b4:	e68882d8 	pkhtb	r8, r8, r8, asr #5
    18b8:	e6888fbc 	sel	r8, r8, ip
    18bc:	e1a0c86c 	ror	ip, ip, #16
    18c0:	e68992d9 	pkhtb	r9, r9, r9, asr #5
    18c4:	e6899fbc 	sel	r9, r9, ip
    18c8:	e1878428 	orr	r8, r7, r8, lsr #8
    18cc:	e1879429 	orr	r9, r7, r9, lsr #8
    18d0:	e8a20300 	stmia	r2!, {r8, r9}
    18d4:	5a00000a 	bpl	1904 <pixman_composite_src_0565_8888_asm_armv6+0x9a0>
    18d8:	e0d4a0b2 	ldrh	sl, [r4], #2
    18dc:	e1cac006 	bic	ip, sl, r6
    18e0:	e00aa006 	and	sl, sl, r6
    18e4:	e1a0c18c 	lsl	ip, ip, #3
    18e8:	e1a0a28a 	lsl	sl, sl, #5
    18ec:	e18cc2ac 	orr	ip, ip, ip, lsr #5
    18f0:	e18aa32a 	orr	sl, sl, sl, lsr #6
    18f4:	e68cc29c 	pkhbt	ip, ip, ip, lsl #5
    18f8:	e68aafbc 	sel	sl, sl, ip
    18fc:	e38aa4ff 	orr	sl, sl, #-16777216	; 0xff000000
    1900:	e482a004 	str	sl, [r2], #4
    1904:	ea000043 	b	1a18 <pixman_composite_src_0565_8888_asm_armv6+0xab4>
    1908:	e4948004 	ldr	r8, [r4], #4
    190c:	e494a004 	ldr	sl, [r4], #4
    1910:	e008c006 	and	ip, r8, r6
    1914:	e1c89006 	bic	r9, r8, r6
    1918:	e18cc32c 	orr	ip, ip, ip, lsr #6
    191c:	e1a08809 	lsl	r8, r9, #16
    1920:	e1a0c9ec 	ror	ip, ip, #19
    1924:	e1c99828 	bic	r9, r9, r8, lsr #16
    1928:	e18882a8 	orr	r8, r8, r8, lsr #5
    192c:	e18992a9 	orr	r9, r9, r9, lsr #5
    1930:	e68882d8 	pkhtb	r8, r8, r8, asr #5
    1934:	e6888fbc 	sel	r8, r8, ip
    1938:	e1a0c86c 	ror	ip, ip, #16
    193c:	e68992d9 	pkhtb	r9, r9, r9, asr #5
    1940:	e6899fbc 	sel	r9, r9, ip
    1944:	e1878428 	orr	r8, r7, r8, lsr #8
    1948:	e1879429 	orr	r9, r7, r9, lsr #8
    194c:	e00ac006 	and	ip, sl, r6
    1950:	e1cab006 	bic	fp, sl, r6
    1954:	e18cc32c 	orr	ip, ip, ip, lsr #6
    1958:	e1a0a80b 	lsl	sl, fp, #16
    195c:	e1a0c9ec 	ror	ip, ip, #19
    1960:	e1cbb82a 	bic	fp, fp, sl, lsr #16
    1964:	e18aa2aa 	orr	sl, sl, sl, lsr #5
    1968:	e18bb2ab 	orr	fp, fp, fp, lsr #5
    196c:	e68aa2da 	pkhtb	sl, sl, sl, asr #5
    1970:	e68aafbc 	sel	sl, sl, ip
    1974:	e1a0c86c 	ror	ip, ip, #16
    1978:	e68bb2db 	pkhtb	fp, fp, fp, asr #5
    197c:	e68bbfbc 	sel	fp, fp, ip
    1980:	e187a42a 	orr	sl, r7, sl, lsr #8
    1984:	e187b42b 	orr	fp, r7, fp, lsr #8
    1988:	e8a20f00 	stmia	r2!, {r8, r9, sl, fp}
    198c:	e2500004 	subs	r0, r0, #4
    1990:	2affffdc 	bcs	1908 <pixman_composite_src_0565_8888_asm_armv6+0x9a4>
    1994:	e3100003 	tst	r0, #3
    1998:	0a00001e 	beq	1a18 <pixman_composite_src_0565_8888_asm_armv6+0xab4>
    199c:	e1b0cf80 	lsls	ip, r0, #31
    19a0:	3a000010 	bcc	19e8 <pixman_composite_src_0565_8888_asm_armv6+0xa84>
    19a4:	e4948004 	ldr	r8, [r4], #4
    19a8:	e008c006 	and	ip, r8, r6
    19ac:	e1c89006 	bic	r9, r8, r6
    19b0:	e18cc32c 	orr	ip, ip, ip, lsr #6
    19b4:	e1a08809 	lsl	r8, r9, #16
    19b8:	e1a0c9ec 	ror	ip, ip, #19
    19bc:	e1c99828 	bic	r9, r9, r8, lsr #16
    19c0:	e18882a8 	orr	r8, r8, r8, lsr #5
    19c4:	e18992a9 	orr	r9, r9, r9, lsr #5
    19c8:	e68882d8 	pkhtb	r8, r8, r8, asr #5
    19cc:	e6888fbc 	sel	r8, r8, ip
    19d0:	e1a0c86c 	ror	ip, ip, #16
    19d4:	e68992d9 	pkhtb	r9, r9, r9, asr #5
    19d8:	e6899fbc 	sel	r9, r9, ip
    19dc:	e1878428 	orr	r8, r7, r8, lsr #8
    19e0:	e1879429 	orr	r9, r7, r9, lsr #8
    19e4:	e8a20300 	stmia	r2!, {r8, r9}
    19e8:	5a00000a 	bpl	1a18 <pixman_composite_src_0565_8888_asm_armv6+0xab4>
    19ec:	e0d4a0b2 	ldrh	sl, [r4], #2
    19f0:	e1cac006 	bic	ip, sl, r6
    19f4:	e00aa006 	and	sl, sl, r6
    19f8:	e1a0c18c 	lsl	ip, ip, #3
    19fc:	e1a0a28a 	lsl	sl, sl, #5
    1a00:	e18cc2ac 	orr	ip, ip, ip, lsr #5
    1a04:	e18aa32a 	orr	sl, sl, sl, lsr #6
    1a08:	e68cc29c 	pkhbt	ip, ip, ip, lsl #5
    1a0c:	e68aafbc 	sel	sl, sl, ip
    1a10:	e38aa4ff 	orr	sl, sl, #-16777216	; 0xff000000
    1a14:	e482a004 	str	sl, [r2], #4
    1a18:	e2511001 	subs	r1, r1, #1
    1a1c:	e0822003 	add	r2, r2, r3
    1a20:	e0844005 	add	r4, r4, r5
    1a24:	e1a0000e 	mov	r0, lr
    1a28:	2affff40 	bcs	1730 <pixman_composite_src_0565_8888_asm_armv6+0x7cc>
    1a2c:	ea000091 	b	1c78 <pixman_composite_src_0565_8888_asm_armv6+0xd14>
    1a30:	e3c4801f 	bic	r8, r4, #31
    1a34:	f5d8f000 	pld	[r8]
    1a38:	e0849080 	add	r9, r4, r0, lsl #1
    1a3c:	e2499001 	sub	r9, r9, #1
    1a40:	e3c9901f 	bic	r9, r9, #31
    1a44:	e1590008 	cmp	r9, r8
    1a48:	0a000000 	beq	1a50 <pixman_composite_src_0565_8888_asm_armv6+0xaec>
    1a4c:	f5d9f000 	pld	[r9]
    1a50:	e3140003 	tst	r4, #3
    1a54:	1a000041 	bne	1b60 <pixman_composite_src_0565_8888_asm_armv6+0xbfc>
    1a58:	e3100004 	tst	r0, #4
    1a5c:	0a00001f 	beq	1ae0 <pixman_composite_src_0565_8888_asm_armv6+0xb7c>
    1a60:	e8b40500 	ldm	r4!, {r8, sl}
    1a64:	e008c006 	and	ip, r8, r6
    1a68:	e1c89006 	bic	r9, r8, r6
    1a6c:	e18cc32c 	orr	ip, ip, ip, lsr #6
    1a70:	e1a08809 	lsl	r8, r9, #16
    1a74:	e1a0c9ec 	ror	ip, ip, #19
    1a78:	e1c99828 	bic	r9, r9, r8, lsr #16
    1a7c:	e18882a8 	orr	r8, r8, r8, lsr #5
    1a80:	e18992a9 	orr	r9, r9, r9, lsr #5
    1a84:	e68882d8 	pkhtb	r8, r8, r8, asr #5
    1a88:	e6888fbc 	sel	r8, r8, ip
    1a8c:	e1a0c86c 	ror	ip, ip, #16
    1a90:	e68992d9 	pkhtb	r9, r9, r9, asr #5
    1a94:	e6899fbc 	sel	r9, r9, ip
    1a98:	e1878428 	orr	r8, r7, r8, lsr #8
    1a9c:	e1879429 	orr	r9, r7, r9, lsr #8
    1aa0:	e00ac006 	and	ip, sl, r6
    1aa4:	e1cab006 	bic	fp, sl, r6
    1aa8:	e18cc32c 	orr	ip, ip, ip, lsr #6
    1aac:	e1a0a80b 	lsl	sl, fp, #16
    1ab0:	e1a0c9ec 	ror	ip, ip, #19
    1ab4:	e1cbb82a 	bic	fp, fp, sl, lsr #16
    1ab8:	e18aa2aa 	orr	sl, sl, sl, lsr #5
    1abc:	e18bb2ab 	orr	fp, fp, fp, lsr #5
    1ac0:	e68aa2da 	pkhtb	sl, sl, sl, asr #5
    1ac4:	e68aafbc 	sel	sl, sl, ip
    1ac8:	e1a0c86c 	ror	ip, ip, #16
    1acc:	e68bb2db 	pkhtb	fp, fp, fp, asr #5
    1ad0:	e68bbfbc 	sel	fp, fp, ip
    1ad4:	e187a42a 	orr	sl, r7, sl, lsr #8
    1ad8:	e187b42b 	orr	fp, r7, fp, lsr #8
    1adc:	e8a20f00 	stmia	r2!, {r8, r9, sl, fp}
    1ae0:	e1b0cf80 	lsls	ip, r0, #31
    1ae4:	3a000010 	bcc	1b2c <pixman_composite_src_0565_8888_asm_armv6+0xbc8>
    1ae8:	e4948004 	ldr	r8, [r4], #4
    1aec:	e008c006 	and	ip, r8, r6
    1af0:	e1c89006 	bic	r9, r8, r6
    1af4:	e18cc32c 	orr	ip, ip, ip, lsr #6
    1af8:	e1a08809 	lsl	r8, r9, #16
    1afc:	e1a0c9ec 	ror	ip, ip, #19
    1b00:	e1c99828 	bic	r9, r9, r8, lsr #16
    1b04:	e18882a8 	orr	r8, r8, r8, lsr #5
    1b08:	e18992a9 	orr	r9, r9, r9, lsr #5
    1b0c:	e68882d8 	pkhtb	r8, r8, r8, asr #5
    1b10:	e6888fbc 	sel	r8, r8, ip
    1b14:	e1a0c86c 	ror	ip, ip, #16
    1b18:	e68992d9 	pkhtb	r9, r9, r9, asr #5
    1b1c:	e6899fbc 	sel	r9, r9, ip
    1b20:	e1878428 	orr	r8, r7, r8, lsr #8
    1b24:	e1879429 	orr	r9, r7, r9, lsr #8
    1b28:	e8a20300 	stmia	r2!, {r8, r9}
    1b2c:	5a00000a 	bpl	1b5c <pixman_composite_src_0565_8888_asm_armv6+0xbf8>
    1b30:	e0d4a0b2 	ldrh	sl, [r4], #2
    1b34:	e1cac006 	bic	ip, sl, r6
    1b38:	e00aa006 	and	sl, sl, r6
    1b3c:	e1a0c18c 	lsl	ip, ip, #3
    1b40:	e1a0a28a 	lsl	sl, sl, #5
    1b44:	e18cc2ac 	orr	ip, ip, ip, lsr #5
    1b48:	e18aa32a 	orr	sl, sl, sl, lsr #6
    1b4c:	e68cc29c 	pkhbt	ip, ip, ip, lsl #5
    1b50:	e68aafbc 	sel	sl, sl, ip
    1b54:	e38aa4ff 	orr	sl, sl, #-16777216	; 0xff000000
    1b58:	e482a004 	str	sl, [r2], #4
    1b5c:	ea000041 	b	1c68 <pixman_composite_src_0565_8888_asm_armv6+0xd04>
    1b60:	e3100004 	tst	r0, #4
    1b64:	0a000020 	beq	1bec <pixman_composite_src_0565_8888_asm_armv6+0xc88>
    1b68:	e4948004 	ldr	r8, [r4], #4
    1b6c:	e494a004 	ldr	sl, [r4], #4
    1b70:	e008c006 	and	ip, r8, r6
    1b74:	e1c89006 	bic	r9, r8, r6
    1b78:	e18cc32c 	orr	ip, ip, ip, lsr #6
    1b7c:	e1a08809 	lsl	r8, r9, #16
    1b80:	e1a0c9ec 	ror	ip, ip, #19
    1b84:	e1c99828 	bic	r9, r9, r8, lsr #16
    1b88:	e18882a8 	orr	r8, r8, r8, lsr #5
    1b8c:	e18992a9 	orr	r9, r9, r9, lsr #5
    1b90:	e68882d8 	pkhtb	r8, r8, r8, asr #5
    1b94:	e6888fbc 	sel	r8, r8, ip
    1b98:	e1a0c86c 	ror	ip, ip, #16
    1b9c:	e68992d9 	pkhtb	r9, r9, r9, asr #5
    1ba0:	e6899fbc 	sel	r9, r9, ip
    1ba4:	e1878428 	orr	r8, r7, r8, lsr #8
    1ba8:	e1879429 	orr	r9, r7, r9, lsr #8
    1bac:	e00ac006 	and	ip, sl, r6
    1bb0:	e1cab006 	bic	fp, sl, r6
    1bb4:	e18cc32c 	orr	ip, ip, ip, lsr #6
    1bb8:	e1a0a80b 	lsl	sl, fp, #16
    1bbc:	e1a0c9ec 	ror	ip, ip, #19
    1bc0:	e1cbb82a 	bic	fp, fp, sl, lsr #16
    1bc4:	e18aa2aa 	orr	sl, sl, sl, lsr #5
    1bc8:	e18bb2ab 	orr	fp, fp, fp, lsr #5
    1bcc:	e68aa2da 	pkhtb	sl, sl, sl, asr #5
    1bd0:	e68aafbc 	sel	sl, sl, ip
    1bd4:	e1a0c86c 	ror	ip, ip, #16
    1bd8:	e68bb2db 	pkhtb	fp, fp, fp, asr #5
    1bdc:	e68bbfbc 	sel	fp, fp, ip
    1be0:	e187a42a 	orr	sl, r7, sl, lsr #8
    1be4:	e187b42b 	orr	fp, r7, fp, lsr #8
    1be8:	e8a20f00 	stmia	r2!, {r8, r9, sl, fp}
    1bec:	e1b0cf80 	lsls	ip, r0, #31
    1bf0:	3a000010 	bcc	1c38 <pixman_composite_src_0565_8888_asm_armv6+0xcd4>
    1bf4:	e4948004 	ldr	r8, [r4], #4
    1bf8:	e008c006 	and	ip, r8, r6
    1bfc:	e1c89006 	bic	r9, r8, r6
    1c00:	e18cc32c 	orr	ip, ip, ip, lsr #6
    1c04:	e1a08809 	lsl	r8, r9, #16
    1c08:	e1a0c9ec 	ror	ip, ip, #19
    1c0c:	e1c99828 	bic	r9, r9, r8, lsr #16
    1c10:	e18882a8 	orr	r8, r8, r8, lsr #5
    1c14:	e18992a9 	orr	r9, r9, r9, lsr #5
    1c18:	e68882d8 	pkhtb	r8, r8, r8, asr #5
    1c1c:	e6888fbc 	sel	r8, r8, ip
    1c20:	e1a0c86c 	ror	ip, ip, #16
    1c24:	e68992d9 	pkhtb	r9, r9, r9, asr #5
    1c28:	e6899fbc 	sel	r9, r9, ip
    1c2c:	e1878428 	orr	r8, r7, r8, lsr #8
    1c30:	e1879429 	orr	r9, r7, r9, lsr #8
    1c34:	e8a20300 	stmia	r2!, {r8, r9}
    1c38:	5a00000a 	bpl	1c68 <pixman_composite_src_0565_8888_asm_armv6+0xd04>
    1c3c:	e0d4a0b2 	ldrh	sl, [r4], #2
    1c40:	e1cac006 	bic	ip, sl, r6
    1c44:	e00aa006 	and	sl, sl, r6
    1c48:	e1a0c18c 	lsl	ip, ip, #3
    1c4c:	e1a0a28a 	lsl	sl, sl, #5
    1c50:	e18cc2ac 	orr	ip, ip, ip, lsr #5
    1c54:	e18aa32a 	orr	sl, sl, sl, lsr #6
    1c58:	e68cc29c 	pkhbt	ip, ip, ip, lsl #5
    1c5c:	e68aafbc 	sel	sl, sl, ip
    1c60:	e38aa4ff 	orr	sl, sl, #-16777216	; 0xff000000
    1c64:	e482a004 	str	sl, [r2], #4
    1c68:	e2511001 	subs	r1, r1, #1
    1c6c:	e0822003 	add	r2, r2, r3
    1c70:	e0844005 	add	r4, r4, r5
    1c74:	2affff6d 	bcs	1a30 <pixman_composite_src_0565_8888_asm_armv6+0xacc>
    1c78:	e8bd8ff0 	pop	{r4, r5, r6, r7, r8, r9, sl, fp, pc}

00001c7c <pixman_composite_add_8_8_asm_armv6>:
    1c7c:	e92d4ff0 	push	{r4, r5, r6, r7, r8, r9, sl, fp, lr}
    1c80:	e2511001 	subs	r1, r1, #1
    1c84:	3a000200 	bcc	248c <pixman_composite_add_8_8_asm_armv6+0x810>
    1c88:	e59d4024 	ldr	r4, [sp, #36]	; 0x24
    1c8c:	e59d5028 	ldr	r5, [sp, #40]	; 0x28
    1c90:	e1a03003 	mov	r3, r3
    1c94:	e0433000 	sub	r3, r3, r0
    1c98:	e1a05005 	mov	r5, r5
    1c9c:	e0455000 	sub	r5, r5, r0
    1ca0:	e350001f 	cmp	r0, #31
    1ca4:	3a000190 	bcc	22ec <pixman_composite_add_8_8_asm_armv6+0x670>
    1ca8:	e350009f 	cmp	r0, #159	; 0x9f
    1cac:	3a000105 	bcc	20c8 <pixman_composite_add_8_8_asm_armv6+0x44c>
    1cb0:	e2400080 	sub	r0, r0, #128	; 0x80
    1cb4:	e1a0e000 	mov	lr, r0
    1cb8:	e3c4901f 	bic	r9, r4, #31
    1cbc:	f5d9f000 	pld	[r9]
    1cc0:	f5d9f020 	pld	[r9, #32]
    1cc4:	f5d9f040 	pld	[r9, #64]	; 0x40
    1cc8:	e3c2b01f 	bic	fp, r2, #31
    1ccc:	f5dbf000 	pld	[fp]
    1cd0:	f5dbf020 	pld	[fp, #32]
    1cd4:	f5dbf040 	pld	[fp, #64]	; 0x40
    1cd8:	e312000f 	tst	r2, #15
    1cdc:	0a000025 	beq	1d78 <pixman_composite_add_8_8_asm_armv6+0xfc>
    1ce0:	e2628000 	rsb	r8, r2, #0
    1ce4:	e208800f 	and	r8, r8, #15
    1ce8:	e1a0cd84 	lsl	ip, r4, #27
    1cec:	e08ccd88 	add	ip, ip, r8, lsl #27
    1cf0:	e07ccd88 	rsbs	ip, ip, r8, lsl #27
    1cf4:	9a000000 	bls	1cfc <pixman_composite_add_8_8_asm_armv6+0x80>
    1cf8:	f5d9f060 	pld	[r9, #96]	; 0x60
    1cfc:	e3120010 	tst	r2, #16
    1d00:	0a000000 	beq	1d08 <pixman_composite_add_8_8_asm_armv6+0x8c>
    1d04:	f5dbf060 	pld	[fp, #96]	; 0x60
    1d08:	e1b0cf88 	lsls	ip, r8, #31
    1d0c:	5a000004 	bpl	1d24 <pixman_composite_add_8_8_asm_armv6+0xa8>
    1d10:	e4d46001 	ldrb	r6, [r4], #1
    1d14:	e4d29001 	ldrb	r9, [r2], #1
    1d18:	e2400001 	sub	r0, r0, #1
    1d1c:	e6699f96 	uqadd8	r9, r9, r6
    1d20:	e5429001 	strb	r9, [r2, #-1]
    1d24:	3a000004 	bcc	1d3c <pixman_composite_add_8_8_asm_armv6+0xc0>
    1d28:	e0d460b2 	ldrh	r6, [r4], #2
    1d2c:	e0d2a0b2 	ldrh	sl, [r2], #2
    1d30:	e2400002 	sub	r0, r0, #2
    1d34:	e66aaf96 	uqadd8	sl, sl, r6
    1d38:	e142a0b2 	strh	sl, [r2, #-2]
    1d3c:	e1b0ce88 	lsls	ip, r8, #29
    1d40:	5a000004 	bpl	1d58 <pixman_composite_add_8_8_asm_armv6+0xdc>
    1d44:	e4946004 	ldr	r6, [r4], #4
    1d48:	e4929004 	ldr	r9, [r2], #4
    1d4c:	e2400004 	sub	r0, r0, #4
    1d50:	e6699f96 	uqadd8	r9, r9, r6
    1d54:	e5029004 	str	r9, [r2, #-4]
    1d58:	3a000006 	bcc	1d78 <pixman_composite_add_8_8_asm_armv6+0xfc>
    1d5c:	e4946004 	ldr	r6, [r4], #4
    1d60:	e4947004 	ldr	r7, [r4], #4
    1d64:	e8b20c00 	ldm	r2!, {sl, fp}
    1d68:	e2400008 	sub	r0, r0, #8
    1d6c:	e66aaf96 	uqadd8	sl, sl, r6
    1d70:	e66bbf97 	uqadd8	fp, fp, r7
    1d74:	e9020c00 	stmdb	r2, {sl, fp}
    1d78:	e204c01f 	and	ip, r4, #31
    1d7c:	e26cc040 	rsb	ip, ip, #64	; 0x40
    1d80:	e3140003 	tst	r4, #3
    1d84:	1a00005f 	bne	1f08 <pixman_composite_add_8_8_asm_armv6+0x28c>
    1d88:	e3120010 	tst	r2, #16
    1d8c:	1a000014 	bne	1de4 <pixman_composite_add_8_8_asm_armv6+0x168>
    1d90:	e8b400c0 	ldm	r4!, {r6, r7}
    1d94:	e8b20f00 	ldm	r2!, {r8, r9, sl, fp}
    1d98:	e6688f96 	uqadd8	r8, r8, r6
    1d9c:	e6699f97 	uqadd8	r9, r9, r7
    1da0:	e8b400c0 	ldm	r4!, {r6, r7}
    1da4:	f5d2f030 	pld	[r2, #48]	; 0x30
    1da8:	e66aaf96 	uqadd8	sl, sl, r6
    1dac:	e66bbf97 	uqadd8	fp, fp, r7
    1db0:	e9020f00 	stmdb	r2, {r8, r9, sl, fp}
    1db4:	e8b400c0 	ldm	r4!, {r6, r7}
    1db8:	e8b20f00 	ldm	r2!, {r8, r9, sl, fp}
    1dbc:	e6688f96 	uqadd8	r8, r8, r6
    1dc0:	e6699f97 	uqadd8	r9, r9, r7
    1dc4:	e8b400c0 	ldm	r4!, {r6, r7}
    1dc8:	f7d4f00c 	pld	[r4, ip]
    1dcc:	e66aaf96 	uqadd8	sl, sl, r6
    1dd0:	e66bbf97 	uqadd8	fp, fp, r7
    1dd4:	e9020f00 	stmdb	r2, {r8, r9, sl, fp}
    1dd8:	e2500020 	subs	r0, r0, #32
    1ddc:	2affffeb 	bcs	1d90 <pixman_composite_add_8_8_asm_armv6+0x114>
    1de0:	ea000013 	b	1e34 <pixman_composite_add_8_8_asm_armv6+0x1b8>
    1de4:	e8b400c0 	ldm	r4!, {r6, r7}
    1de8:	e8b20f00 	ldm	r2!, {r8, r9, sl, fp}
    1dec:	e6688f96 	uqadd8	r8, r8, r6
    1df0:	e6699f97 	uqadd8	r9, r9, r7
    1df4:	e8b400c0 	ldm	r4!, {r6, r7}
    1df8:	f5d2f040 	pld	[r2, #64]	; 0x40
    1dfc:	e66aaf96 	uqadd8	sl, sl, r6
    1e00:	e66bbf97 	uqadd8	fp, fp, r7
    1e04:	e9020f00 	stmdb	r2, {r8, r9, sl, fp}
    1e08:	e8b400c0 	ldm	r4!, {r6, r7}
    1e0c:	e8b20f00 	ldm	r2!, {r8, r9, sl, fp}
    1e10:	e6688f96 	uqadd8	r8, r8, r6
    1e14:	e6699f97 	uqadd8	r9, r9, r7
    1e18:	e8b400c0 	ldm	r4!, {r6, r7}
    1e1c:	f7d4f00c 	pld	[r4, ip]
    1e20:	e66aaf96 	uqadd8	sl, sl, r6
    1e24:	e66bbf97 	uqadd8	fp, fp, r7
    1e28:	e9020f00 	stmdb	r2, {r8, r9, sl, fp}
    1e2c:	e2500020 	subs	r0, r0, #32
    1e30:	2affffeb 	bcs	1de4 <pixman_composite_add_8_8_asm_armv6+0x168>
    1e34:	e1a0cd84 	lsl	ip, r4, #27
    1e38:	e09ccd80 	adds	ip, ip, r0, lsl #27
    1e3c:	02bcc000 	adcseq	ip, ip, #0
    1e40:	0a000003 	beq	1e54 <pixman_composite_add_8_8_asm_armv6+0x1d8>
    1e44:	e3c4c01f 	bic	ip, r4, #31
    1e48:	3a000000 	bcc	1e50 <pixman_composite_add_8_8_asm_armv6+0x1d4>
    1e4c:	f5dcf080 	pld	[ip, #128]	; 0x80
    1e50:	f5dcf060 	pld	[ip, #96]	; 0x60
    1e54:	e1a0cd82 	lsl	ip, r2, #27
    1e58:	e09ccd80 	adds	ip, ip, r0, lsl #27
    1e5c:	02bcc000 	adcseq	ip, ip, #0
    1e60:	0a000003 	beq	1e74 <pixman_composite_add_8_8_asm_armv6+0x1f8>
    1e64:	e3c2c01f 	bic	ip, r2, #31
    1e68:	3a000000 	bcc	1e70 <pixman_composite_add_8_8_asm_armv6+0x1f4>
    1e6c:	f5dcf080 	pld	[ip, #128]	; 0x80
    1e70:	f5dcf060 	pld	[ip, #96]	; 0x60
    1e74:	e2800070 	add	r0, r0, #112	; 0x70
    1e78:	e8b400c0 	ldm	r4!, {r6, r7}
    1e7c:	e8b20f00 	ldm	r2!, {r8, r9, sl, fp}
    1e80:	e6688f96 	uqadd8	r8, r8, r6
    1e84:	e6699f97 	uqadd8	r9, r9, r7
    1e88:	e8b400c0 	ldm	r4!, {r6, r7}
    1e8c:	e66aaf96 	uqadd8	sl, sl, r6
    1e90:	e66bbf97 	uqadd8	fp, fp, r7
    1e94:	e9020f00 	stmdb	r2, {r8, r9, sl, fp}
    1e98:	e2500010 	subs	r0, r0, #16
    1e9c:	2afffff5 	bcs	1e78 <pixman_composite_add_8_8_asm_armv6+0x1fc>
    1ea0:	e310000f 	tst	r0, #15
    1ea4:	0a000081 	beq	20b0 <pixman_composite_add_8_8_asm_armv6+0x434>
    1ea8:	e1b0ce80 	lsls	ip, r0, #29
    1eac:	3a000004 	bcc	1ec4 <pixman_composite_add_8_8_asm_armv6+0x248>
    1eb0:	e8b400c0 	ldm	r4!, {r6, r7}
    1eb4:	e8b20300 	ldm	r2!, {r8, r9}
    1eb8:	e6688f96 	uqadd8	r8, r8, r6
    1ebc:	e6699f97 	uqadd8	r9, r9, r7
    1ec0:	e9020300 	stmdb	r2, {r8, r9}
    1ec4:	5a000003 	bpl	1ed8 <pixman_composite_add_8_8_asm_armv6+0x25c>
    1ec8:	e4946004 	ldr	r6, [r4], #4
    1ecc:	e492a004 	ldr	sl, [r2], #4
    1ed0:	e66aaf96 	uqadd8	sl, sl, r6
    1ed4:	e502a004 	str	sl, [r2, #-4]
    1ed8:	e1b0cf80 	lsls	ip, r0, #31
    1edc:	3a000003 	bcc	1ef0 <pixman_composite_add_8_8_asm_armv6+0x274>
    1ee0:	e0d460b2 	ldrh	r6, [r4], #2
    1ee4:	e0d280b2 	ldrh	r8, [r2], #2
    1ee8:	e6688f96 	uqadd8	r8, r8, r6
    1eec:	e14280b2 	strh	r8, [r2, #-2]
    1ef0:	5a000003 	bpl	1f04 <pixman_composite_add_8_8_asm_armv6+0x288>
    1ef4:	e4d46001 	ldrb	r6, [r4], #1
    1ef8:	e4d29001 	ldrb	r9, [r2], #1
    1efc:	e6699f96 	uqadd8	r9, r9, r6
    1f00:	e5429001 	strb	r9, [r2, #-1]
    1f04:	ea000069 	b	20b0 <pixman_composite_add_8_8_asm_armv6+0x434>
    1f08:	e3120010 	tst	r2, #16
    1f0c:	1a000018 	bne	1f74 <pixman_composite_add_8_8_asm_armv6+0x2f8>
    1f10:	e4946004 	ldr	r6, [r4], #4
    1f14:	e4947004 	ldr	r7, [r4], #4
    1f18:	e8b20f00 	ldm	r2!, {r8, r9, sl, fp}
    1f1c:	e6688f96 	uqadd8	r8, r8, r6
    1f20:	e6699f97 	uqadd8	r9, r9, r7
    1f24:	e4946004 	ldr	r6, [r4], #4
    1f28:	e4947004 	ldr	r7, [r4], #4
    1f2c:	f5d2f030 	pld	[r2, #48]	; 0x30
    1f30:	e66aaf96 	uqadd8	sl, sl, r6
    1f34:	e66bbf97 	uqadd8	fp, fp, r7
    1f38:	e9020f00 	stmdb	r2, {r8, r9, sl, fp}
    1f3c:	e4946004 	ldr	r6, [r4], #4
    1f40:	e4947004 	ldr	r7, [r4], #4
    1f44:	e8b20f00 	ldm	r2!, {r8, r9, sl, fp}
    1f48:	e6688f96 	uqadd8	r8, r8, r6
    1f4c:	e6699f97 	uqadd8	r9, r9, r7
    1f50:	e4946004 	ldr	r6, [r4], #4
    1f54:	e4947004 	ldr	r7, [r4], #4
    1f58:	f7d4f00c 	pld	[r4, ip]
    1f5c:	e66aaf96 	uqadd8	sl, sl, r6
    1f60:	e66bbf97 	uqadd8	fp, fp, r7
    1f64:	e9020f00 	stmdb	r2, {r8, r9, sl, fp}
    1f68:	e2500020 	subs	r0, r0, #32
    1f6c:	2affffe7 	bcs	1f10 <pixman_composite_add_8_8_asm_armv6+0x294>
    1f70:	ea000017 	b	1fd4 <pixman_composite_add_8_8_asm_armv6+0x358>
    1f74:	e4946004 	ldr	r6, [r4], #4
    1f78:	e4947004 	ldr	r7, [r4], #4
    1f7c:	e8b20f00 	ldm	r2!, {r8, r9, sl, fp}
    1f80:	e6688f96 	uqadd8	r8, r8, r6
    1f84:	e6699f97 	uqadd8	r9, r9, r7
    1f88:	e4946004 	ldr	r6, [r4], #4
    1f8c:	e4947004 	ldr	r7, [r4], #4
    1f90:	f5d2f040 	pld	[r2, #64]	; 0x40
    1f94:	e66aaf96 	uqadd8	sl, sl, r6
    1f98:	e66bbf97 	uqadd8	fp, fp, r7
    1f9c:	e9020f00 	stmdb	r2, {r8, r9, sl, fp}
    1fa0:	e4946004 	ldr	r6, [r4], #4
    1fa4:	e4947004 	ldr	r7, [r4], #4
    1fa8:	e8b20f00 	ldm	r2!, {r8, r9, sl, fp}
    1fac:	e6688f96 	uqadd8	r8, r8, r6
    1fb0:	e6699f97 	uqadd8	r9, r9, r7
    1fb4:	e4946004 	ldr	r6, [r4], #4
    1fb8:	e4947004 	ldr	r7, [r4], #4
    1fbc:	f7d4f00c 	pld	[r4, ip]
    1fc0:	e66aaf96 	uqadd8	sl, sl, r6
    1fc4:	e66bbf97 	uqadd8	fp, fp, r7
    1fc8:	e9020f00 	stmdb	r2, {r8, r9, sl, fp}
    1fcc:	e2500020 	subs	r0, r0, #32
    1fd0:	2affffe7 	bcs	1f74 <pixman_composite_add_8_8_asm_armv6+0x2f8>
    1fd4:	e1a0cd84 	lsl	ip, r4, #27
    1fd8:	e09ccd80 	adds	ip, ip, r0, lsl #27
    1fdc:	02bcc000 	adcseq	ip, ip, #0
    1fe0:	0a000003 	beq	1ff4 <pixman_composite_add_8_8_asm_armv6+0x378>
    1fe4:	e3c4c01f 	bic	ip, r4, #31
    1fe8:	3a000000 	bcc	1ff0 <pixman_composite_add_8_8_asm_armv6+0x374>
    1fec:	f5dcf080 	pld	[ip, #128]	; 0x80
    1ff0:	f5dcf060 	pld	[ip, #96]	; 0x60
    1ff4:	e1a0cd82 	lsl	ip, r2, #27
    1ff8:	e09ccd80 	adds	ip, ip, r0, lsl #27
    1ffc:	02bcc000 	adcseq	ip, ip, #0
    2000:	0a000003 	beq	2014 <pixman_composite_add_8_8_asm_armv6+0x398>
    2004:	e3c2c01f 	bic	ip, r2, #31
    2008:	3a000000 	bcc	2010 <pixman_composite_add_8_8_asm_armv6+0x394>
    200c:	f5dcf080 	pld	[ip, #128]	; 0x80
    2010:	f5dcf060 	pld	[ip, #96]	; 0x60
    2014:	e2800070 	add	r0, r0, #112	; 0x70
    2018:	e4946004 	ldr	r6, [r4], #4
    201c:	e4947004 	ldr	r7, [r4], #4
    2020:	e8b20f00 	ldm	r2!, {r8, r9, sl, fp}
    2024:	e6688f96 	uqadd8	r8, r8, r6
    2028:	e6699f97 	uqadd8	r9, r9, r7
    202c:	e4946004 	ldr	r6, [r4], #4
    2030:	e4947004 	ldr	r7, [r4], #4
    2034:	e66aaf96 	uqadd8	sl, sl, r6
    2038:	e66bbf97 	uqadd8	fp, fp, r7
    203c:	e9020f00 	stmdb	r2, {r8, r9, sl, fp}
    2040:	e2500010 	subs	r0, r0, #16
    2044:	2afffff3 	bcs	2018 <pixman_composite_add_8_8_asm_armv6+0x39c>
    2048:	e310000f 	tst	r0, #15
    204c:	0a000017 	beq	20b0 <pixman_composite_add_8_8_asm_armv6+0x434>
    2050:	e1b0ce80 	lsls	ip, r0, #29
    2054:	3a000005 	bcc	2070 <pixman_composite_add_8_8_asm_armv6+0x3f4>
    2058:	e4946004 	ldr	r6, [r4], #4
    205c:	e4947004 	ldr	r7, [r4], #4
    2060:	e8b20300 	ldm	r2!, {r8, r9}
    2064:	e6688f96 	uqadd8	r8, r8, r6
    2068:	e6699f97 	uqadd8	r9, r9, r7
    206c:	e9020300 	stmdb	r2, {r8, r9}
    2070:	5a000003 	bpl	2084 <pixman_composite_add_8_8_asm_armv6+0x408>
    2074:	e4946004 	ldr	r6, [r4], #4
    2078:	e492a004 	ldr	sl, [r2], #4
    207c:	e66aaf96 	uqadd8	sl, sl, r6
    2080:	e502a004 	str	sl, [r2, #-4]
    2084:	e1b0cf80 	lsls	ip, r0, #31
    2088:	3a000003 	bcc	209c <pixman_composite_add_8_8_asm_armv6+0x420>
    208c:	e0d460b2 	ldrh	r6, [r4], #2
    2090:	e0d280b2 	ldrh	r8, [r2], #2
    2094:	e6688f96 	uqadd8	r8, r8, r6
    2098:	e14280b2 	strh	r8, [r2, #-2]
    209c:	5a000003 	bpl	20b0 <pixman_composite_add_8_8_asm_armv6+0x434>
    20a0:	e4d46001 	ldrb	r6, [r4], #1
    20a4:	e4d29001 	ldrb	r9, [r2], #1
    20a8:	e6699f96 	uqadd8	r9, r9, r6
    20ac:	e5429001 	strb	r9, [r2, #-1]
    20b0:	e2511001 	subs	r1, r1, #1
    20b4:	e0822003 	add	r2, r2, r3
    20b8:	e0844005 	add	r4, r4, r5
    20bc:	e1a0000e 	mov	r0, lr
    20c0:	2afffefc 	bcs	1cb8 <pixman_composite_add_8_8_asm_armv6+0x3c>
    20c4:	ea0000f0 	b	248c <pixman_composite_add_8_8_asm_armv6+0x810>
    20c8:	e1a0e000 	mov	lr, r0
    20cc:	e3c4801f 	bic	r8, r4, #31
    20d0:	f5d8f000 	pld	[r8]
    20d4:	e0849000 	add	r9, r4, r0
    20d8:	e2499001 	sub	r9, r9, #1
    20dc:	e3c9901f 	bic	r9, r9, #31
    20e0:	e1590008 	cmp	r9, r8
    20e4:	0a000003 	beq	20f8 <pixman_composite_add_8_8_asm_armv6+0x47c>
    20e8:	e2888020 	add	r8, r8, #32
    20ec:	e1580009 	cmp	r8, r9
    20f0:	f5d8f000 	pld	[r8]
    20f4:	1afffffb 	bne	20e8 <pixman_composite_add_8_8_asm_armv6+0x46c>
    20f8:	e3c2801f 	bic	r8, r2, #31
    20fc:	f5d8f000 	pld	[r8]
    2100:	e0829000 	add	r9, r2, r0
    2104:	e2499001 	sub	r9, r9, #1
    2108:	e3c9901f 	bic	r9, r9, #31
    210c:	e1590008 	cmp	r9, r8
    2110:	0a000003 	beq	2124 <pixman_composite_add_8_8_asm_armv6+0x4a8>
    2114:	e2888020 	add	r8, r8, #32
    2118:	e1580009 	cmp	r8, r9
    211c:	f5d8f000 	pld	[r8]
    2120:	1afffffb 	bne	2114 <pixman_composite_add_8_8_asm_armv6+0x498>
    2124:	e2400010 	sub	r0, r0, #16
    2128:	e312000f 	tst	r2, #15
    212c:	0a00001c 	beq	21a4 <pixman_composite_add_8_8_asm_armv6+0x528>
    2130:	e2628000 	rsb	r8, r2, #0
    2134:	e1b0cf88 	lsls	ip, r8, #31
    2138:	5a000004 	bpl	2150 <pixman_composite_add_8_8_asm_armv6+0x4d4>
    213c:	e4d46001 	ldrb	r6, [r4], #1
    2140:	e4d29001 	ldrb	r9, [r2], #1
    2144:	e2400001 	sub	r0, r0, #1
    2148:	e6699f96 	uqadd8	r9, r9, r6
    214c:	e5429001 	strb	r9, [r2, #-1]
    2150:	3a000004 	bcc	2168 <pixman_composite_add_8_8_asm_armv6+0x4ec>
    2154:	e0d460b2 	ldrh	r6, [r4], #2
    2158:	e0d2a0b2 	ldrh	sl, [r2], #2
    215c:	e2400002 	sub	r0, r0, #2
    2160:	e66aaf96 	uqadd8	sl, sl, r6
    2164:	e142a0b2 	strh	sl, [r2, #-2]
    2168:	e1b0ce88 	lsls	ip, r8, #29
    216c:	5a000004 	bpl	2184 <pixman_composite_add_8_8_asm_armv6+0x508>
    2170:	e4946004 	ldr	r6, [r4], #4
    2174:	e4929004 	ldr	r9, [r2], #4
    2178:	e2400004 	sub	r0, r0, #4
    217c:	e6699f96 	uqadd8	r9, r9, r6
    2180:	e5029004 	str	r9, [r2, #-4]
    2184:	3a000006 	bcc	21a4 <pixman_composite_add_8_8_asm_armv6+0x528>
    2188:	e4946004 	ldr	r6, [r4], #4
    218c:	e4947004 	ldr	r7, [r4], #4
    2190:	e8b20c00 	ldm	r2!, {sl, fp}
    2194:	e2400008 	sub	r0, r0, #8
    2198:	e66aaf96 	uqadd8	sl, sl, r6
    219c:	e66bbf97 	uqadd8	fp, fp, r7
    21a0:	e9020c00 	stmdb	r2, {sl, fp}
    21a4:	e3140003 	tst	r4, #3
    21a8:	1a000023 	bne	223c <pixman_composite_add_8_8_asm_armv6+0x5c0>
    21ac:	e8b400c0 	ldm	r4!, {r6, r7}
    21b0:	e8b20f00 	ldm	r2!, {r8, r9, sl, fp}
    21b4:	e6688f96 	uqadd8	r8, r8, r6
    21b8:	e6699f97 	uqadd8	r9, r9, r7
    21bc:	e8b400c0 	ldm	r4!, {r6, r7}
    21c0:	e66aaf96 	uqadd8	sl, sl, r6
    21c4:	e66bbf97 	uqadd8	fp, fp, r7
    21c8:	e9020f00 	stmdb	r2, {r8, r9, sl, fp}
    21cc:	e2500010 	subs	r0, r0, #16
    21d0:	2afffff5 	bcs	21ac <pixman_composite_add_8_8_asm_armv6+0x530>
    21d4:	e310000f 	tst	r0, #15
    21d8:	0a00003d 	beq	22d4 <pixman_composite_add_8_8_asm_armv6+0x658>
    21dc:	e1b0ce80 	lsls	ip, r0, #29
    21e0:	3a000004 	bcc	21f8 <pixman_composite_add_8_8_asm_armv6+0x57c>
    21e4:	e8b400c0 	ldm	r4!, {r6, r7}
    21e8:	e8b20300 	ldm	r2!, {r8, r9}
    21ec:	e6688f96 	uqadd8	r8, r8, r6
    21f0:	e6699f97 	uqadd8	r9, r9, r7
    21f4:	e9020300 	stmdb	r2, {r8, r9}
    21f8:	5a000003 	bpl	220c <pixman_composite_add_8_8_asm_armv6+0x590>
    21fc:	e4946004 	ldr	r6, [r4], #4
    2200:	e492a004 	ldr	sl, [r2], #4
    2204:	e66aaf96 	uqadd8	sl, sl, r6
    2208:	e502a004 	str	sl, [r2, #-4]
    220c:	e1b0cf80 	lsls	ip, r0, #31
    2210:	3a000003 	bcc	2224 <pixman_composite_add_8_8_asm_armv6+0x5a8>
    2214:	e0d460b2 	ldrh	r6, [r4], #2
    2218:	e0d280b2 	ldrh	r8, [r2], #2
    221c:	e6688f96 	uqadd8	r8, r8, r6
    2220:	e14280b2 	strh	r8, [r2, #-2]
    2224:	5a000003 	bpl	2238 <pixman_composite_add_8_8_asm_armv6+0x5bc>
    2228:	e4d46001 	ldrb	r6, [r4], #1
    222c:	e4d29001 	ldrb	r9, [r2], #1
    2230:	e6699f96 	uqadd8	r9, r9, r6
    2234:	e5429001 	strb	r9, [r2, #-1]
    2238:	ea000025 	b	22d4 <pixman_composite_add_8_8_asm_armv6+0x658>
    223c:	e4946004 	ldr	r6, [r4], #4
    2240:	e4947004 	ldr	r7, [r4], #4
    2244:	e8b20f00 	ldm	r2!, {r8, r9, sl, fp}
    2248:	e6688f96 	uqadd8	r8, r8, r6
    224c:	e6699f97 	uqadd8	r9, r9, r7
    2250:	e4946004 	ldr	r6, [r4], #4
    2254:	e4947004 	ldr	r7, [r4], #4
    2258:	e66aaf96 	uqadd8	sl, sl, r6
    225c:	e66bbf97 	uqadd8	fp, fp, r7
    2260:	e9020f00 	stmdb	r2, {r8, r9, sl, fp}
    2264:	e2500010 	subs	r0, r0, #16
    2268:	2afffff3 	bcs	223c <pixman_composite_add_8_8_asm_armv6+0x5c0>
    226c:	e310000f 	tst	r0, #15
    2270:	0a000017 	beq	22d4 <pixman_composite_add_8_8_asm_armv6+0x658>
    2274:	e1b0ce80 	lsls	ip, r0, #29
    2278:	3a000005 	bcc	2294 <pixman_composite_add_8_8_asm_armv6+0x618>
    227c:	e4946004 	ldr	r6, [r4], #4
    2280:	e4947004 	ldr	r7, [r4], #4
    2284:	e8b20300 	ldm	r2!, {r8, r9}
    2288:	e6688f96 	uqadd8	r8, r8, r6
    228c:	e6699f97 	uqadd8	r9, r9, r7
    2290:	e9020300 	stmdb	r2, {r8, r9}
    2294:	5a000003 	bpl	22a8 <pixman_composite_add_8_8_asm_armv6+0x62c>
    2298:	e4946004 	ldr	r6, [r4], #4
    229c:	e492a004 	ldr	sl, [r2], #4
    22a0:	e66aaf96 	uqadd8	sl, sl, r6
    22a4:	e502a004 	str	sl, [r2, #-4]
    22a8:	e1b0cf80 	lsls	ip, r0, #31
    22ac:	3a000003 	bcc	22c0 <pixman_composite_add_8_8_asm_armv6+0x644>
    22b0:	e0d460b2 	ldrh	r6, [r4], #2
    22b4:	e0d280b2 	ldrh	r8, [r2], #2
    22b8:	e6688f96 	uqadd8	r8, r8, r6
    22bc:	e14280b2 	strh	r8, [r2, #-2]
    22c0:	5a000003 	bpl	22d4 <pixman_composite_add_8_8_asm_armv6+0x658>
    22c4:	e4d46001 	ldrb	r6, [r4], #1
    22c8:	e4d29001 	ldrb	r9, [r2], #1
    22cc:	e6699f96 	uqadd8	r9, r9, r6
    22d0:	e5429001 	strb	r9, [r2, #-1]
    22d4:	e2511001 	subs	r1, r1, #1
    22d8:	e0822003 	add	r2, r2, r3
    22dc:	e0844005 	add	r4, r4, r5
    22e0:	e1a0000e 	mov	r0, lr
    22e4:	2affff78 	bcs	20cc <pixman_composite_add_8_8_asm_armv6+0x450>
    22e8:	ea000067 	b	248c <pixman_composite_add_8_8_asm_armv6+0x810>
    22ec:	e1a0e000 	mov	lr, r0
    22f0:	e3c4801f 	bic	r8, r4, #31
    22f4:	f5d8f000 	pld	[r8]
    22f8:	e0849000 	add	r9, r4, r0
    22fc:	e2499001 	sub	r9, r9, #1
    2300:	e3c9901f 	bic	r9, r9, #31
    2304:	e1590008 	cmp	r9, r8
    2308:	0a000000 	beq	2310 <pixman_composite_add_8_8_asm_armv6+0x694>
    230c:	f5d9f000 	pld	[r9]
    2310:	e3c2801f 	bic	r8, r2, #31
    2314:	f5d8f000 	pld	[r8]
    2318:	e0829000 	add	r9, r2, r0
    231c:	e2499001 	sub	r9, r9, #1
    2320:	e3c9901f 	bic	r9, r9, #31
    2324:	e1590008 	cmp	r9, r8
    2328:	0a000000 	beq	2330 <pixman_composite_add_8_8_asm_armv6+0x6b4>
    232c:	f5d9f000 	pld	[r9]
    2330:	e3120003 	tst	r2, #3
    2334:	0a000007 	beq	2358 <pixman_composite_add_8_8_asm_armv6+0x6dc>
    2338:	e2500001 	subs	r0, r0, #1
    233c:	3a00004d 	bcc	2478 <pixman_composite_add_8_8_asm_armv6+0x7fc>
    2340:	e4d46001 	ldrb	r6, [r4], #1
    2344:	e4d28001 	ldrb	r8, [r2], #1
    2348:	e6688f96 	uqadd8	r8, r8, r6
    234c:	e5428001 	strb	r8, [r2, #-1]
    2350:	e3120003 	tst	r2, #3
    2354:	1afffff7 	bne	2338 <pixman_composite_add_8_8_asm_armv6+0x6bc>
    2358:	e3140003 	tst	r4, #3
    235c:	1a000021 	bne	23e8 <pixman_composite_add_8_8_asm_armv6+0x76c>
    2360:	e3100010 	tst	r0, #16
    2364:	0a000007 	beq	2388 <pixman_composite_add_8_8_asm_armv6+0x70c>
    2368:	e8b400c0 	ldm	r4!, {r6, r7}
    236c:	e8b20f00 	ldm	r2!, {r8, r9, sl, fp}
    2370:	e6688f96 	uqadd8	r8, r8, r6
    2374:	e6699f97 	uqadd8	r9, r9, r7
    2378:	e8b400c0 	ldm	r4!, {r6, r7}
    237c:	e66aaf96 	uqadd8	sl, sl, r6
    2380:	e66bbf97 	uqadd8	fp, fp, r7
    2384:	e9020f00 	stmdb	r2, {r8, r9, sl, fp}
    2388:	e1b0ce80 	lsls	ip, r0, #29
    238c:	3a000004 	bcc	23a4 <pixman_composite_add_8_8_asm_armv6+0x728>
    2390:	e8b400c0 	ldm	r4!, {r6, r7}
    2394:	e8b20300 	ldm	r2!, {r8, r9}
    2398:	e6688f96 	uqadd8	r8, r8, r6
    239c:	e6699f97 	uqadd8	r9, r9, r7
    23a0:	e9020300 	stmdb	r2, {r8, r9}
    23a4:	5a000003 	bpl	23b8 <pixman_composite_add_8_8_asm_armv6+0x73c>
    23a8:	e4946004 	ldr	r6, [r4], #4
    23ac:	e492a004 	ldr	sl, [r2], #4
    23b0:	e66aaf96 	uqadd8	sl, sl, r6
    23b4:	e502a004 	str	sl, [r2, #-4]
    23b8:	e1b0cf80 	lsls	ip, r0, #31
    23bc:	3a000003 	bcc	23d0 <pixman_composite_add_8_8_asm_armv6+0x754>
    23c0:	e0d460b2 	ldrh	r6, [r4], #2
    23c4:	e0d280b2 	ldrh	r8, [r2], #2
    23c8:	e6688f96 	uqadd8	r8, r8, r6
    23cc:	e14280b2 	strh	r8, [r2, #-2]
    23d0:	5a000003 	bpl	23e4 <pixman_composite_add_8_8_asm_armv6+0x768>
    23d4:	e4d46001 	ldrb	r6, [r4], #1
    23d8:	e4d29001 	ldrb	r9, [r2], #1
    23dc:	e6699f96 	uqadd8	r9, r9, r6
    23e0:	e5429001 	strb	r9, [r2, #-1]
    23e4:	ea000023 	b	2478 <pixman_composite_add_8_8_asm_armv6+0x7fc>
    23e8:	e3100010 	tst	r0, #16
    23ec:	0a000009 	beq	2418 <pixman_composite_add_8_8_asm_armv6+0x79c>
    23f0:	e4946004 	ldr	r6, [r4], #4
    23f4:	e4947004 	ldr	r7, [r4], #4
    23f8:	e8b20f00 	ldm	r2!, {r8, r9, sl, fp}
    23fc:	e6688f96 	uqadd8	r8, r8, r6
    2400:	e6699f97 	uqadd8	r9, r9, r7
    2404:	e4946004 	ldr	r6, [r4], #4
    2408:	e4947004 	ldr	r7, [r4], #4
    240c:	e66aaf96 	uqadd8	sl, sl, r6
    2410:	e66bbf97 	uqadd8	fp, fp, r7
    2414:	e9020f00 	stmdb	r2, {r8, r9, sl, fp}
    2418:	e1b0ce80 	lsls	ip, r0, #29
    241c:	3a000005 	bcc	2438 <pixman_composite_add_8_8_asm_armv6+0x7bc>
    2420:	e4946004 	ldr	r6, [r4], #4
    2424:	e4947004 	ldr	r7, [r4], #4
    2428:	e8b20300 	ldm	r2!, {r8, r9}
    242c:	e6688f96 	uqadd8	r8, r8, r6
    2430:	e6699f97 	uqadd8	r9, r9, r7
    2434:	e9020300 	stmdb	r2, {r8, r9}
    2438:	5a000003 	bpl	244c <pixman_composite_add_8_8_asm_armv6+0x7d0>
    243c:	e4946004 	ldr	r6, [r4], #4
    2440:	e492a004 	ldr	sl, [r2], #4
    2444:	e66aaf96 	uqadd8	sl, sl, r6
    2448:	e502a004 	str	sl, [r2, #-4]
    244c:	e1b0cf80 	lsls	ip, r0, #31
    2450:	3a000003 	bcc	2464 <pixman_composite_add_8_8_asm_armv6+0x7e8>
    2454:	e0d460b2 	ldrh	r6, [r4], #2
    2458:	e0d280b2 	ldrh	r8, [r2], #2
    245c:	e6688f96 	uqadd8	r8, r8, r6
    2460:	e14280b2 	strh	r8, [r2, #-2]
    2464:	5a000003 	bpl	2478 <pixman_composite_add_8_8_asm_armv6+0x7fc>
    2468:	e4d46001 	ldrb	r6, [r4], #1
    246c:	e4d29001 	ldrb	r9, [r2], #1
    2470:	e6699f96 	uqadd8	r9, r9, r6
    2474:	e5429001 	strb	r9, [r2, #-1]
    2478:	e2511001 	subs	r1, r1, #1
    247c:	e0822003 	add	r2, r2, r3
    2480:	e0844005 	add	r4, r4, r5
    2484:	e1a0000e 	mov	r0, lr
    2488:	2affff98 	bcs	22f0 <pixman_composite_add_8_8_asm_armv6+0x674>
    248c:	e8bd8ff0 	pop	{r4, r5, r6, r7, r8, r9, sl, fp, pc}

00002490 <pixman_composite_over_8888_8888_asm_armv6>:
    2490:	e92d4ff0 	push	{r4, r5, r6, r7, r8, r9, sl, fp, lr}
    2494:	e2511001 	subs	r1, r1, #1
    2498:	3a000319 	bcc	3104 <pixman_composite_over_8888_8888_asm_armv6+0xc74>
    249c:	e59d4024 	ldr	r4, [sp, #36]	; 0x24
    24a0:	e59d5028 	ldr	r5, [sp, #40]	; 0x28
    24a4:	e59f6724 	ldr	r6, [pc, #1828]	; 2bd0 <pixman_composite_over_8888_8888_asm_armv6+0x740>
    24a8:	e656cf96 	uadd8	ip, r6, r6
    24ac:	e1a03103 	lsl	r3, r3, #2
    24b0:	e0433100 	sub	r3, r3, r0, lsl #2
    24b4:	e1a05105 	lsl	r5, r5, #2
    24b8:	e0455100 	sub	r5, r5, r0, lsl #2
    24bc:	e3500007 	cmp	r0, #7
    24c0:	3a00028b 	bcc	2ef4 <pixman_composite_over_8888_8888_asm_armv6+0xa64>
    24c4:	e3500027 	cmp	r0, #39	; 0x27
    24c8:	3a0001c1 	bcc	2bd4 <pixman_composite_over_8888_8888_asm_armv6+0x744>
    24cc:	e2400020 	sub	r0, r0, #32
    24d0:	e1a0e000 	mov	lr, r0
    24d4:	e92d4028 	push	{r3, r5, lr}
    24d8:	e3c4901f 	bic	r9, r4, #31
    24dc:	f5d9f000 	pld	[r9]
    24e0:	f5d9f020 	pld	[r9, #32]
    24e4:	f5d9f040 	pld	[r9, #64]	; 0x40
    24e8:	e3c2b01f 	bic	fp, r2, #31
    24ec:	f5dbf000 	pld	[fp]
    24f0:	f5dbf020 	pld	[fp, #32]
    24f4:	f5dbf040 	pld	[fp, #64]	; 0x40
    24f8:	e312000f 	tst	r2, #15
    24fc:	0a00003f 	beq	2600 <pixman_composite_over_8888_8888_asm_armv6+0x170>
    2500:	e2628000 	rsb	r8, r2, #0
    2504:	e208800f 	and	r8, r8, #15
    2508:	e1a0cd84 	lsl	ip, r4, #27
    250c:	e08ccd88 	add	ip, ip, r8, lsl #27
    2510:	e07ccd88 	rsbs	ip, ip, r8, lsl #27
    2514:	9a000000 	bls	251c <pixman_composite_over_8888_8888_asm_armv6+0x8c>
    2518:	f5d9f060 	pld	[r9, #96]	; 0x60
    251c:	e3120010 	tst	r2, #16
    2520:	0a000000 	beq	2528 <pixman_composite_over_8888_8888_asm_armv6+0x98>
    2524:	f5dbf060 	pld	[fp, #96]	; 0x60
    2528:	e1b0ce88 	lsls	ip, r8, #29
    252c:	5a000011 	bpl	2578 <pixman_composite_over_8888_8888_asm_armv6+0xe8>
    2530:	e4945004 	ldr	r5, [r4], #4
    2534:	e4929004 	ldr	r9, [r2], #4
    2538:	e2400001 	sub	r0, r0, #1
    253c:	e3350000 	teq	r5, #0
    2540:	0a00000c 	beq	2578 <pixman_composite_over_8888_8888_asm_armv6+0xe8>
    2544:	e1a05c25 	lsr	r5, r5, #24
    2548:	e26550ff 	rsb	r5, r5, #255	; 0xff
    254c:	e6cfc079 	uxtb16	ip, r9
    2550:	e6cf9479 	uxtb16	r9, r9, ror #8
    2554:	e02c659c 	mla	ip, ip, r5, r6
    2558:	e0296599 	mla	r9, r9, r5, r6
    255c:	e5145004 	ldr	r5, [r4, #-4]
    2560:	e6ccc47c 	uxtab16	ip, ip, ip, ror #8
    2564:	e6c99479 	uxtab16	r9, r9, r9, ror #8
    2568:	e1a0c46c 	ror	ip, ip, #8
    256c:	e68c9fb9 	sel	r9, ip, r9
    2570:	e6699f95 	uqadd8	r9, r9, r5
    2574:	e5029004 	str	r9, [r2, #-4]
    2578:	e1b0ce88 	lsls	ip, r8, #29
    257c:	3a00001f 	bcc	2600 <pixman_composite_over_8888_8888_asm_armv6+0x170>
    2580:	e4947004 	ldr	r7, [r4], #4
    2584:	e494e004 	ldr	lr, [r4], #4
    2588:	e8b20c00 	ldm	r2!, {sl, fp}
    258c:	e2400002 	sub	r0, r0, #2
    2590:	e3370000 	teq	r7, #0
    2594:	033e0000 	teqeq	lr, #0
    2598:	0a000018 	beq	2600 <pixman_composite_over_8888_8888_asm_armv6+0x170>
    259c:	e1a07c27 	lsr	r7, r7, #24
    25a0:	e26770ff 	rsb	r7, r7, #255	; 0xff
    25a4:	e6cfc07a 	uxtb16	ip, sl
    25a8:	e6cfa47a 	uxtb16	sl, sl, ror #8
    25ac:	e02c679c 	mla	ip, ip, r7, r6
    25b0:	e02a679a 	mla	sl, sl, r7, r6
    25b4:	e5147008 	ldr	r7, [r4, #-8]
    25b8:	e6ccc47c 	uxtab16	ip, ip, ip, ror #8
    25bc:	e1a0ec2e 	lsr	lr, lr, #24
    25c0:	e6caa47a 	uxtab16	sl, sl, sl, ror #8
    25c4:	e1a0c46c 	ror	ip, ip, #8
    25c8:	e68cafba 	sel	sl, ip, sl
    25cc:	e66aaf97 	uqadd8	sl, sl, r7
    25d0:	e26ee0ff 	rsb	lr, lr, #255	; 0xff
    25d4:	e6cfc07b 	uxtb16	ip, fp
    25d8:	e6cfb47b 	uxtb16	fp, fp, ror #8
    25dc:	e02c6e9c 	mla	ip, ip, lr, r6
    25e0:	e02b6e9b 	mla	fp, fp, lr, r6
    25e4:	e514e004 	ldr	lr, [r4, #-4]
    25e8:	e6ccc47c 	uxtab16	ip, ip, ip, ror #8
    25ec:	e6cbb47b 	uxtab16	fp, fp, fp, ror #8
    25f0:	e1a0c46c 	ror	ip, ip, #8
    25f4:	e68cbfbb 	sel	fp, ip, fp
    25f8:	e66bbf9e 	uqadd8	fp, fp, lr
    25fc:	e9020c00 	stmdb	r2, {sl, fp}
    2600:	e3120010 	tst	r2, #16
    2604:	1a000075 	bne	27e0 <pixman_composite_over_8888_8888_asm_armv6+0x350>
    2608:	e8b440a8 	ldm	r4!, {r3, r5, r7, lr}
    260c:	e8b20f00 	ldm	r2!, {r8, r9, sl, fp}
    2610:	f5d2f030 	pld	[r2, #48]	; 0x30
    2614:	e3330000 	teq	r3, #0
    2618:	03350000 	teqeq	r5, #0
    261c:	03370000 	teqeq	r7, #0
    2620:	033e0000 	teqeq	lr, #0
    2624:	0a000030 	beq	26ec <pixman_composite_over_8888_8888_asm_armv6+0x25c>
    2628:	e1a03c23 	lsr	r3, r3, #24
    262c:	e26330ff 	rsb	r3, r3, #255	; 0xff
    2630:	e6cfc078 	uxtb16	ip, r8
    2634:	e6cf8478 	uxtb16	r8, r8, ror #8
    2638:	e02c639c 	mla	ip, ip, r3, r6
    263c:	e0286398 	mla	r8, r8, r3, r6
    2640:	e5143010 	ldr	r3, [r4, #-16]
    2644:	e6ccc47c 	uxtab16	ip, ip, ip, ror #8
    2648:	e1a05c25 	lsr	r5, r5, #24
    264c:	e6c88478 	uxtab16	r8, r8, r8, ror #8
    2650:	e1a0c46c 	ror	ip, ip, #8
    2654:	e68c8fb8 	sel	r8, ip, r8
    2658:	e6688f93 	uqadd8	r8, r8, r3
    265c:	e26550ff 	rsb	r5, r5, #255	; 0xff
    2660:	e6cfc079 	uxtb16	ip, r9
    2664:	e6cf9479 	uxtb16	r9, r9, ror #8
    2668:	e02c659c 	mla	ip, ip, r5, r6
    266c:	e0296599 	mla	r9, r9, r5, r6
    2670:	e514500c 	ldr	r5, [r4, #-12]
    2674:	e6ccc47c 	uxtab16	ip, ip, ip, ror #8
    2678:	e1a07c27 	lsr	r7, r7, #24
    267c:	e6c99479 	uxtab16	r9, r9, r9, ror #8
    2680:	e1a0c46c 	ror	ip, ip, #8
    2684:	e68c9fb9 	sel	r9, ip, r9
    2688:	e6699f95 	uqadd8	r9, r9, r5
    268c:	e26770ff 	rsb	r7, r7, #255	; 0xff
    2690:	e6cfc07a 	uxtb16	ip, sl
    2694:	e6cfa47a 	uxtb16	sl, sl, ror #8
    2698:	e02c679c 	mla	ip, ip, r7, r6
    269c:	e02a679a 	mla	sl, sl, r7, r6
    26a0:	e5147008 	ldr	r7, [r4, #-8]
    26a4:	e6ccc47c 	uxtab16	ip, ip, ip, ror #8
    26a8:	e1a0ec2e 	lsr	lr, lr, #24
    26ac:	e6caa47a 	uxtab16	sl, sl, sl, ror #8
    26b0:	e1a0c46c 	ror	ip, ip, #8
    26b4:	e68cafba 	sel	sl, ip, sl
    26b8:	e66aaf97 	uqadd8	sl, sl, r7
    26bc:	e26ee0ff 	rsb	lr, lr, #255	; 0xff
    26c0:	e6cfc07b 	uxtb16	ip, fp
    26c4:	e6cfb47b 	uxtb16	fp, fp, ror #8
    26c8:	e02c6e9c 	mla	ip, ip, lr, r6
    26cc:	e02b6e9b 	mla	fp, fp, lr, r6
    26d0:	e514e004 	ldr	lr, [r4, #-4]
    26d4:	e6ccc47c 	uxtab16	ip, ip, ip, ror #8
    26d8:	e6cbb47b 	uxtab16	fp, fp, fp, ror #8
    26dc:	e1a0c46c 	ror	ip, ip, #8
    26e0:	e68cbfbb 	sel	fp, ip, fp
    26e4:	e66bbf9e 	uqadd8	fp, fp, lr
    26e8:	e9020f00 	stmdb	r2, {r8, r9, sl, fp}
    26ec:	e8b440a8 	ldm	r4!, {r3, r5, r7, lr}
    26f0:	e8b20f00 	ldm	r2!, {r8, r9, sl, fp}
    26f4:	e3c4c01f 	bic	ip, r4, #31
    26f8:	f5dcf040 	pld	[ip, #64]	; 0x40
    26fc:	e3330000 	teq	r3, #0
    2700:	03350000 	teqeq	r5, #0
    2704:	03370000 	teqeq	r7, #0
    2708:	033e0000 	teqeq	lr, #0
    270c:	0a000030 	beq	27d4 <pixman_composite_over_8888_8888_asm_armv6+0x344>
    2710:	e1a03c23 	lsr	r3, r3, #24
    2714:	e26330ff 	rsb	r3, r3, #255	; 0xff
    2718:	e6cfc078 	uxtb16	ip, r8
    271c:	e6cf8478 	uxtb16	r8, r8, ror #8
    2720:	e02c639c 	mla	ip, ip, r3, r6
    2724:	e0286398 	mla	r8, r8, r3, r6
    2728:	e5143010 	ldr	r3, [r4, #-16]
    272c:	e6ccc47c 	uxtab16	ip, ip, ip, ror #8
    2730:	e1a05c25 	lsr	r5, r5, #24
    2734:	e6c88478 	uxtab16	r8, r8, r8, ror #8
    2738:	e1a0c46c 	ror	ip, ip, #8
    273c:	e68c8fb8 	sel	r8, ip, r8
    2740:	e6688f93 	uqadd8	r8, r8, r3
    2744:	e26550ff 	rsb	r5, r5, #255	; 0xff
    2748:	e6cfc079 	uxtb16	ip, r9
    274c:	e6cf9479 	uxtb16	r9, r9, ror #8
    2750:	e02c659c 	mla	ip, ip, r5, r6
    2754:	e0296599 	mla	r9, r9, r5, r6
    2758:	e514500c 	ldr	r5, [r4, #-12]
    275c:	e6ccc47c 	uxtab16	ip, ip, ip, ror #8
    2760:	e1a07c27 	lsr	r7, r7, #24
    2764:	e6c99479 	uxtab16	r9, r9, r9, ror #8
    2768:	e1a0c46c 	ror	ip, ip, #8
    276c:	e68c9fb9 	sel	r9, ip, r9
    2770:	e6699f95 	uqadd8	r9, r9, r5
    2774:	e26770ff 	rsb	r7, r7, #255	; 0xff
    2778:	e6cfc07a 	uxtb16	ip, sl
    277c:	e6cfa47a 	uxtb16	sl, sl, ror #8
    2780:	e02c679c 	mla	ip, ip, r7, r6
    2784:	e02a679a 	mla	sl, sl, r7, r6
    2788:	e5147008 	ldr	r7, [r4, #-8]
    278c:	e6ccc47c 	uxtab16	ip, ip, ip, ror #8
    2790:	e1a0ec2e 	lsr	lr, lr, #24
    2794:	e6caa47a 	uxtab16	sl, sl, sl, ror #8
    2798:	e1a0c46c 	ror	ip, ip, #8
    279c:	e68cafba 	sel	sl, ip, sl
    27a0:	e66aaf97 	uqadd8	sl, sl, r7
    27a4:	e26ee0ff 	rsb	lr, lr, #255	; 0xff
    27a8:	e6cfc07b 	uxtb16	ip, fp
    27ac:	e6cfb47b 	uxtb16	fp, fp, ror #8
    27b0:	e02c6e9c 	mla	ip, ip, lr, r6
    27b4:	e02b6e9b 	mla	fp, fp, lr, r6
    27b8:	e514e004 	ldr	lr, [r4, #-4]
    27bc:	e6ccc47c 	uxtab16	ip, ip, ip, ror #8
    27c0:	e6cbb47b 	uxtab16	fp, fp, fp, ror #8
    27c4:	e1a0c46c 	ror	ip, ip, #8
    27c8:	e68cbfbb 	sel	fp, ip, fp
    27cc:	e66bbf9e 	uqadd8	fp, fp, lr
    27d0:	e9020f00 	stmdb	r2, {r8, r9, sl, fp}
    27d4:	e2500008 	subs	r0, r0, #8
    27d8:	2affff8a 	bcs	2608 <pixman_composite_over_8888_8888_asm_armv6+0x178>
    27dc:	ea000074 	b	29b4 <pixman_composite_over_8888_8888_asm_armv6+0x524>
    27e0:	e8b440a8 	ldm	r4!, {r3, r5, r7, lr}
    27e4:	e8b20f00 	ldm	r2!, {r8, r9, sl, fp}
    27e8:	f5d2f040 	pld	[r2, #64]	; 0x40
    27ec:	e3330000 	teq	r3, #0
    27f0:	03350000 	teqeq	r5, #0
    27f4:	03370000 	teqeq	r7, #0
    27f8:	033e0000 	teqeq	lr, #0
    27fc:	0a000030 	beq	28c4 <pixman_composite_over_8888_8888_asm_armv6+0x434>
    2800:	e1a03c23 	lsr	r3, r3, #24
    2804:	e26330ff 	rsb	r3, r3, #255	; 0xff
    2808:	e6cfc078 	uxtb16	ip, r8
    280c:	e6cf8478 	uxtb16	r8, r8, ror #8
    2810:	e02c639c 	mla	ip, ip, r3, r6
    2814:	e0286398 	mla	r8, r8, r3, r6
    2818:	e5143010 	ldr	r3, [r4, #-16]
    281c:	e6ccc47c 	uxtab16	ip, ip, ip, ror #8
    2820:	e1a05c25 	lsr	r5, r5, #24
    2824:	e6c88478 	uxtab16	r8, r8, r8, ror #8
    2828:	e1a0c46c 	ror	ip, ip, #8
    282c:	e68c8fb8 	sel	r8, ip, r8
    2830:	e6688f93 	uqadd8	r8, r8, r3
    2834:	e26550ff 	rsb	r5, r5, #255	; 0xff
    2838:	e6cfc079 	uxtb16	ip, r9
    283c:	e6cf9479 	uxtb16	r9, r9, ror #8
    2840:	e02c659c 	mla	ip, ip, r5, r6
    2844:	e0296599 	mla	r9, r9, r5, r6
    2848:	e514500c 	ldr	r5, [r4, #-12]
    284c:	e6ccc47c 	uxtab16	ip, ip, ip, ror #8
    2850:	e1a07c27 	lsr	r7, r7, #24
    2854:	e6c99479 	uxtab16	r9, r9, r9, ror #8
    2858:	e1a0c46c 	ror	ip, ip, #8
    285c:	e68c9fb9 	sel	r9, ip, r9
    2860:	e6699f95 	uqadd8	r9, r9, r5
    2864:	e26770ff 	rsb	r7, r7, #255	; 0xff
    2868:	e6cfc07a 	uxtb16	ip, sl
    286c:	e6cfa47a 	uxtb16	sl, sl, ror #8
    2870:	e02c679c 	mla	ip, ip, r7, r6
    2874:	e02a679a 	mla	sl, sl, r7, r6
    2878:	e5147008 	ldr	r7, [r4, #-8]
    287c:	e6ccc47c 	uxtab16	ip, ip, ip, ror #8
    2880:	e1a0ec2e 	lsr	lr, lr, #24
    2884:	e6caa47a 	uxtab16	sl, sl, sl, ror #8
    2888:	e1a0c46c 	ror	ip, ip, #8
    288c:	e68cafba 	sel	sl, ip, sl
    2890:	e66aaf97 	uqadd8	sl, sl, r7
    2894:	e26ee0ff 	rsb	lr, lr, #255	; 0xff
    2898:	e6cfc07b 	uxtb16	ip, fp
    289c:	e6cfb47b 	uxtb16	fp, fp, ror #8
    28a0:	e02c6e9c 	mla	ip, ip, lr, r6
    28a4:	e02b6e9b 	mla	fp, fp, lr, r6
    28a8:	e514e004 	ldr	lr, [r4, #-4]
    28ac:	e6ccc47c 	uxtab16	ip, ip, ip, ror #8
    28b0:	e6cbb47b 	uxtab16	fp, fp, fp, ror #8
    28b4:	e1a0c46c 	ror	ip, ip, #8
    28b8:	e68cbfbb 	sel	fp, ip, fp
    28bc:	e66bbf9e 	uqadd8	fp, fp, lr
    28c0:	e9020f00 	stmdb	r2, {r8, r9, sl, fp}
    28c4:	e8b440a8 	ldm	r4!, {r3, r5, r7, lr}
    28c8:	e8b20f00 	ldm	r2!, {r8, r9, sl, fp}
    28cc:	e3c4c01f 	bic	ip, r4, #31
    28d0:	f5dcf040 	pld	[ip, #64]	; 0x40
    28d4:	e3330000 	teq	r3, #0
    28d8:	03350000 	teqeq	r5, #0
    28dc:	03370000 	teqeq	r7, #0
    28e0:	033e0000 	teqeq	lr, #0
    28e4:	0a000030 	beq	29ac <pixman_composite_over_8888_8888_asm_armv6+0x51c>
    28e8:	e1a03c23 	lsr	r3, r3, #24
    28ec:	e26330ff 	rsb	r3, r3, #255	; 0xff
    28f0:	e6cfc078 	uxtb16	ip, r8
    28f4:	e6cf8478 	uxtb16	r8, r8, ror #8
    28f8:	e02c639c 	mla	ip, ip, r3, r6
    28fc:	e0286398 	mla	r8, r8, r3, r6
    2900:	e5143010 	ldr	r3, [r4, #-16]
    2904:	e6ccc47c 	uxtab16	ip, ip, ip, ror #8
    2908:	e1a05c25 	lsr	r5, r5, #24
    290c:	e6c88478 	uxtab16	r8, r8, r8, ror #8
    2910:	e1a0c46c 	ror	ip, ip, #8
    2914:	e68c8fb8 	sel	r8, ip, r8
    2918:	e6688f93 	uqadd8	r8, r8, r3
    291c:	e26550ff 	rsb	r5, r5, #255	; 0xff
    2920:	e6cfc079 	uxtb16	ip, r9
    2924:	e6cf9479 	uxtb16	r9, r9, ror #8
    2928:	e02c659c 	mla	ip, ip, r5, r6
    292c:	e0296599 	mla	r9, r9, r5, r6
    2930:	e514500c 	ldr	r5, [r4, #-12]
    2934:	e6ccc47c 	uxtab16	ip, ip, ip, ror #8
    2938:	e1a07c27 	lsr	r7, r7, #24
    293c:	e6c99479 	uxtab16	r9, r9, r9, ror #8
    2940:	e1a0c46c 	ror	ip, ip, #8
    2944:	e68c9fb9 	sel	r9, ip, r9
    2948:	e6699f95 	uqadd8	r9, r9, r5
    294c:	e26770ff 	rsb	r7, r7, #255	; 0xff
    2950:	e6cfc07a 	uxtb16	ip, sl
    2954:	e6cfa47a 	uxtb16	sl, sl, ror #8
    2958:	e02c679c 	mla	ip, ip, r7, r6
    295c:	e02a679a 	mla	sl, sl, r7, r6
    2960:	e5147008 	ldr	r7, [r4, #-8]
    2964:	e6ccc47c 	uxtab16	ip, ip, ip, ror #8
    2968:	e1a0ec2e 	lsr	lr, lr, #24
    296c:	e6caa47a 	uxtab16	sl, sl, sl, ror #8
    2970:	e1a0c46c 	ror	ip, ip, #8
    2974:	e68cafba 	sel	sl, ip, sl
    2978:	e66aaf97 	uqadd8	sl, sl, r7
    297c:	e26ee0ff 	rsb	lr, lr, #255	; 0xff
    2980:	e6cfc07b 	uxtb16	ip, fp
    2984:	e6cfb47b 	uxtb16	fp, fp, ror #8
    2988:	e02c6e9c 	mla	ip, ip, lr, r6
    298c:	e02b6e9b 	mla	fp, fp, lr, r6
    2990:	e514e004 	ldr	lr, [r4, #-4]
    2994:	e6ccc47c 	uxtab16	ip, ip, ip, ror #8
    2998:	e6cbb47b 	uxtab16	fp, fp, fp, ror #8
    299c:	e1a0c46c 	ror	ip, ip, #8
    29a0:	e68cbfbb 	sel	fp, ip, fp
    29a4:	e66bbf9e 	uqadd8	fp, fp, lr
    29a8:	e9020f00 	stmdb	r2, {r8, r9, sl, fp}
    29ac:	e2500008 	subs	r0, r0, #8
    29b0:	2affff8a 	bcs	27e0 <pixman_composite_over_8888_8888_asm_armv6+0x350>
    29b4:	e1a0cd84 	lsl	ip, r4, #27
    29b8:	e09cce80 	adds	ip, ip, r0, lsl #29
    29bc:	02bcc000 	adcseq	ip, ip, #0
    29c0:	0a000003 	beq	29d4 <pixman_composite_over_8888_8888_asm_armv6+0x544>
    29c4:	e3c4c01f 	bic	ip, r4, #31
    29c8:	3a000000 	bcc	29d0 <pixman_composite_over_8888_8888_asm_armv6+0x540>
    29cc:	f5dcf080 	pld	[ip, #128]	; 0x80
    29d0:	f5dcf060 	pld	[ip, #96]	; 0x60
    29d4:	e1a0cd82 	lsl	ip, r2, #27
    29d8:	e09cce80 	adds	ip, ip, r0, lsl #29
    29dc:	02bcc000 	adcseq	ip, ip, #0
    29e0:	0a000003 	beq	29f4 <pixman_composite_over_8888_8888_asm_armv6+0x564>
    29e4:	e3c2c01f 	bic	ip, r2, #31
    29e8:	3a000000 	bcc	29f0 <pixman_composite_over_8888_8888_asm_armv6+0x560>
    29ec:	f5dcf080 	pld	[ip, #128]	; 0x80
    29f0:	f5dcf060 	pld	[ip, #96]	; 0x60
    29f4:	e280001c 	add	r0, r0, #28
    29f8:	e8b440a8 	ldm	r4!, {r3, r5, r7, lr}
    29fc:	e8b20f00 	ldm	r2!, {r8, r9, sl, fp}
    2a00:	e3330000 	teq	r3, #0
    2a04:	03350000 	teqeq	r5, #0
    2a08:	03370000 	teqeq	r7, #0
    2a0c:	033e0000 	teqeq	lr, #0
    2a10:	0a000030 	beq	2ad8 <pixman_composite_over_8888_8888_asm_armv6+0x648>
    2a14:	e1a03c23 	lsr	r3, r3, #24
    2a18:	e26330ff 	rsb	r3, r3, #255	; 0xff
    2a1c:	e6cfc078 	uxtb16	ip, r8
    2a20:	e6cf8478 	uxtb16	r8, r8, ror #8
    2a24:	e02c639c 	mla	ip, ip, r3, r6
    2a28:	e0286398 	mla	r8, r8, r3, r6
    2a2c:	e5143010 	ldr	r3, [r4, #-16]
    2a30:	e6ccc47c 	uxtab16	ip, ip, ip, ror #8
    2a34:	e1a05c25 	lsr	r5, r5, #24
    2a38:	e6c88478 	uxtab16	r8, r8, r8, ror #8
    2a3c:	e1a0c46c 	ror	ip, ip, #8
    2a40:	e68c8fb8 	sel	r8, ip, r8
    2a44:	e6688f93 	uqadd8	r8, r8, r3
    2a48:	e26550ff 	rsb	r5, r5, #255	; 0xff
    2a4c:	e6cfc079 	uxtb16	ip, r9
    2a50:	e6cf9479 	uxtb16	r9, r9, ror #8
    2a54:	e02c659c 	mla	ip, ip, r5, r6
    2a58:	e0296599 	mla	r9, r9, r5, r6
    2a5c:	e514500c 	ldr	r5, [r4, #-12]
    2a60:	e6ccc47c 	uxtab16	ip, ip, ip, ror #8
    2a64:	e1a07c27 	lsr	r7, r7, #24
    2a68:	e6c99479 	uxtab16	r9, r9, r9, ror #8
    2a6c:	e1a0c46c 	ror	ip, ip, #8
    2a70:	e68c9fb9 	sel	r9, ip, r9
    2a74:	e6699f95 	uqadd8	r9, r9, r5
    2a78:	e26770ff 	rsb	r7, r7, #255	; 0xff
    2a7c:	e6cfc07a 	uxtb16	ip, sl
    2a80:	e6cfa47a 	uxtb16	sl, sl, ror #8
    2a84:	e02c679c 	mla	ip, ip, r7, r6
    2a88:	e02a679a 	mla	sl, sl, r7, r6
    2a8c:	e5147008 	ldr	r7, [r4, #-8]
    2a90:	e6ccc47c 	uxtab16	ip, ip, ip, ror #8
    2a94:	e1a0ec2e 	lsr	lr, lr, #24
    2a98:	e6caa47a 	uxtab16	sl, sl, sl, ror #8
    2a9c:	e1a0c46c 	ror	ip, ip, #8
    2aa0:	e68cafba 	sel	sl, ip, sl
    2aa4:	e66aaf97 	uqadd8	sl, sl, r7
    2aa8:	e26ee0ff 	rsb	lr, lr, #255	; 0xff
    2aac:	e6cfc07b 	uxtb16	ip, fp
    2ab0:	e6cfb47b 	uxtb16	fp, fp, ror #8
    2ab4:	e02c6e9c 	mla	ip, ip, lr, r6
    2ab8:	e02b6e9b 	mla	fp, fp, lr, r6
    2abc:	e514e004 	ldr	lr, [r4, #-4]
    2ac0:	e6ccc47c 	uxtab16	ip, ip, ip, ror #8
    2ac4:	e6cbb47b 	uxtab16	fp, fp, fp, ror #8
    2ac8:	e1a0c46c 	ror	ip, ip, #8
    2acc:	e68cbfbb 	sel	fp, ip, fp
    2ad0:	e66bbf9e 	uqadd8	fp, fp, lr
    2ad4:	e9020f00 	stmdb	r2, {r8, r9, sl, fp}
    2ad8:	e2500004 	subs	r0, r0, #4
    2adc:	2affffc5 	bcs	29f8 <pixman_composite_over_8888_8888_asm_armv6+0x568>
    2ae0:	e3100003 	tst	r0, #3
    2ae4:	0a000032 	beq	2bb4 <pixman_composite_over_8888_8888_asm_armv6+0x724>
    2ae8:	e1b0cf80 	lsls	ip, r0, #31
    2aec:	3a00001d 	bcc	2b68 <pixman_composite_over_8888_8888_asm_armv6+0x6d8>
    2af0:	e8b40028 	ldm	r4!, {r3, r5}
    2af4:	e8b20300 	ldm	r2!, {r8, r9}
    2af8:	e3330000 	teq	r3, #0
    2afc:	03350000 	teqeq	r5, #0
    2b00:	0a000018 	beq	2b68 <pixman_composite_over_8888_8888_asm_armv6+0x6d8>
    2b04:	e1a03c23 	lsr	r3, r3, #24
    2b08:	e26330ff 	rsb	r3, r3, #255	; 0xff
    2b0c:	e6cfc078 	uxtb16	ip, r8
    2b10:	e6cf8478 	uxtb16	r8, r8, ror #8
    2b14:	e02c639c 	mla	ip, ip, r3, r6
    2b18:	e0286398 	mla	r8, r8, r3, r6
    2b1c:	e5143008 	ldr	r3, [r4, #-8]
    2b20:	e6ccc47c 	uxtab16	ip, ip, ip, ror #8
    2b24:	e1a05c25 	lsr	r5, r5, #24
    2b28:	e6c88478 	uxtab16	r8, r8, r8, ror #8
    2b2c:	e1a0c46c 	ror	ip, ip, #8
    2b30:	e68c8fb8 	sel	r8, ip, r8
    2b34:	e6688f93 	uqadd8	r8, r8, r3
    2b38:	e26550ff 	rsb	r5, r5, #255	; 0xff
    2b3c:	e6cfc079 	uxtb16	ip, r9
    2b40:	e6cf9479 	uxtb16	r9, r9, ror #8
    2b44:	e02c659c 	mla	ip, ip, r5, r6
    2b48:	e0296599 	mla	r9, r9, r5, r6
    2b4c:	e5145004 	ldr	r5, [r4, #-4]
    2b50:	e6ccc47c 	uxtab16	ip, ip, ip, ror #8
    2b54:	e6c99479 	uxtab16	r9, r9, r9, ror #8
    2b58:	e1a0c46c 	ror	ip, ip, #8
    2b5c:	e68c9fb9 	sel	r9, ip, r9
    2b60:	e6699f95 	uqadd8	r9, r9, r5
    2b64:	e9020300 	stmdb	r2, {r8, r9}
    2b68:	e1b0cf80 	lsls	ip, r0, #31
    2b6c:	5a000010 	bpl	2bb4 <pixman_composite_over_8888_8888_asm_armv6+0x724>
    2b70:	e4947004 	ldr	r7, [r4], #4
    2b74:	e492a004 	ldr	sl, [r2], #4
    2b78:	e3370000 	teq	r7, #0
    2b7c:	0a00000c 	beq	2bb4 <pixman_composite_over_8888_8888_asm_armv6+0x724>
    2b80:	e1a07c27 	lsr	r7, r7, #24
    2b84:	e26770ff 	rsb	r7, r7, #255	; 0xff
    2b88:	e6cfc07a 	uxtb16	ip, sl
    2b8c:	e6cfa47a 	uxtb16	sl, sl, ror #8
    2b90:	e02c679c 	mla	ip, ip, r7, r6
    2b94:	e02a679a 	mla	sl, sl, r7, r6
    2b98:	e5147004 	ldr	r7, [r4, #-4]
    2b9c:	e6ccc47c 	uxtab16	ip, ip, ip, ror #8
    2ba0:	e6caa47a 	uxtab16	sl, sl, sl, ror #8
    2ba4:	e1a0c46c 	ror	ip, ip, #8
    2ba8:	e68cafba 	sel	sl, ip, sl
    2bac:	e66aaf97 	uqadd8	sl, sl, r7
    2bb0:	e502a004 	str	sl, [r2, #-4]
    2bb4:	e89d4028 	ldm	sp, {r3, r5, lr}
    2bb8:	e2511001 	subs	r1, r1, #1
    2bbc:	e0822003 	add	r2, r2, r3
    2bc0:	e0844005 	add	r4, r4, r5
    2bc4:	e1a0000e 	mov	r0, lr
    2bc8:	2afffe42 	bcs	24d8 <pixman_composite_over_8888_8888_asm_armv6+0x48>
    2bcc:	ea00014b 	b	3100 <pixman_composite_over_8888_8888_asm_armv6+0xc70>
    2bd0:	00800080 	addeq	r0, r0, r0, lsl #1
    2bd4:	e1a0e000 	mov	lr, r0
    2bd8:	e92d4028 	push	{r3, r5, lr}
    2bdc:	e3c4801f 	bic	r8, r4, #31
    2be0:	f5d8f000 	pld	[r8]
    2be4:	e0849100 	add	r9, r4, r0, lsl #2
    2be8:	e2499001 	sub	r9, r9, #1
    2bec:	e3c9901f 	bic	r9, r9, #31
    2bf0:	e1590008 	cmp	r9, r8
    2bf4:	0a000003 	beq	2c08 <pixman_composite_over_8888_8888_asm_armv6+0x778>
    2bf8:	e2888020 	add	r8, r8, #32
    2bfc:	e1580009 	cmp	r8, r9
    2c00:	f5d8f000 	pld	[r8]
    2c04:	1afffffb 	bne	2bf8 <pixman_composite_over_8888_8888_asm_armv6+0x768>
    2c08:	e3c2801f 	bic	r8, r2, #31
    2c0c:	f5d8f000 	pld	[r8]
    2c10:	e0829100 	add	r9, r2, r0, lsl #2
    2c14:	e2499001 	sub	r9, r9, #1
    2c18:	e3c9901f 	bic	r9, r9, #31
    2c1c:	e1590008 	cmp	r9, r8
    2c20:	0a000003 	beq	2c34 <pixman_composite_over_8888_8888_asm_armv6+0x7a4>
    2c24:	e2888020 	add	r8, r8, #32
    2c28:	e1580009 	cmp	r8, r9
    2c2c:	f5d8f000 	pld	[r8]
    2c30:	1afffffb 	bne	2c24 <pixman_composite_over_8888_8888_asm_armv6+0x794>
    2c34:	e2400004 	sub	r0, r0, #4
    2c38:	e312000f 	tst	r2, #15
    2c3c:	0a000036 	beq	2d1c <pixman_composite_over_8888_8888_asm_armv6+0x88c>
    2c40:	e2628000 	rsb	r8, r2, #0
    2c44:	e1b0ce88 	lsls	ip, r8, #29
    2c48:	5a000011 	bpl	2c94 <pixman_composite_over_8888_8888_asm_armv6+0x804>
    2c4c:	e4945004 	ldr	r5, [r4], #4
    2c50:	e4929004 	ldr	r9, [r2], #4
    2c54:	e2400001 	sub	r0, r0, #1
    2c58:	e3350000 	teq	r5, #0
    2c5c:	0a00000c 	beq	2c94 <pixman_composite_over_8888_8888_asm_armv6+0x804>
    2c60:	e1a05c25 	lsr	r5, r5, #24
    2c64:	e26550ff 	rsb	r5, r5, #255	; 0xff
    2c68:	e6cfc079 	uxtb16	ip, r9
    2c6c:	e6cf9479 	uxtb16	r9, r9, ror #8
    2c70:	e02c659c 	mla	ip, ip, r5, r6
    2c74:	e0296599 	mla	r9, r9, r5, r6
    2c78:	e5145004 	ldr	r5, [r4, #-4]
    2c7c:	e6ccc47c 	uxtab16	ip, ip, ip, ror #8
    2c80:	e6c99479 	uxtab16	r9, r9, r9, ror #8
    2c84:	e1a0c46c 	ror	ip, ip, #8
    2c88:	e68c9fb9 	sel	r9, ip, r9
    2c8c:	e6699f95 	uqadd8	r9, r9, r5
    2c90:	e5029004 	str	r9, [r2, #-4]
    2c94:	e1b0ce88 	lsls	ip, r8, #29
    2c98:	3a00001f 	bcc	2d1c <pixman_composite_over_8888_8888_asm_armv6+0x88c>
    2c9c:	e4947004 	ldr	r7, [r4], #4
    2ca0:	e494e004 	ldr	lr, [r4], #4
    2ca4:	e8b20c00 	ldm	r2!, {sl, fp}
    2ca8:	e2400002 	sub	r0, r0, #2
    2cac:	e3370000 	teq	r7, #0
    2cb0:	033e0000 	teqeq	lr, #0
    2cb4:	0a000018 	beq	2d1c <pixman_composite_over_8888_8888_asm_armv6+0x88c>
    2cb8:	e1a07c27 	lsr	r7, r7, #24
    2cbc:	e26770ff 	rsb	r7, r7, #255	; 0xff
    2cc0:	e6cfc07a 	uxtb16	ip, sl
    2cc4:	e6cfa47a 	uxtb16	sl, sl, ror #8
    2cc8:	e02c679c 	mla	ip, ip, r7, r6
    2ccc:	e02a679a 	mla	sl, sl, r7, r6
    2cd0:	e5147008 	ldr	r7, [r4, #-8]
    2cd4:	e6ccc47c 	uxtab16	ip, ip, ip, ror #8
    2cd8:	e1a0ec2e 	lsr	lr, lr, #24
    2cdc:	e6caa47a 	uxtab16	sl, sl, sl, ror #8
    2ce0:	e1a0c46c 	ror	ip, ip, #8
    2ce4:	e68cafba 	sel	sl, ip, sl
    2ce8:	e66aaf97 	uqadd8	sl, sl, r7
    2cec:	e26ee0ff 	rsb	lr, lr, #255	; 0xff
    2cf0:	e6cfc07b 	uxtb16	ip, fp
    2cf4:	e6cfb47b 	uxtb16	fp, fp, ror #8
    2cf8:	e02c6e9c 	mla	ip, ip, lr, r6
    2cfc:	e02b6e9b 	mla	fp, fp, lr, r6
    2d00:	e514e004 	ldr	lr, [r4, #-4]
    2d04:	e6ccc47c 	uxtab16	ip, ip, ip, ror #8
    2d08:	e6cbb47b 	uxtab16	fp, fp, fp, ror #8
    2d0c:	e1a0c46c 	ror	ip, ip, #8
    2d10:	e68cbfbb 	sel	fp, ip, fp
    2d14:	e66bbf9e 	uqadd8	fp, fp, lr
    2d18:	e9020c00 	stmdb	r2, {sl, fp}
    2d1c:	e8b440a8 	ldm	r4!, {r3, r5, r7, lr}
    2d20:	e8b20f00 	ldm	r2!, {r8, r9, sl, fp}
    2d24:	e3330000 	teq	r3, #0
    2d28:	03350000 	teqeq	r5, #0
    2d2c:	03370000 	teqeq	r7, #0
    2d30:	033e0000 	teqeq	lr, #0
    2d34:	0a000030 	beq	2dfc <pixman_composite_over_8888_8888_asm_armv6+0x96c>
    2d38:	e1a03c23 	lsr	r3, r3, #24
    2d3c:	e26330ff 	rsb	r3, r3, #255	; 0xff
    2d40:	e6cfc078 	uxtb16	ip, r8
    2d44:	e6cf8478 	uxtb16	r8, r8, ror #8
    2d48:	e02c639c 	mla	ip, ip, r3, r6
    2d4c:	e0286398 	mla	r8, r8, r3, r6
    2d50:	e5143010 	ldr	r3, [r4, #-16]
    2d54:	e6ccc47c 	uxtab16	ip, ip, ip, ror #8
    2d58:	e1a05c25 	lsr	r5, r5, #24
    2d5c:	e6c88478 	uxtab16	r8, r8, r8, ror #8
    2d60:	e1a0c46c 	ror	ip, ip, #8
    2d64:	e68c8fb8 	sel	r8, ip, r8
    2d68:	e6688f93 	uqadd8	r8, r8, r3
    2d6c:	e26550ff 	rsb	r5, r5, #255	; 0xff
    2d70:	e6cfc079 	uxtb16	ip, r9
    2d74:	e6cf9479 	uxtb16	r9, r9, ror #8
    2d78:	e02c659c 	mla	ip, ip, r5, r6
    2d7c:	e0296599 	mla	r9, r9, r5, r6
    2d80:	e514500c 	ldr	r5, [r4, #-12]
    2d84:	e6ccc47c 	uxtab16	ip, ip, ip, ror #8
    2d88:	e1a07c27 	lsr	r7, r7, #24
    2d8c:	e6c99479 	uxtab16	r9, r9, r9, ror #8
    2d90:	e1a0c46c 	ror	ip, ip, #8
    2d94:	e68c9fb9 	sel	r9, ip, r9
    2d98:	e6699f95 	uqadd8	r9, r9, r5
    2d9c:	e26770ff 	rsb	r7, r7, #255	; 0xff
    2da0:	e6cfc07a 	uxtb16	ip, sl
    2da4:	e6cfa47a 	uxtb16	sl, sl, ror #8
    2da8:	e02c679c 	mla	ip, ip, r7, r6
    2dac:	e02a679a 	mla	sl, sl, r7, r6
    2db0:	e5147008 	ldr	r7, [r4, #-8]
    2db4:	e6ccc47c 	uxtab16	ip, ip, ip, ror #8
    2db8:	e1a0ec2e 	lsr	lr, lr, #24
    2dbc:	e6caa47a 	uxtab16	sl, sl, sl, ror #8
    2dc0:	e1a0c46c 	ror	ip, ip, #8
    2dc4:	e68cafba 	sel	sl, ip, sl
    2dc8:	e66aaf97 	uqadd8	sl, sl, r7
    2dcc:	e26ee0ff 	rsb	lr, lr, #255	; 0xff
    2dd0:	e6cfc07b 	uxtb16	ip, fp
    2dd4:	e6cfb47b 	uxtb16	fp, fp, ror #8
    2dd8:	e02c6e9c 	mla	ip, ip, lr, r6
    2ddc:	e02b6e9b 	mla	fp, fp, lr, r6
    2de0:	e514e004 	ldr	lr, [r4, #-4]
    2de4:	e6ccc47c 	uxtab16	ip, ip, ip, ror #8
    2de8:	e6cbb47b 	uxtab16	fp, fp, fp, ror #8
    2dec:	e1a0c46c 	ror	ip, ip, #8
    2df0:	e68cbfbb 	sel	fp, ip, fp
    2df4:	e66bbf9e 	uqadd8	fp, fp, lr
    2df8:	e9020f00 	stmdb	r2, {r8, r9, sl, fp}
    2dfc:	e2500004 	subs	r0, r0, #4
    2e00:	2affffc5 	bcs	2d1c <pixman_composite_over_8888_8888_asm_armv6+0x88c>
    2e04:	e3100003 	tst	r0, #3
    2e08:	0a000032 	beq	2ed8 <pixman_composite_over_8888_8888_asm_armv6+0xa48>
    2e0c:	e1b0cf80 	lsls	ip, r0, #31
    2e10:	3a00001d 	bcc	2e8c <pixman_composite_over_8888_8888_asm_armv6+0x9fc>
    2e14:	e8b40028 	ldm	r4!, {r3, r5}
    2e18:	e8b20300 	ldm	r2!, {r8, r9}
    2e1c:	e3330000 	teq	r3, #0
    2e20:	03350000 	teqeq	r5, #0
    2e24:	0a000018 	beq	2e8c <pixman_composite_over_8888_8888_asm_armv6+0x9fc>
    2e28:	e1a03c23 	lsr	r3, r3, #24
    2e2c:	e26330ff 	rsb	r3, r3, #255	; 0xff
    2e30:	e6cfc078 	uxtb16	ip, r8
    2e34:	e6cf8478 	uxtb16	r8, r8, ror #8
    2e38:	e02c639c 	mla	ip, ip, r3, r6
    2e3c:	e0286398 	mla	r8, r8, r3, r6
    2e40:	e5143008 	ldr	r3, [r4, #-8]
    2e44:	e6ccc47c 	uxtab16	ip, ip, ip, ror #8
    2e48:	e1a05c25 	lsr	r5, r5, #24
    2e4c:	e6c88478 	uxtab16	r8, r8, r8, ror #8
    2e50:	e1a0c46c 	ror	ip, ip, #8
    2e54:	e68c8fb8 	sel	r8, ip, r8
    2e58:	e6688f93 	uqadd8	r8, r8, r3
    2e5c:	e26550ff 	rsb	r5, r5, #255	; 0xff
    2e60:	e6cfc079 	uxtb16	ip, r9
    2e64:	e6cf9479 	uxtb16	r9, r9, ror #8
    2e68:	e02c659c 	mla	ip, ip, r5, r6
    2e6c:	e0296599 	mla	r9, r9, r5, r6
    2e70:	e5145004 	ldr	r5, [r4, #-4]
    2e74:	e6ccc47c 	uxtab16	ip, ip, ip, ror #8
    2e78:	e6c99479 	uxtab16	r9, r9, r9, ror #8
    2e7c:	e1a0c46c 	ror	ip, ip, #8
    2e80:	e68c9fb9 	sel	r9, ip, r9
    2e84:	e6699f95 	uqadd8	r9, r9, r5
    2e88:	e9020300 	stmdb	r2, {r8, r9}
    2e8c:	e1b0cf80 	lsls	ip, r0, #31
    2e90:	5a000010 	bpl	2ed8 <pixman_composite_over_8888_8888_asm_armv6+0xa48>
    2e94:	e4947004 	ldr	r7, [r4], #4
    2e98:	e492a004 	ldr	sl, [r2], #4
    2e9c:	e3370000 	teq	r7, #0
    2ea0:	0a00000c 	beq	2ed8 <pixman_composite_over_8888_8888_asm_armv6+0xa48>
    2ea4:	e1a07c27 	lsr	r7, r7, #24
    2ea8:	e26770ff 	rsb	r7, r7, #255	; 0xff
    2eac:	e6cfc07a 	uxtb16	ip, sl
    2eb0:	e6cfa47a 	uxtb16	sl, sl, ror #8
    2eb4:	e02c679c 	mla	ip, ip, r7, r6
    2eb8:	e02a679a 	mla	sl, sl, r7, r6
    2ebc:	e5147004 	ldr	r7, [r4, #-4]
    2ec0:	e6ccc47c 	uxtab16	ip, ip, ip, ror #8
    2ec4:	e6caa47a 	uxtab16	sl, sl, sl, ror #8
    2ec8:	e1a0c46c 	ror	ip, ip, #8
    2ecc:	e68cafba 	sel	sl, ip, sl
    2ed0:	e66aaf97 	uqadd8	sl, sl, r7
    2ed4:	e502a004 	str	sl, [r2, #-4]
    2ed8:	e89d4028 	ldm	sp, {r3, r5, lr}
    2edc:	e2511001 	subs	r1, r1, #1
    2ee0:	e0822003 	add	r2, r2, r3
    2ee4:	e0844005 	add	r4, r4, r5
    2ee8:	e1a0000e 	mov	r0, lr
    2eec:	2affff3a 	bcs	2bdc <pixman_composite_over_8888_8888_asm_armv6+0x74c>
    2ef0:	ea000082 	b	3100 <pixman_composite_over_8888_8888_asm_armv6+0xc70>
    2ef4:	e92d4028 	push	{r3, r5, lr}
    2ef8:	e3c4801f 	bic	r8, r4, #31
    2efc:	f5d8f000 	pld	[r8]
    2f00:	e0849100 	add	r9, r4, r0, lsl #2
    2f04:	e2499001 	sub	r9, r9, #1
    2f08:	e3c9901f 	bic	r9, r9, #31
    2f0c:	e1590008 	cmp	r9, r8
    2f10:	0a000000 	beq	2f18 <pixman_composite_over_8888_8888_asm_armv6+0xa88>
    2f14:	f5d9f000 	pld	[r9]
    2f18:	e3c2801f 	bic	r8, r2, #31
    2f1c:	f5d8f000 	pld	[r8]
    2f20:	e0829100 	add	r9, r2, r0, lsl #2
    2f24:	e2499001 	sub	r9, r9, #1
    2f28:	e3c9901f 	bic	r9, r9, #31
    2f2c:	e1590008 	cmp	r9, r8
    2f30:	0a000000 	beq	2f38 <pixman_composite_over_8888_8888_asm_armv6+0xaa8>
    2f34:	f5d9f000 	pld	[r9]
    2f38:	e3100004 	tst	r0, #4
    2f3c:	0a000037 	beq	3020 <pixman_composite_over_8888_8888_asm_armv6+0xb90>
    2f40:	e8b440a8 	ldm	r4!, {r3, r5, r7, lr}
    2f44:	e8b20f00 	ldm	r2!, {r8, r9, sl, fp}
    2f48:	e3330000 	teq	r3, #0
    2f4c:	03350000 	teqeq	r5, #0
    2f50:	03370000 	teqeq	r7, #0
    2f54:	033e0000 	teqeq	lr, #0
    2f58:	0a000030 	beq	3020 <pixman_composite_over_8888_8888_asm_armv6+0xb90>
    2f5c:	e1a03c23 	lsr	r3, r3, #24
    2f60:	e26330ff 	rsb	r3, r3, #255	; 0xff
    2f64:	e6cfc078 	uxtb16	ip, r8
    2f68:	e6cf8478 	uxtb16	r8, r8, ror #8
    2f6c:	e02c639c 	mla	ip, ip, r3, r6
    2f70:	e0286398 	mla	r8, r8, r3, r6
    2f74:	e5143010 	ldr	r3, [r4, #-16]
    2f78:	e6ccc47c 	uxtab16	ip, ip, ip, ror #8
    2f7c:	e1a05c25 	lsr	r5, r5, #24
    2f80:	e6c88478 	uxtab16	r8, r8, r8, ror #8
    2f84:	e1a0c46c 	ror	ip, ip, #8
    2f88:	e68c8fb8 	sel	r8, ip, r8
    2f8c:	e6688f93 	uqadd8	r8, r8, r3
    2f90:	e26550ff 	rsb	r5, r5, #255	; 0xff
    2f94:	e6cfc079 	uxtb16	ip, r9
    2f98:	e6cf9479 	uxtb16	r9, r9, ror #8
    2f9c:	e02c659c 	mla	ip, ip, r5, r6
    2fa0:	e0296599 	mla	r9, r9, r5, r6
    2fa4:	e514500c 	ldr	r5, [r4, #-12]
    2fa8:	e6ccc47c 	uxtab16	ip, ip, ip, ror #8
    2fac:	e1a07c27 	lsr	r7, r7, #24
    2fb0:	e6c99479 	uxtab16	r9, r9, r9, ror #8
    2fb4:	e1a0c46c 	ror	ip, ip, #8
    2fb8:	e68c9fb9 	sel	r9, ip, r9
    2fbc:	e6699f95 	uqadd8	r9, r9, r5
    2fc0:	e26770ff 	rsb	r7, r7, #255	; 0xff
    2fc4:	e6cfc07a 	uxtb16	ip, sl
    2fc8:	e6cfa47a 	uxtb16	sl, sl, ror #8
    2fcc:	e02c679c 	mla	ip, ip, r7, r6
    2fd0:	e02a679a 	mla	sl, sl, r7, r6
    2fd4:	e5147008 	ldr	r7, [r4, #-8]
    2fd8:	e6ccc47c 	uxtab16	ip, ip, ip, ror #8
    2fdc:	e1a0ec2e 	lsr	lr, lr, #24
    2fe0:	e6caa47a 	uxtab16	sl, sl, sl, ror #8
    2fe4:	e1a0c46c 	ror	ip, ip, #8
    2fe8:	e68cafba 	sel	sl, ip, sl
    2fec:	e66aaf97 	uqadd8	sl, sl, r7
    2ff0:	e26ee0ff 	rsb	lr, lr, #255	; 0xff
    2ff4:	e6cfc07b 	uxtb16	ip, fp
    2ff8:	e6cfb47b 	uxtb16	fp, fp, ror #8
    2ffc:	e02c6e9c 	mla	ip, ip, lr, r6
    3000:	e02b6e9b 	mla	fp, fp, lr, r6
    3004:	e514e004 	ldr	lr, [r4, #-4]
    3008:	e6ccc47c 	uxtab16	ip, ip, ip, ror #8
    300c:	e6cbb47b 	uxtab16	fp, fp, fp, ror #8
    3010:	e1a0c46c 	ror	ip, ip, #8
    3014:	e68cbfbb 	sel	fp, ip, fp
    3018:	e66bbf9e 	uqadd8	fp, fp, lr
    301c:	e9020f00 	stmdb	r2, {r8, r9, sl, fp}
    3020:	e1b0cf80 	lsls	ip, r0, #31
    3024:	3a00001d 	bcc	30a0 <pixman_composite_over_8888_8888_asm_armv6+0xc10>
    3028:	e8b40028 	ldm	r4!, {r3, r5}
    302c:	e8b20300 	ldm	r2!, {r8, r9}
    3030:	e3330000 	teq	r3, #0
    3034:	03350000 	teqeq	r5, #0
    3038:	0a000018 	beq	30a0 <pixman_composite_over_8888_8888_asm_armv6+0xc10>
    303c:	e1a03c23 	lsr	r3, r3, #24
    3040:	e26330ff 	rsb	r3, r3, #255	; 0xff
    3044:	e6cfc078 	uxtb16	ip, r8
    3048:	e6cf8478 	uxtb16	r8, r8, ror #8
    304c:	e02c639c 	mla	ip, ip, r3, r6
    3050:	e0286398 	mla	r8, r8, r3, r6
    3054:	e5143008 	ldr	r3, [r4, #-8]
    3058:	e6ccc47c 	uxtab16	ip, ip, ip, ror #8
    305c:	e1a05c25 	lsr	r5, r5, #24
    3060:	e6c88478 	uxtab16	r8, r8, r8, ror #8
    3064:	e1a0c46c 	ror	ip, ip, #8
    3068:	e68c8fb8 	sel	r8, ip, r8
    306c:	e6688f93 	uqadd8	r8, r8, r3
    3070:	e26550ff 	rsb	r5, r5, #255	; 0xff
    3074:	e6cfc079 	uxtb16	ip, r9
    3078:	e6cf9479 	uxtb16	r9, r9, ror #8
    307c:	e02c659c 	mla	ip, ip, r5, r6
    3080:	e0296599 	mla	r9, r9, r5, r6
    3084:	e5145004 	ldr	r5, [r4, #-4]
    3088:	e6ccc47c 	uxtab16	ip, ip, ip, ror #8
    308c:	e6c99479 	uxtab16	r9, r9, r9, ror #8
    3090:	e1a0c46c 	ror	ip, ip, #8
    3094:	e68c9fb9 	sel	r9, ip, r9
    3098:	e6699f95 	uqadd8	r9, r9, r5
    309c:	e9020300 	stmdb	r2, {r8, r9}
    30a0:	e1b0cf80 	lsls	ip, r0, #31
    30a4:	5a000010 	bpl	30ec <pixman_composite_over_8888_8888_asm_armv6+0xc5c>
    30a8:	e4947004 	ldr	r7, [r4], #4
    30ac:	e492a004 	ldr	sl, [r2], #4
    30b0:	e3370000 	teq	r7, #0
    30b4:	0a00000c 	beq	30ec <pixman_composite_over_8888_8888_asm_armv6+0xc5c>
    30b8:	e1a07c27 	lsr	r7, r7, #24
    30bc:	e26770ff 	rsb	r7, r7, #255	; 0xff
    30c0:	e6cfc07a 	uxtb16	ip, sl
    30c4:	e6cfa47a 	uxtb16	sl, sl, ror #8
    30c8:	e02c679c 	mla	ip, ip, r7, r6
    30cc:	e02a679a 	mla	sl, sl, r7, r6
    30d0:	e5147004 	ldr	r7, [r4, #-4]
    30d4:	e6ccc47c 	uxtab16	ip, ip, ip, ror #8
    30d8:	e6caa47a 	uxtab16	sl, sl, sl, ror #8
    30dc:	e1a0c46c 	ror	ip, ip, #8
    30e0:	e68cafba 	sel	sl, ip, sl
    30e4:	e66aaf97 	uqadd8	sl, sl, r7
    30e8:	e502a004 	str	sl, [r2, #-4]
    30ec:	e89d4028 	ldm	sp, {r3, r5, lr}
    30f0:	e2511001 	subs	r1, r1, #1
    30f4:	e0822003 	add	r2, r2, r3
    30f8:	e0844005 	add	r4, r4, r5
    30fc:	2affff7d 	bcs	2ef8 <pixman_composite_over_8888_8888_asm_armv6+0xa68>
    3100:	e28dd00c 	add	sp, sp, #12
    3104:	e8bd8ff0 	pop	{r4, r5, r6, r7, r8, r9, sl, fp, pc}

00003108 <pixman_composite_over_8888_n_8888_asm_armv6>:
    3108:	e92d4ff0 	push	{r4, r5, r6, r7, r8, r9, sl, fp, lr}
    310c:	e2511001 	subs	r1, r1, #1
    3110:	3a000438 	bcc	41f8 <LINE_SAVED_REGS+0x16e>
    3114:	e59d4024 	ldr	r4, [sp, #36]	; 0x24
    3118:	e59d5028 	ldr	r5, [sp, #40]	; 0x28
    311c:	e59d602c 	ldr	r6, [sp, #44]	; 0x2c
    3120:	e59f79d4 	ldr	r7, [pc, #2516]	; 3afc <pixman_composite_over_8888_n_8888_asm_armv6+0x9f4>
    3124:	e1a06c26 	lsr	r6, r6, #24
    3128:	e657cf97 	uadd8	ip, r7, r7
    312c:	e1a03103 	lsl	r3, r3, #2
    3130:	e0433100 	sub	r3, r3, r0, lsl #2
    3134:	e1a05105 	lsl	r5, r5, #2
    3138:	e0455100 	sub	r5, r5, r0, lsl #2
    313c:	e3500007 	cmp	r0, #7
    3140:	3a000379 	bcc	3f2c <pixman_composite_over_8888_n_8888_asm_armv6+0xe24>
    3144:	e3500027 	cmp	r0, #39	; 0x27
    3148:	3a00026c 	bcc	3b00 <pixman_composite_over_8888_n_8888_asm_armv6+0x9f8>
    314c:	e2400020 	sub	r0, r0, #32
    3150:	e1a0e000 	mov	lr, r0
    3154:	e92d402a 	push	{r1, r3, r5, lr}
    3158:	e3c4901f 	bic	r9, r4, #31
    315c:	f5d9f000 	pld	[r9]
    3160:	f5d9f020 	pld	[r9, #32]
    3164:	f5d9f040 	pld	[r9, #64]	; 0x40
    3168:	e3c2b01f 	bic	fp, r2, #31
    316c:	f5dbf000 	pld	[fp]
    3170:	f5dbf020 	pld	[fp, #32]
    3174:	f5dbf040 	pld	[fp, #64]	; 0x40
    3178:	e312000f 	tst	r2, #15
    317c:	0a000053 	beq	32d0 <pixman_composite_over_8888_n_8888_asm_armv6+0x1c8>
    3180:	e2628000 	rsb	r8, r2, #0
    3184:	e208800f 	and	r8, r8, #15
    3188:	e1a0cd84 	lsl	ip, r4, #27
    318c:	e08ccd88 	add	ip, ip, r8, lsl #27
    3190:	e07ccd88 	rsbs	ip, ip, r8, lsl #27
    3194:	9a000000 	bls	319c <pixman_composite_over_8888_n_8888_asm_armv6+0x94>
    3198:	f5d9f060 	pld	[r9, #96]	; 0x60
    319c:	e3120010 	tst	r2, #16
    31a0:	0a000000 	beq	31a8 <pixman_composite_over_8888_n_8888_asm_armv6+0xa0>
    31a4:	f5dbf060 	pld	[fp, #96]	; 0x60
    31a8:	e1b0ce88 	lsls	ip, r8, #29
    31ac:	5a000018 	bpl	3214 <pixman_composite_over_8888_n_8888_asm_armv6+0x10c>
    31b0:	e4943004 	ldr	r3, [r4], #4
    31b4:	e4929004 	ldr	r9, [r2], #4
    31b8:	e2400001 	sub	r0, r0, #1
    31bc:	e3330000 	teq	r3, #0
    31c0:	0a000013 	beq	3214 <pixman_composite_over_8888_n_8888_asm_armv6+0x10c>
    31c4:	e3a050ff 	mov	r5, #255	; 0xff
    31c8:	e6cfc073 	uxtb16	ip, r3
    31cc:	e6cf3473 	uxtb16	r3, r3, ror #8
    31d0:	e02c769c 	mla	ip, ip, r6, r7
    31d4:	e0237693 	mla	r3, r3, r6, r7
    31d8:	e6ccc47c 	uxtab16	ip, ip, ip, ror #8
    31dc:	e6c33473 	uxtab16	r3, r3, r3, ror #8
    31e0:	e1a0c46c 	ror	ip, ip, #8
    31e4:	e68c3fb3 	sel	r3, ip, r3
    31e8:	e045ec23 	sub	lr, r5, r3, lsr #24
    31ec:	e6cfc079 	uxtb16	ip, r9
    31f0:	e6cf9479 	uxtb16	r9, r9, ror #8
    31f4:	e02c7e9c 	mla	ip, ip, lr, r7
    31f8:	e0297e99 	mla	r9, r9, lr, r7
    31fc:	e6ccc47c 	uxtab16	ip, ip, ip, ror #8
    3200:	e6c99479 	uxtab16	r9, r9, r9, ror #8
    3204:	e1a0c46c 	ror	ip, ip, #8
    3208:	e68c9fb9 	sel	r9, ip, r9
    320c:	e6699f93 	uqadd8	r9, r9, r3
    3210:	e5029004 	str	r9, [r2, #-4]
    3214:	e1b0ce88 	lsls	ip, r8, #29
    3218:	3a00002c 	bcc	32d0 <pixman_composite_over_8888_n_8888_asm_armv6+0x1c8>
    321c:	e4941004 	ldr	r1, [r4], #4
    3220:	e4943004 	ldr	r3, [r4], #4
    3224:	e8b20c00 	ldm	r2!, {sl, fp}
    3228:	e2400002 	sub	r0, r0, #2
    322c:	e3310000 	teq	r1, #0
    3230:	03330000 	teqeq	r3, #0
    3234:	0a000025 	beq	32d0 <pixman_composite_over_8888_n_8888_asm_armv6+0x1c8>
    3238:	e3a050ff 	mov	r5, #255	; 0xff
    323c:	e6cfc071 	uxtb16	ip, r1
    3240:	e6cf1471 	uxtb16	r1, r1, ror #8
    3244:	e02c769c 	mla	ip, ip, r6, r7
    3248:	e0217691 	mla	r1, r1, r6, r7
    324c:	e6ccc47c 	uxtab16	ip, ip, ip, ror #8
    3250:	e6c11471 	uxtab16	r1, r1, r1, ror #8
    3254:	e1a0c46c 	ror	ip, ip, #8
    3258:	e68c1fb1 	sel	r1, ip, r1
    325c:	e045ec21 	sub	lr, r5, r1, lsr #24
    3260:	e6cfc07a 	uxtb16	ip, sl
    3264:	e6cfa47a 	uxtb16	sl, sl, ror #8
    3268:	e02c7e9c 	mla	ip, ip, lr, r7
    326c:	e02a7e9a 	mla	sl, sl, lr, r7
    3270:	e6ccc47c 	uxtab16	ip, ip, ip, ror #8
    3274:	e6caa47a 	uxtab16	sl, sl, sl, ror #8
    3278:	e1a0c46c 	ror	ip, ip, #8
    327c:	e68cafba 	sel	sl, ip, sl
    3280:	e66aaf91 	uqadd8	sl, sl, r1
    3284:	e6cfc073 	uxtb16	ip, r3
    3288:	e6cf3473 	uxtb16	r3, r3, ror #8
    328c:	e02c769c 	mla	ip, ip, r6, r7
    3290:	e0237693 	mla	r3, r3, r6, r7
    3294:	e6ccc47c 	uxtab16	ip, ip, ip, ror #8
    3298:	e6c33473 	uxtab16	r3, r3, r3, ror #8
    329c:	e1a0c46c 	ror	ip, ip, #8
    32a0:	e68c3fb3 	sel	r3, ip, r3
    32a4:	e045ec23 	sub	lr, r5, r3, lsr #24
    32a8:	e6cfc07b 	uxtb16	ip, fp
    32ac:	e6cfb47b 	uxtb16	fp, fp, ror #8
    32b0:	e02c7e9c 	mla	ip, ip, lr, r7
    32b4:	e02b7e9b 	mla	fp, fp, lr, r7
    32b8:	e6ccc47c 	uxtab16	ip, ip, ip, ror #8
    32bc:	e6cbb47b 	uxtab16	fp, fp, fp, ror #8
    32c0:	e1a0c46c 	ror	ip, ip, #8
    32c4:	e68cbfbb 	sel	fp, ip, fp
    32c8:	e66bbf93 	uqadd8	fp, fp, r3
    32cc:	e9020c00 	stmdb	r2, {sl, fp}
    32d0:	e3120010 	tst	r2, #16
    32d4:	1a0000a9 	bne	3580 <pixman_composite_over_8888_n_8888_asm_armv6+0x478>
    32d8:	e8b4402a 	ldm	r4!, {r1, r3, r5, lr}
    32dc:	e8b20f00 	ldm	r2!, {r8, r9, sl, fp}
    32e0:	f5d2f030 	pld	[r2, #48]	; 0x30
    32e4:	e3310000 	teq	r1, #0
    32e8:	03330000 	teqeq	r3, #0
    32ec:	03350000 	teqeq	r5, #0
    32f0:	033e0000 	teqeq	lr, #0
    32f4:	0a00004a 	beq	3424 <pixman_composite_over_8888_n_8888_asm_armv6+0x31c>
    32f8:	e3a050ff 	mov	r5, #255	; 0xff
    32fc:	e6cfc071 	uxtb16	ip, r1
    3300:	e6cf1471 	uxtb16	r1, r1, ror #8
    3304:	e02c769c 	mla	ip, ip, r6, r7
    3308:	e0217691 	mla	r1, r1, r6, r7
    330c:	e6ccc47c 	uxtab16	ip, ip, ip, ror #8
    3310:	e6c11471 	uxtab16	r1, r1, r1, ror #8
    3314:	e1a0c46c 	ror	ip, ip, #8
    3318:	e68c1fb1 	sel	r1, ip, r1
    331c:	e045ec21 	sub	lr, r5, r1, lsr #24
    3320:	e6cfc078 	uxtb16	ip, r8
    3324:	e6cf8478 	uxtb16	r8, r8, ror #8
    3328:	e02c7e9c 	mla	ip, ip, lr, r7
    332c:	e0287e98 	mla	r8, r8, lr, r7
    3330:	e6ccc47c 	uxtab16	ip, ip, ip, ror #8
    3334:	e6c88478 	uxtab16	r8, r8, r8, ror #8
    3338:	e1a0c46c 	ror	ip, ip, #8
    333c:	e68c8fb8 	sel	r8, ip, r8
    3340:	e6688f91 	uqadd8	r8, r8, r1
    3344:	e6cfc073 	uxtb16	ip, r3
    3348:	e6cf3473 	uxtb16	r3, r3, ror #8
    334c:	e02c769c 	mla	ip, ip, r6, r7
    3350:	e0237693 	mla	r3, r3, r6, r7
    3354:	e6ccc47c 	uxtab16	ip, ip, ip, ror #8
    3358:	e6c33473 	uxtab16	r3, r3, r3, ror #8
    335c:	e1a0c46c 	ror	ip, ip, #8
    3360:	e68c3fb3 	sel	r3, ip, r3
    3364:	e045ec23 	sub	lr, r5, r3, lsr #24
    3368:	e6cfc079 	uxtb16	ip, r9
    336c:	e6cf9479 	uxtb16	r9, r9, ror #8
    3370:	e02c7e9c 	mla	ip, ip, lr, r7
    3374:	e0297e99 	mla	r9, r9, lr, r7
    3378:	e6ccc47c 	uxtab16	ip, ip, ip, ror #8
    337c:	e6c99479 	uxtab16	r9, r9, r9, ror #8
    3380:	e1a0c46c 	ror	ip, ip, #8
    3384:	e68c9fb9 	sel	r9, ip, r9
    3388:	e6699f93 	uqadd8	r9, r9, r3
    338c:	e914000a 	ldmdb	r4, {r1, r3}
    3390:	e6cfc071 	uxtb16	ip, r1
    3394:	e6cf1471 	uxtb16	r1, r1, ror #8
    3398:	e02c769c 	mla	ip, ip, r6, r7
    339c:	e0217691 	mla	r1, r1, r6, r7
    33a0:	e6ccc47c 	uxtab16	ip, ip, ip, ror #8
    33a4:	e6c11471 	uxtab16	r1, r1, r1, ror #8
    33a8:	e1a0c46c 	ror	ip, ip, #8
    33ac:	e68c1fb1 	sel	r1, ip, r1
    33b0:	e045ec21 	sub	lr, r5, r1, lsr #24
    33b4:	e6cfc07a 	uxtb16	ip, sl
    33b8:	e6cfa47a 	uxtb16	sl, sl, ror #8
    33bc:	e02c7e9c 	mla	ip, ip, lr, r7
    33c0:	e02a7e9a 	mla	sl, sl, lr, r7
    33c4:	e6ccc47c 	uxtab16	ip, ip, ip, ror #8
    33c8:	e6caa47a 	uxtab16	sl, sl, sl, ror #8
    33cc:	e1a0c46c 	ror	ip, ip, #8
    33d0:	e68cafba 	sel	sl, ip, sl
    33d4:	e66aaf91 	uqadd8	sl, sl, r1
    33d8:	e6cfc073 	uxtb16	ip, r3
    33dc:	e6cf3473 	uxtb16	r3, r3, ror #8
    33e0:	e02c769c 	mla	ip, ip, r6, r7
    33e4:	e0237693 	mla	r3, r3, r6, r7
    33e8:	e6ccc47c 	uxtab16	ip, ip, ip, ror #8
    33ec:	e6c33473 	uxtab16	r3, r3, r3, ror #8
    33f0:	e1a0c46c 	ror	ip, ip, #8
    33f4:	e68c3fb3 	sel	r3, ip, r3
    33f8:	e045ec23 	sub	lr, r5, r3, lsr #24
    33fc:	e6cfc07b 	uxtb16	ip, fp
    3400:	e6cfb47b 	uxtb16	fp, fp, ror #8
    3404:	e02c7e9c 	mla	ip, ip, lr, r7
    3408:	e02b7e9b 	mla	fp, fp, lr, r7
    340c:	e6ccc47c 	uxtab16	ip, ip, ip, ror #8
    3410:	e6cbb47b 	uxtab16	fp, fp, fp, ror #8
    3414:	e1a0c46c 	ror	ip, ip, #8
    3418:	e68cbfbb 	sel	fp, ip, fp
    341c:	e66bbf93 	uqadd8	fp, fp, r3
    3420:	e9020f00 	stmdb	r2, {r8, r9, sl, fp}
    3424:	e8b4402a 	ldm	r4!, {r1, r3, r5, lr}
    3428:	e8b20f00 	ldm	r2!, {r8, r9, sl, fp}
    342c:	e3c4c01f 	bic	ip, r4, #31
    3430:	f5dcf040 	pld	[ip, #64]	; 0x40
    3434:	e3310000 	teq	r1, #0
    3438:	03330000 	teqeq	r3, #0
    343c:	03350000 	teqeq	r5, #0
    3440:	033e0000 	teqeq	lr, #0
    3444:	0a00004a 	beq	3574 <pixman_composite_over_8888_n_8888_asm_armv6+0x46c>
    3448:	e3a050ff 	mov	r5, #255	; 0xff
    344c:	e6cfc071 	uxtb16	ip, r1
    3450:	e6cf1471 	uxtb16	r1, r1, ror #8
    3454:	e02c769c 	mla	ip, ip, r6, r7
    3458:	e0217691 	mla	r1, r1, r6, r7
    345c:	e6ccc47c 	uxtab16	ip, ip, ip, ror #8
    3460:	e6c11471 	uxtab16	r1, r1, r1, ror #8
    3464:	e1a0c46c 	ror	ip, ip, #8
    3468:	e68c1fb1 	sel	r1, ip, r1
    346c:	e045ec21 	sub	lr, r5, r1, lsr #24
    3470:	e6cfc078 	uxtb16	ip, r8
    3474:	e6cf8478 	uxtb16	r8, r8, ror #8
    3478:	e02c7e9c 	mla	ip, ip, lr, r7
    347c:	e0287e98 	mla	r8, r8, lr, r7
    3480:	e6ccc47c 	uxtab16	ip, ip, ip, ror #8
    3484:	e6c88478 	uxtab16	r8, r8, r8, ror #8
    3488:	e1a0c46c 	ror	ip, ip, #8
    348c:	e68c8fb8 	sel	r8, ip, r8
    3490:	e6688f91 	uqadd8	r8, r8, r1
    3494:	e6cfc073 	uxtb16	ip, r3
    3498:	e6cf3473 	uxtb16	r3, r3, ror #8
    349c:	e02c769c 	mla	ip, ip, r6, r7
    34a0:	e0237693 	mla	r3, r3, r6, r7
    34a4:	e6ccc47c 	uxtab16	ip, ip, ip, ror #8
    34a8:	e6c33473 	uxtab16	r3, r3, r3, ror #8
    34ac:	e1a0c46c 	ror	ip, ip, #8
    34b0:	e68c3fb3 	sel	r3, ip, r3
    34b4:	e045ec23 	sub	lr, r5, r3, lsr #24
    34b8:	e6cfc079 	uxtb16	ip, r9
    34bc:	e6cf9479 	uxtb16	r9, r9, ror #8
    34c0:	e02c7e9c 	mla	ip, ip, lr, r7
    34c4:	e0297e99 	mla	r9, r9, lr, r7
    34c8:	e6ccc47c 	uxtab16	ip, ip, ip, ror #8
    34cc:	e6c99479 	uxtab16	r9, r9, r9, ror #8
    34d0:	e1a0c46c 	ror	ip, ip, #8
    34d4:	e68c9fb9 	sel	r9, ip, r9
    34d8:	e6699f93 	uqadd8	r9, r9, r3
    34dc:	e914000a 	ldmdb	r4, {r1, r3}
    34e0:	e6cfc071 	uxtb16	ip, r1
    34e4:	e6cf1471 	uxtb16	r1, r1, ror #8
    34e8:	e02c769c 	mla	ip, ip, r6, r7
    34ec:	e0217691 	mla	r1, r1, r6, r7
    34f0:	e6ccc47c 	uxtab16	ip, ip, ip, ror #8
    34f4:	e6c11471 	uxtab16	r1, r1, r1, ror #8
    34f8:	e1a0c46c 	ror	ip, ip, #8
    34fc:	e68c1fb1 	sel	r1, ip, r1
    3500:	e045ec21 	sub	lr, r5, r1, lsr #24
    3504:	e6cfc07a 	uxtb16	ip, sl
    3508:	e6cfa47a 	uxtb16	sl, sl, ror #8
    350c:	e02c7e9c 	mla	ip, ip, lr, r7
    3510:	e02a7e9a 	mla	sl, sl, lr, r7
    3514:	e6ccc47c 	uxtab16	ip, ip, ip, ror #8
    3518:	e6caa47a 	uxtab16	sl, sl, sl, ror #8
    351c:	e1a0c46c 	ror	ip, ip, #8
    3520:	e68cafba 	sel	sl, ip, sl
    3524:	e66aaf91 	uqadd8	sl, sl, r1
    3528:	e6cfc073 	uxtb16	ip, r3
    352c:	e6cf3473 	uxtb16	r3, r3, ror #8
    3530:	e02c769c 	mla	ip, ip, r6, r7
    3534:	e0237693 	mla	r3, r3, r6, r7
    3538:	e6ccc47c 	uxtab16	ip, ip, ip, ror #8
    353c:	e6c33473 	uxtab16	r3, r3, r3, ror #8
    3540:	e1a0c46c 	ror	ip, ip, #8
    3544:	e68c3fb3 	sel	r3, ip, r3
    3548:	e045ec23 	sub	lr, r5, r3, lsr #24
    354c:	e6cfc07b 	uxtb16	ip, fp
    3550:	e6cfb47b 	uxtb16	fp, fp, ror #8
    3554:	e02c7e9c 	mla	ip, ip, lr, r7
    3558:	e02b7e9b 	mla	fp, fp, lr, r7
    355c:	e6ccc47c 	uxtab16	ip, ip, ip, ror #8
    3560:	e6cbb47b 	uxtab16	fp, fp, fp, ror #8
    3564:	e1a0c46c 	ror	ip, ip, #8
    3568:	e68cbfbb 	sel	fp, ip, fp
    356c:	e66bbf93 	uqadd8	fp, fp, r3
    3570:	e9020f00 	stmdb	r2, {r8, r9, sl, fp}
    3574:	e2500008 	subs	r0, r0, #8
    3578:	2affff56 	bcs	32d8 <pixman_composite_over_8888_n_8888_asm_armv6+0x1d0>
    357c:	ea0000a8 	b	3824 <pixman_composite_over_8888_n_8888_asm_armv6+0x71c>
    3580:	e8b4402a 	ldm	r4!, {r1, r3, r5, lr}
    3584:	e8b20f00 	ldm	r2!, {r8, r9, sl, fp}
    3588:	f5d2f040 	pld	[r2, #64]	; 0x40
    358c:	e3310000 	teq	r1, #0
    3590:	03330000 	teqeq	r3, #0
    3594:	03350000 	teqeq	r5, #0
    3598:	033e0000 	teqeq	lr, #0
    359c:	0a00004a 	beq	36cc <pixman_composite_over_8888_n_8888_asm_armv6+0x5c4>
    35a0:	e3a050ff 	mov	r5, #255	; 0xff
    35a4:	e6cfc071 	uxtb16	ip, r1
    35a8:	e6cf1471 	uxtb16	r1, r1, ror #8
    35ac:	e02c769c 	mla	ip, ip, r6, r7
    35b0:	e0217691 	mla	r1, r1, r6, r7
    35b4:	e6ccc47c 	uxtab16	ip, ip, ip, ror #8
    35b8:	e6c11471 	uxtab16	r1, r1, r1, ror #8
    35bc:	e1a0c46c 	ror	ip, ip, #8
    35c0:	e68c1fb1 	sel	r1, ip, r1
    35c4:	e045ec21 	sub	lr, r5, r1, lsr #24
    35c8:	e6cfc078 	uxtb16	ip, r8
    35cc:	e6cf8478 	uxtb16	r8, r8, ror #8
    35d0:	e02c7e9c 	mla	ip, ip, lr, r7
    35d4:	e0287e98 	mla	r8, r8, lr, r7
    35d8:	e6ccc47c 	uxtab16	ip, ip, ip, ror #8
    35dc:	e6c88478 	uxtab16	r8, r8, r8, ror #8
    35e0:	e1a0c46c 	ror	ip, ip, #8
    35e4:	e68c8fb8 	sel	r8, ip, r8
    35e8:	e6688f91 	uqadd8	r8, r8, r1
    35ec:	e6cfc073 	uxtb16	ip, r3
    35f0:	e6cf3473 	uxtb16	r3, r3, ror #8
    35f4:	e02c769c 	mla	ip, ip, r6, r7
    35f8:	e0237693 	mla	r3, r3, r6, r7
    35fc:	e6ccc47c 	uxtab16	ip, ip, ip, ror #8
    3600:	e6c33473 	uxtab16	r3, r3, r3, ror #8
    3604:	e1a0c46c 	ror	ip, ip, #8
    3608:	e68c3fb3 	sel	r3, ip, r3
    360c:	e045ec23 	sub	lr, r5, r3, lsr #24
    3610:	e6cfc079 	uxtb16	ip, r9
    3614:	e6cf9479 	uxtb16	r9, r9, ror #8
    3618:	e02c7e9c 	mla	ip, ip, lr, r7
    361c:	e0297e99 	mla	r9, r9, lr, r7
    3620:	e6ccc47c 	uxtab16	ip, ip, ip, ror #8
    3624:	e6c99479 	uxtab16	r9, r9, r9, ror #8
    3628:	e1a0c46c 	ror	ip, ip, #8
    362c:	e68c9fb9 	sel	r9, ip, r9
    3630:	e6699f93 	uqadd8	r9, r9, r3
    3634:	e914000a 	ldmdb	r4, {r1, r3}
    3638:	e6cfc071 	uxtb16	ip, r1
    363c:	e6cf1471 	uxtb16	r1, r1, ror #8
    3640:	e02c769c 	mla	ip, ip, r6, r7
    3644:	e0217691 	mla	r1, r1, r6, r7
    3648:	e6ccc47c 	uxtab16	ip, ip, ip, ror #8
    364c:	e6c11471 	uxtab16	r1, r1, r1, ror #8
    3650:	e1a0c46c 	ror	ip, ip, #8
    3654:	e68c1fb1 	sel	r1, ip, r1
    3658:	e045ec21 	sub	lr, r5, r1, lsr #24
    365c:	e6cfc07a 	uxtb16	ip, sl
    3660:	e6cfa47a 	uxtb16	sl, sl, ror #8
    3664:	e02c7e9c 	mla	ip, ip, lr, r7
    3668:	e02a7e9a 	mla	sl, sl, lr, r7
    366c:	e6ccc47c 	uxtab16	ip, ip, ip, ror #8
    3670:	e6caa47a 	uxtab16	sl, sl, sl, ror #8
    3674:	e1a0c46c 	ror	ip, ip, #8
    3678:	e68cafba 	sel	sl, ip, sl
    367c:	e66aaf91 	uqadd8	sl, sl, r1
    3680:	e6cfc073 	uxtb16	ip, r3
    3684:	e6cf3473 	uxtb16	r3, r3, ror #8
    3688:	e02c769c 	mla	ip, ip, r6, r7
    368c:	e0237693 	mla	r3, r3, r6, r7
    3690:	e6ccc47c 	uxtab16	ip, ip, ip, ror #8
    3694:	e6c33473 	uxtab16	r3, r3, r3, ror #8
    3698:	e1a0c46c 	ror	ip, ip, #8
    369c:	e68c3fb3 	sel	r3, ip, r3
    36a0:	e045ec23 	sub	lr, r5, r3, lsr #24
    36a4:	e6cfc07b 	uxtb16	ip, fp
    36a8:	e6cfb47b 	uxtb16	fp, fp, ror #8
    36ac:	e02c7e9c 	mla	ip, ip, lr, r7
    36b0:	e02b7e9b 	mla	fp, fp, lr, r7
    36b4:	e6ccc47c 	uxtab16	ip, ip, ip, ror #8
    36b8:	e6cbb47b 	uxtab16	fp, fp, fp, ror #8
    36bc:	e1a0c46c 	ror	ip, ip, #8
    36c0:	e68cbfbb 	sel	fp, ip, fp
    36c4:	e66bbf93 	uqadd8	fp, fp, r3
    36c8:	e9020f00 	stmdb	r2, {r8, r9, sl, fp}
    36cc:	e8b4402a 	ldm	r4!, {r1, r3, r5, lr}
    36d0:	e8b20f00 	ldm	r2!, {r8, r9, sl, fp}
    36d4:	e3c4c01f 	bic	ip, r4, #31
    36d8:	f5dcf040 	pld	[ip, #64]	; 0x40
    36dc:	e3310000 	teq	r1, #0
    36e0:	03330000 	teqeq	r3, #0
    36e4:	03350000 	teqeq	r5, #0
    36e8:	033e0000 	teqeq	lr, #0
    36ec:	0a00004a 	beq	381c <pixman_composite_over_8888_n_8888_asm_armv6+0x714>
    36f0:	e3a050ff 	mov	r5, #255	; 0xff
    36f4:	e6cfc071 	uxtb16	ip, r1
    36f8:	e6cf1471 	uxtb16	r1, r1, ror #8
    36fc:	e02c769c 	mla	ip, ip, r6, r7
    3700:	e0217691 	mla	r1, r1, r6, r7
    3704:	e6ccc47c 	uxtab16	ip, ip, ip, ror #8
    3708:	e6c11471 	uxtab16	r1, r1, r1, ror #8
    370c:	e1a0c46c 	ror	ip, ip, #8
    3710:	e68c1fb1 	sel	r1, ip, r1
    3714:	e045ec21 	sub	lr, r5, r1, lsr #24
    3718:	e6cfc078 	uxtb16	ip, r8
    371c:	e6cf8478 	uxtb16	r8, r8, ror #8
    3720:	e02c7e9c 	mla	ip, ip, lr, r7
    3724:	e0287e98 	mla	r8, r8, lr, r7
    3728:	e6ccc47c 	uxtab16	ip, ip, ip, ror #8
    372c:	e6c88478 	uxtab16	r8, r8, r8, ror #8
    3730:	e1a0c46c 	ror	ip, ip, #8
    3734:	e68c8fb8 	sel	r8, ip, r8
    3738:	e6688f91 	uqadd8	r8, r8, r1
    373c:	e6cfc073 	uxtb16	ip, r3
    3740:	e6cf3473 	uxtb16	r3, r3, ror #8
    3744:	e02c769c 	mla	ip, ip, r6, r7
    3748:	e0237693 	mla	r3, r3, r6, r7
    374c:	e6ccc47c 	uxtab16	ip, ip, ip, ror #8
    3750:	e6c33473 	uxtab16	r3, r3, r3, ror #8
    3754:	e1a0c46c 	ror	ip, ip, #8
    3758:	e68c3fb3 	sel	r3, ip, r3
    375c:	e045ec23 	sub	lr, r5, r3, lsr #24
    3760:	e6cfc079 	uxtb16	ip, r9
    3764:	e6cf9479 	uxtb16	r9, r9, ror #8
    3768:	e02c7e9c 	mla	ip, ip, lr, r7
    376c:	e0297e99 	mla	r9, r9, lr, r7
    3770:	e6ccc47c 	uxtab16	ip, ip, ip, ror #8
    3774:	e6c99479 	uxtab16	r9, r9, r9, ror #8
    3778:	e1a0c46c 	ror	ip, ip, #8
    377c:	e68c9fb9 	sel	r9, ip, r9
    3780:	e6699f93 	uqadd8	r9, r9, r3
    3784:	e914000a 	ldmdb	r4, {r1, r3}
    3788:	e6cfc071 	uxtb16	ip, r1
    378c:	e6cf1471 	uxtb16	r1, r1, ror #8
    3790:	e02c769c 	mla	ip, ip, r6, r7
    3794:	e0217691 	mla	r1, r1, r6, r7
    3798:	e6ccc47c 	uxtab16	ip, ip, ip, ror #8
    379c:	e6c11471 	uxtab16	r1, r1, r1, ror #8
    37a0:	e1a0c46c 	ror	ip, ip, #8
    37a4:	e68c1fb1 	sel	r1, ip, r1
    37a8:	e045ec21 	sub	lr, r5, r1, lsr #24
    37ac:	e6cfc07a 	uxtb16	ip, sl
    37b0:	e6cfa47a 	uxtb16	sl, sl, ror #8
    37b4:	e02c7e9c 	mla	ip, ip, lr, r7
    37b8:	e02a7e9a 	mla	sl, sl, lr, r7
    37bc:	e6ccc47c 	uxtab16	ip, ip, ip, ror #8
    37c0:	e6caa47a 	uxtab16	sl, sl, sl, ror #8
    37c4:	e1a0c46c 	ror	ip, ip, #8
    37c8:	e68cafba 	sel	sl, ip, sl
    37cc:	e66aaf91 	uqadd8	sl, sl, r1
    37d0:	e6cfc073 	uxtb16	ip, r3
    37d4:	e6cf3473 	uxtb16	r3, r3, ror #8
    37d8:	e02c769c 	mla	ip, ip, r6, r7
    37dc:	e0237693 	mla	r3, r3, r6, r7
    37e0:	e6ccc47c 	uxtab16	ip, ip, ip, ror #8
    37e4:	e6c33473 	uxtab16	r3, r3, r3, ror #8
    37e8:	e1a0c46c 	ror	ip, ip, #8
    37ec:	e68c3fb3 	sel	r3, ip, r3
    37f0:	e045ec23 	sub	lr, r5, r3, lsr #24
    37f4:	e6cfc07b 	uxtb16	ip, fp
    37f8:	e6cfb47b 	uxtb16	fp, fp, ror #8
    37fc:	e02c7e9c 	mla	ip, ip, lr, r7
    3800:	e02b7e9b 	mla	fp, fp, lr, r7
    3804:	e6ccc47c 	uxtab16	ip, ip, ip, ror #8
    3808:	e6cbb47b 	uxtab16	fp, fp, fp, ror #8
    380c:	e1a0c46c 	ror	ip, ip, #8
    3810:	e68cbfbb 	sel	fp, ip, fp
    3814:	e66bbf93 	uqadd8	fp, fp, r3
    3818:	e9020f00 	stmdb	r2, {r8, r9, sl, fp}
    381c:	e2500008 	subs	r0, r0, #8
    3820:	2affff56 	bcs	3580 <pixman_composite_over_8888_n_8888_asm_armv6+0x478>
    3824:	e1a0cd84 	lsl	ip, r4, #27
    3828:	e09cce80 	adds	ip, ip, r0, lsl #29
    382c:	02bcc000 	adcseq	ip, ip, #0
    3830:	0a000003 	beq	3844 <pixman_composite_over_8888_n_8888_asm_armv6+0x73c>
    3834:	e3c4c01f 	bic	ip, r4, #31
    3838:	3a000000 	bcc	3840 <pixman_composite_over_8888_n_8888_asm_armv6+0x738>
    383c:	f5dcf080 	pld	[ip, #128]	; 0x80
    3840:	f5dcf060 	pld	[ip, #96]	; 0x60
    3844:	e1a0cd82 	lsl	ip, r2, #27
    3848:	e09cce80 	adds	ip, ip, r0, lsl #29
    384c:	02bcc000 	adcseq	ip, ip, #0
    3850:	0a000003 	beq	3864 <pixman_composite_over_8888_n_8888_asm_armv6+0x75c>
    3854:	e3c2c01f 	bic	ip, r2, #31
    3858:	3a000000 	bcc	3860 <pixman_composite_over_8888_n_8888_asm_armv6+0x758>
    385c:	f5dcf080 	pld	[ip, #128]	; 0x80
    3860:	f5dcf060 	pld	[ip, #96]	; 0x60
    3864:	e280001c 	add	r0, r0, #28
    3868:	e8b4402a 	ldm	r4!, {r1, r3, r5, lr}
    386c:	e8b20f00 	ldm	r2!, {r8, r9, sl, fp}
    3870:	e3310000 	teq	r1, #0
    3874:	03330000 	teqeq	r3, #0
    3878:	03350000 	teqeq	r5, #0
    387c:	033e0000 	teqeq	lr, #0
    3880:	0a00004a 	beq	39b0 <pixman_composite_over_8888_n_8888_asm_armv6+0x8a8>
    3884:	e3a050ff 	mov	r5, #255	; 0xff
    3888:	e6cfc071 	uxtb16	ip, r1
    388c:	e6cf1471 	uxtb16	r1, r1, ror #8
    3890:	e02c769c 	mla	ip, ip, r6, r7
    3894:	e0217691 	mla	r1, r1, r6, r7
    3898:	e6ccc47c 	uxtab16	ip, ip, ip, ror #8
    389c:	e6c11471 	uxtab16	r1, r1, r1, ror #8
    38a0:	e1a0c46c 	ror	ip, ip, #8
    38a4:	e68c1fb1 	sel	r1, ip, r1
    38a8:	e045ec21 	sub	lr, r5, r1, lsr #24
    38ac:	e6cfc078 	uxtb16	ip, r8
    38b0:	e6cf8478 	uxtb16	r8, r8, ror #8
    38b4:	e02c7e9c 	mla	ip, ip, lr, r7
    38b8:	e0287e98 	mla	r8, r8, lr, r7
    38bc:	e6ccc47c 	uxtab16	ip, ip, ip, ror #8
    38c0:	e6c88478 	uxtab16	r8, r8, r8, ror #8
    38c4:	e1a0c46c 	ror	ip, ip, #8
    38c8:	e68c8fb8 	sel	r8, ip, r8
    38cc:	e6688f91 	uqadd8	r8, r8, r1
    38d0:	e6cfc073 	uxtb16	ip, r3
    38d4:	e6cf3473 	uxtb16	r3, r3, ror #8
    38d8:	e02c769c 	mla	ip, ip, r6, r7
    38dc:	e0237693 	mla	r3, r3, r6, r7
    38e0:	e6ccc47c 	uxtab16	ip, ip, ip, ror #8
    38e4:	e6c33473 	uxtab16	r3, r3, r3, ror #8
    38e8:	e1a0c46c 	ror	ip, ip, #8
    38ec:	e68c3fb3 	sel	r3, ip, r3
    38f0:	e045ec23 	sub	lr, r5, r3, lsr #24
    38f4:	e6cfc079 	uxtb16	ip, r9
    38f8:	e6cf9479 	uxtb16	r9, r9, ror #8
    38fc:	e02c7e9c 	mla	ip, ip, lr, r7
    3900:	e0297e99 	mla	r9, r9, lr, r7
    3904:	e6ccc47c 	uxtab16	ip, ip, ip, ror #8
    3908:	e6c99479 	uxtab16	r9, r9, r9, ror #8
    390c:	e1a0c46c 	ror	ip, ip, #8
    3910:	e68c9fb9 	sel	r9, ip, r9
    3914:	e6699f93 	uqadd8	r9, r9, r3
    3918:	e914000a 	ldmdb	r4, {r1, r3}
    391c:	e6cfc071 	uxtb16	ip, r1
    3920:	e6cf1471 	uxtb16	r1, r1, ror #8
    3924:	e02c769c 	mla	ip, ip, r6, r7
    3928:	e0217691 	mla	r1, r1, r6, r7
    392c:	e6ccc47c 	uxtab16	ip, ip, ip, ror #8
    3930:	e6c11471 	uxtab16	r1, r1, r1, ror #8
    3934:	e1a0c46c 	ror	ip, ip, #8
    3938:	e68c1fb1 	sel	r1, ip, r1
    393c:	e045ec21 	sub	lr, r5, r1, lsr #24
    3940:	e6cfc07a 	uxtb16	ip, sl
    3944:	e6cfa47a 	uxtb16	sl, sl, ror #8
    3948:	e02c7e9c 	mla	ip, ip, lr, r7
    394c:	e02a7e9a 	mla	sl, sl, lr, r7
    3950:	e6ccc47c 	uxtab16	ip, ip, ip, ror #8
    3954:	e6caa47a 	uxtab16	sl, sl, sl, ror #8
    3958:	e1a0c46c 	ror	ip, ip, #8
    395c:	e68cafba 	sel	sl, ip, sl
    3960:	e66aaf91 	uqadd8	sl, sl, r1
    3964:	e6cfc073 	uxtb16	ip, r3
    3968:	e6cf3473 	uxtb16	r3, r3, ror #8
    396c:	e02c769c 	mla	ip, ip, r6, r7
    3970:	e0237693 	mla	r3, r3, r6, r7
    3974:	e6ccc47c 	uxtab16	ip, ip, ip, ror #8
    3978:	e6c33473 	uxtab16	r3, r3, r3, ror #8
    397c:	e1a0c46c 	ror	ip, ip, #8
    3980:	e68c3fb3 	sel	r3, ip, r3
    3984:	e045ec23 	sub	lr, r5, r3, lsr #24
    3988:	e6cfc07b 	uxtb16	ip, fp
    398c:	e6cfb47b 	uxtb16	fp, fp, ror #8
    3990:	e02c7e9c 	mla	ip, ip, lr, r7
    3994:	e02b7e9b 	mla	fp, fp, lr, r7
    3998:	e6ccc47c 	uxtab16	ip, ip, ip, ror #8
    399c:	e6cbb47b 	uxtab16	fp, fp, fp, ror #8
    39a0:	e1a0c46c 	ror	ip, ip, #8
    39a4:	e68cbfbb 	sel	fp, ip, fp
    39a8:	e66bbf93 	uqadd8	fp, fp, r3
    39ac:	e9020f00 	stmdb	r2, {r8, r9, sl, fp}
    39b0:	e2500004 	subs	r0, r0, #4
    39b4:	2affffab 	bcs	3868 <pixman_composite_over_8888_n_8888_asm_armv6+0x760>
    39b8:	e3100003 	tst	r0, #3
    39bc:	0a000046 	beq	3adc <pixman_composite_over_8888_n_8888_asm_armv6+0x9d4>
    39c0:	e1b0cf80 	lsls	ip, r0, #31
    39c4:	3a00002a 	bcc	3a74 <pixman_composite_over_8888_n_8888_asm_armv6+0x96c>
    39c8:	e8b4000a 	ldm	r4!, {r1, r3}
    39cc:	e8b20300 	ldm	r2!, {r8, r9}
    39d0:	e3310000 	teq	r1, #0
    39d4:	03330000 	teqeq	r3, #0
    39d8:	0a000025 	beq	3a74 <pixman_composite_over_8888_n_8888_asm_armv6+0x96c>
    39dc:	e3a050ff 	mov	r5, #255	; 0xff
    39e0:	e6cfc071 	uxtb16	ip, r1
    39e4:	e6cf1471 	uxtb16	r1, r1, ror #8
    39e8:	e02c769c 	mla	ip, ip, r6, r7
    39ec:	e0217691 	mla	r1, r1, r6, r7
    39f0:	e6ccc47c 	uxtab16	ip, ip, ip, ror #8
    39f4:	e6c11471 	uxtab16	r1, r1, r1, ror #8
    39f8:	e1a0c46c 	ror	ip, ip, #8
    39fc:	e68c1fb1 	sel	r1, ip, r1
    3a00:	e045ec21 	sub	lr, r5, r1, lsr #24
    3a04:	e6cfc078 	uxtb16	ip, r8
    3a08:	e6cf8478 	uxtb16	r8, r8, ror #8
    3a0c:	e02c7e9c 	mla	ip, ip, lr, r7
    3a10:	e0287e98 	mla	r8, r8, lr, r7
    3a14:	e6ccc47c 	uxtab16	ip, ip, ip, ror #8
    3a18:	e6c88478 	uxtab16	r8, r8, r8, ror #8
    3a1c:	e1a0c46c 	ror	ip, ip, #8
    3a20:	e68c8fb8 	sel	r8, ip, r8
    3a24:	e6688f91 	uqadd8	r8, r8, r1
    3a28:	e6cfc073 	uxtb16	ip, r3
    3a2c:	e6cf3473 	uxtb16	r3, r3, ror #8
    3a30:	e02c769c 	mla	ip, ip, r6, r7
    3a34:	e0237693 	mla	r3, r3, r6, r7
    3a38:	e6ccc47c 	uxtab16	ip, ip, ip, ror #8
    3a3c:	e6c33473 	uxtab16	r3, r3, r3, ror #8
    3a40:	e1a0c46c 	ror	ip, ip, #8
    3a44:	e68c3fb3 	sel	r3, ip, r3
    3a48:	e045ec23 	sub	lr, r5, r3, lsr #24
    3a4c:	e6cfc079 	uxtb16	ip, r9
    3a50:	e6cf9479 	uxtb16	r9, r9, ror #8
    3a54:	e02c7e9c 	mla	ip, ip, lr, r7
    3a58:	e0297e99 	mla	r9, r9, lr, r7
    3a5c:	e6ccc47c 	uxtab16	ip, ip, ip, ror #8
    3a60:	e6c99479 	uxtab16	r9, r9, r9, ror #8
    3a64:	e1a0c46c 	ror	ip, ip, #8
    3a68:	e68c9fb9 	sel	r9, ip, r9
    3a6c:	e6699f93 	uqadd8	r9, r9, r3
    3a70:	e9020300 	stmdb	r2, {r8, r9}
    3a74:	e1b0cf80 	lsls	ip, r0, #31
    3a78:	5a000017 	bpl	3adc <pixman_composite_over_8888_n_8888_asm_armv6+0x9d4>
    3a7c:	e4941004 	ldr	r1, [r4], #4
    3a80:	e492a004 	ldr	sl, [r2], #4
    3a84:	e3310000 	teq	r1, #0
    3a88:	0a000013 	beq	3adc <pixman_composite_over_8888_n_8888_asm_armv6+0x9d4>
    3a8c:	e3a050ff 	mov	r5, #255	; 0xff
    3a90:	e6cfc071 	uxtb16	ip, r1
    3a94:	e6cf1471 	uxtb16	r1, r1, ror #8
    3a98:	e02c769c 	mla	ip, ip, r6, r7
    3a9c:	e0217691 	mla	r1, r1, r6, r7
    3aa0:	e6ccc47c 	uxtab16	ip, ip, ip, ror #8
    3aa4:	e6c11471 	uxtab16	r1, r1, r1, ror #8
    3aa8:	e1a0c46c 	ror	ip, ip, #8
    3aac:	e68c1fb1 	sel	r1, ip, r1
    3ab0:	e045ec21 	sub	lr, r5, r1, lsr #24
    3ab4:	e6cfc07a 	uxtb16	ip, sl
    3ab8:	e6cfa47a 	uxtb16	sl, sl, ror #8
    3abc:	e02c7e9c 	mla	ip, ip, lr, r7
    3ac0:	e02a7e9a 	mla	sl, sl, lr, r7
    3ac4:	e6ccc47c 	uxtab16	ip, ip, ip, ror #8
    3ac8:	e6caa47a 	uxtab16	sl, sl, sl, ror #8
    3acc:	e1a0c46c 	ror	ip, ip, #8
    3ad0:	e68cafba 	sel	sl, ip, sl
    3ad4:	e66aaf91 	uqadd8	sl, sl, r1
    3ad8:	e502a004 	str	sl, [r2, #-4]
    3adc:	e89d402a 	ldm	sp, {r1, r3, r5, lr}
    3ae0:	e2511001 	subs	r1, r1, #1
    3ae4:	e58d1000 	str	r1, [sp]
    3ae8:	e0822003 	add	r2, r2, r3
    3aec:	e0844005 	add	r4, r4, r5
    3af0:	e1a0000e 	mov	r0, lr
    3af4:	2afffd97 	bcs	3158 <pixman_composite_over_8888_n_8888_asm_armv6+0x50>
    3af8:	ea0001bd 	b	41f4 <LINE_SAVED_REGS+0x16a>
    3afc:	00800080 	addeq	r0, r0, r0, lsl #1
    3b00:	e1a0e000 	mov	lr, r0
    3b04:	e92d402a 	push	{r1, r3, r5, lr}
    3b08:	e3c4801f 	bic	r8, r4, #31
    3b0c:	f5d8f000 	pld	[r8]
    3b10:	e0849100 	add	r9, r4, r0, lsl #2
    3b14:	e2499001 	sub	r9, r9, #1
    3b18:	e3c9901f 	bic	r9, r9, #31
    3b1c:	e1590008 	cmp	r9, r8
    3b20:	0a000003 	beq	3b34 <pixman_composite_over_8888_n_8888_asm_armv6+0xa2c>
    3b24:	e2888020 	add	r8, r8, #32
    3b28:	e1580009 	cmp	r8, r9
    3b2c:	f5d8f000 	pld	[r8]
    3b30:	1afffffb 	bne	3b24 <pixman_composite_over_8888_n_8888_asm_armv6+0xa1c>
    3b34:	e3c2801f 	bic	r8, r2, #31
    3b38:	f5d8f000 	pld	[r8]
    3b3c:	e0829100 	add	r9, r2, r0, lsl #2
    3b40:	e2499001 	sub	r9, r9, #1
    3b44:	e3c9901f 	bic	r9, r9, #31
    3b48:	e1590008 	cmp	r9, r8
    3b4c:	0a000003 	beq	3b60 <pixman_composite_over_8888_n_8888_asm_armv6+0xa58>
    3b50:	e2888020 	add	r8, r8, #32
    3b54:	e1580009 	cmp	r8, r9
    3b58:	f5d8f000 	pld	[r8]
    3b5c:	1afffffb 	bne	3b50 <pixman_composite_over_8888_n_8888_asm_armv6+0xa48>
    3b60:	e2400004 	sub	r0, r0, #4
    3b64:	e312000f 	tst	r2, #15
    3b68:	0a00004a 	beq	3c98 <pixman_composite_over_8888_n_8888_asm_armv6+0xb90>
    3b6c:	e2628000 	rsb	r8, r2, #0
    3b70:	e1b0ce88 	lsls	ip, r8, #29
    3b74:	5a000018 	bpl	3bdc <pixman_composite_over_8888_n_8888_asm_armv6+0xad4>
    3b78:	e4943004 	ldr	r3, [r4], #4
    3b7c:	e4929004 	ldr	r9, [r2], #4
    3b80:	e2400001 	sub	r0, r0, #1
    3b84:	e3330000 	teq	r3, #0
    3b88:	0a000013 	beq	3bdc <pixman_composite_over_8888_n_8888_asm_armv6+0xad4>
    3b8c:	e3a050ff 	mov	r5, #255	; 0xff
    3b90:	e6cfc073 	uxtb16	ip, r3
    3b94:	e6cf3473 	uxtb16	r3, r3, ror #8
    3b98:	e02c769c 	mla	ip, ip, r6, r7
    3b9c:	e0237693 	mla	r3, r3, r6, r7
    3ba0:	e6ccc47c 	uxtab16	ip, ip, ip, ror #8
    3ba4:	e6c33473 	uxtab16	r3, r3, r3, ror #8
    3ba8:	e1a0c46c 	ror	ip, ip, #8
    3bac:	e68c3fb3 	sel	r3, ip, r3
    3bb0:	e045ec23 	sub	lr, r5, r3, lsr #24
    3bb4:	e6cfc079 	uxtb16	ip, r9
    3bb8:	e6cf9479 	uxtb16	r9, r9, ror #8
    3bbc:	e02c7e9c 	mla	ip, ip, lr, r7
    3bc0:	e0297e99 	mla	r9, r9, lr, r7
    3bc4:	e6ccc47c 	uxtab16	ip, ip, ip, ror #8
    3bc8:	e6c99479 	uxtab16	r9, r9, r9, ror #8
    3bcc:	e1a0c46c 	ror	ip, ip, #8
    3bd0:	e68c9fb9 	sel	r9, ip, r9
    3bd4:	e6699f93 	uqadd8	r9, r9, r3
    3bd8:	e5029004 	str	r9, [r2, #-4]
    3bdc:	e1b0ce88 	lsls	ip, r8, #29
    3be0:	3a00002c 	bcc	3c98 <pixman_composite_over_8888_n_8888_asm_armv6+0xb90>
    3be4:	e4941004 	ldr	r1, [r4], #4
    3be8:	e4943004 	ldr	r3, [r4], #4
    3bec:	e8b20c00 	ldm	r2!, {sl, fp}
    3bf0:	e2400002 	sub	r0, r0, #2
    3bf4:	e3310000 	teq	r1, #0
    3bf8:	03330000 	teqeq	r3, #0
    3bfc:	0a000025 	beq	3c98 <pixman_composite_over_8888_n_8888_asm_armv6+0xb90>
    3c00:	e3a050ff 	mov	r5, #255	; 0xff
    3c04:	e6cfc071 	uxtb16	ip, r1
    3c08:	e6cf1471 	uxtb16	r1, r1, ror #8
    3c0c:	e02c769c 	mla	ip, ip, r6, r7
    3c10:	e0217691 	mla	r1, r1, r6, r7
    3c14:	e6ccc47c 	uxtab16	ip, ip, ip, ror #8
    3c18:	e6c11471 	uxtab16	r1, r1, r1, ror #8
    3c1c:	e1a0c46c 	ror	ip, ip, #8
    3c20:	e68c1fb1 	sel	r1, ip, r1
    3c24:	e045ec21 	sub	lr, r5, r1, lsr #24
    3c28:	e6cfc07a 	uxtb16	ip, sl
    3c2c:	e6cfa47a 	uxtb16	sl, sl, ror #8
    3c30:	e02c7e9c 	mla	ip, ip, lr, r7
    3c34:	e02a7e9a 	mla	sl, sl, lr, r7
    3c38:	e6ccc47c 	uxtab16	ip, ip, ip, ror #8
    3c3c:	e6caa47a 	uxtab16	sl, sl, sl, ror #8
    3c40:	e1a0c46c 	ror	ip, ip, #8
    3c44:	e68cafba 	sel	sl, ip, sl
    3c48:	e66aaf91 	uqadd8	sl, sl, r1
    3c4c:	e6cfc073 	uxtb16	ip, r3
    3c50:	e6cf3473 	uxtb16	r3, r3, ror #8
    3c54:	e02c769c 	mla	ip, ip, r6, r7
    3c58:	e0237693 	mla	r3, r3, r6, r7
    3c5c:	e6ccc47c 	uxtab16	ip, ip, ip, ror #8
    3c60:	e6c33473 	uxtab16	r3, r3, r3, ror #8
    3c64:	e1a0c46c 	ror	ip, ip, #8
    3c68:	e68c3fb3 	sel	r3, ip, r3
    3c6c:	e045ec23 	sub	lr, r5, r3, lsr #24
    3c70:	e6cfc07b 	uxtb16	ip, fp
    3c74:	e6cfb47b 	uxtb16	fp, fp, ror #8
    3c78:	e02c7e9c 	mla	ip, ip, lr, r7
    3c7c:	e02b7e9b 	mla	fp, fp, lr, r7
    3c80:	e6ccc47c 	uxtab16	ip, ip, ip, ror #8
    3c84:	e6cbb47b 	uxtab16	fp, fp, fp, ror #8
    3c88:	e1a0c46c 	ror	ip, ip, #8
    3c8c:	e68cbfbb 	sel	fp, ip, fp
    3c90:	e66bbf93 	uqadd8	fp, fp, r3
    3c94:	e9020c00 	stmdb	r2, {sl, fp}
    3c98:	e8b4402a 	ldm	r4!, {r1, r3, r5, lr}
    3c9c:	e8b20f00 	ldm	r2!, {r8, r9, sl, fp}
    3ca0:	e3310000 	teq	r1, #0
    3ca4:	03330000 	teqeq	r3, #0
    3ca8:	03350000 	teqeq	r5, #0
    3cac:	033e0000 	teqeq	lr, #0
    3cb0:	0a00004a 	beq	3de0 <pixman_composite_over_8888_n_8888_asm_armv6+0xcd8>
    3cb4:	e3a050ff 	mov	r5, #255	; 0xff
    3cb8:	e6cfc071 	uxtb16	ip, r1
    3cbc:	e6cf1471 	uxtb16	r1, r1, ror #8
    3cc0:	e02c769c 	mla	ip, ip, r6, r7
    3cc4:	e0217691 	mla	r1, r1, r6, r7
    3cc8:	e6ccc47c 	uxtab16	ip, ip, ip, ror #8
    3ccc:	e6c11471 	uxtab16	r1, r1, r1, ror #8
    3cd0:	e1a0c46c 	ror	ip, ip, #8
    3cd4:	e68c1fb1 	sel	r1, ip, r1
    3cd8:	e045ec21 	sub	lr, r5, r1, lsr #24
    3cdc:	e6cfc078 	uxtb16	ip, r8
    3ce0:	e6cf8478 	uxtb16	r8, r8, ror #8
    3ce4:	e02c7e9c 	mla	ip, ip, lr, r7
    3ce8:	e0287e98 	mla	r8, r8, lr, r7
    3cec:	e6ccc47c 	uxtab16	ip, ip, ip, ror #8
    3cf0:	e6c88478 	uxtab16	r8, r8, r8, ror #8
    3cf4:	e1a0c46c 	ror	ip, ip, #8
    3cf8:	e68c8fb8 	sel	r8, ip, r8
    3cfc:	e6688f91 	uqadd8	r8, r8, r1
    3d00:	e6cfc073 	uxtb16	ip, r3
    3d04:	e6cf3473 	uxtb16	r3, r3, ror #8
    3d08:	e02c769c 	mla	ip, ip, r6, r7
    3d0c:	e0237693 	mla	r3, r3, r6, r7
    3d10:	e6ccc47c 	uxtab16	ip, ip, ip, ror #8
    3d14:	e6c33473 	uxtab16	r3, r3, r3, ror #8
    3d18:	e1a0c46c 	ror	ip, ip, #8
    3d1c:	e68c3fb3 	sel	r3, ip, r3
    3d20:	e045ec23 	sub	lr, r5, r3, lsr #24
    3d24:	e6cfc079 	uxtb16	ip, r9
    3d28:	e6cf9479 	uxtb16	r9, r9, ror #8
    3d2c:	e02c7e9c 	mla	ip, ip, lr, r7
    3d30:	e0297e99 	mla	r9, r9, lr, r7
    3d34:	e6ccc47c 	uxtab16	ip, ip, ip, ror #8
    3d38:	e6c99479 	uxtab16	r9, r9, r9, ror #8
    3d3c:	e1a0c46c 	ror	ip, ip, #8
    3d40:	e68c9fb9 	sel	r9, ip, r9
    3d44:	e6699f93 	uqadd8	r9, r9, r3
    3d48:	e914000a 	ldmdb	r4, {r1, r3}
    3d4c:	e6cfc071 	uxtb16	ip, r1
    3d50:	e6cf1471 	uxtb16	r1, r1, ror #8
    3d54:	e02c769c 	mla	ip, ip, r6, r7
    3d58:	e0217691 	mla	r1, r1, r6, r7
    3d5c:	e6ccc47c 	uxtab16	ip, ip, ip, ror #8
    3d60:	e6c11471 	uxtab16	r1, r1, r1, ror #8
    3d64:	e1a0c46c 	ror	ip, ip, #8
    3d68:	e68c1fb1 	sel	r1, ip, r1
    3d6c:	e045ec21 	sub	lr, r5, r1, lsr #24
    3d70:	e6cfc07a 	uxtb16	ip, sl
    3d74:	e6cfa47a 	uxtb16	sl, sl, ror #8
    3d78:	e02c7e9c 	mla	ip, ip, lr, r7
    3d7c:	e02a7e9a 	mla	sl, sl, lr, r7
    3d80:	e6ccc47c 	uxtab16	ip, ip, ip, ror #8
    3d84:	e6caa47a 	uxtab16	sl, sl, sl, ror #8
    3d88:	e1a0c46c 	ror	ip, ip, #8
    3d8c:	e68cafba 	sel	sl, ip, sl
    3d90:	e66aaf91 	uqadd8	sl, sl, r1
    3d94:	e6cfc073 	uxtb16	ip, r3
    3d98:	e6cf3473 	uxtb16	r3, r3, ror #8
    3d9c:	e02c769c 	mla	ip, ip, r6, r7
    3da0:	e0237693 	mla	r3, r3, r6, r7
    3da4:	e6ccc47c 	uxtab16	ip, ip, ip, ror #8
    3da8:	e6c33473 	uxtab16	r3, r3, r3, ror #8
    3dac:	e1a0c46c 	ror	ip, ip, #8
    3db0:	e68c3fb3 	sel	r3, ip, r3
    3db4:	e045ec23 	sub	lr, r5, r3, lsr #24
    3db8:	e6cfc07b 	uxtb16	ip, fp
    3dbc:	e6cfb47b 	uxtb16	fp, fp, ror #8
    3dc0:	e02c7e9c 	mla	ip, ip, lr, r7
    3dc4:	e02b7e9b 	mla	fp, fp, lr, r7
    3dc8:	e6ccc47c 	uxtab16	ip, ip, ip, ror #8
    3dcc:	e6cbb47b 	uxtab16	fp, fp, fp, ror #8
    3dd0:	e1a0c46c 	ror	ip, ip, #8
    3dd4:	e68cbfbb 	sel	fp, ip, fp
    3dd8:	e66bbf93 	uqadd8	fp, fp, r3
    3ddc:	e9020f00 	stmdb	r2, {r8, r9, sl, fp}
    3de0:	e2500004 	subs	r0, r0, #4
    3de4:	2affffab 	bcs	3c98 <pixman_composite_over_8888_n_8888_asm_armv6+0xb90>
    3de8:	e3100003 	tst	r0, #3
    3dec:	0a000046 	beq	3f0c <pixman_composite_over_8888_n_8888_asm_armv6+0xe04>
    3df0:	e1b0cf80 	lsls	ip, r0, #31
    3df4:	3a00002a 	bcc	3ea4 <pixman_composite_over_8888_n_8888_asm_armv6+0xd9c>
    3df8:	e8b4000a 	ldm	r4!, {r1, r3}
    3dfc:	e8b20300 	ldm	r2!, {r8, r9}
    3e00:	e3310000 	teq	r1, #0
    3e04:	03330000 	teqeq	r3, #0
    3e08:	0a000025 	beq	3ea4 <pixman_composite_over_8888_n_8888_asm_armv6+0xd9c>
    3e0c:	e3a050ff 	mov	r5, #255	; 0xff
    3e10:	e6cfc071 	uxtb16	ip, r1
    3e14:	e6cf1471 	uxtb16	r1, r1, ror #8
    3e18:	e02c769c 	mla	ip, ip, r6, r7
    3e1c:	e0217691 	mla	r1, r1, r6, r7
    3e20:	e6ccc47c 	uxtab16	ip, ip, ip, ror #8
    3e24:	e6c11471 	uxtab16	r1, r1, r1, ror #8
    3e28:	e1a0c46c 	ror	ip, ip, #8
    3e2c:	e68c1fb1 	sel	r1, ip, r1
    3e30:	e045ec21 	sub	lr, r5, r1, lsr #24
    3e34:	e6cfc078 	uxtb16	ip, r8
    3e38:	e6cf8478 	uxtb16	r8, r8, ror #8
    3e3c:	e02c7e9c 	mla	ip, ip, lr, r7
    3e40:	e0287e98 	mla	r8, r8, lr, r7
    3e44:	e6ccc47c 	uxtab16	ip, ip, ip, ror #8
    3e48:	e6c88478 	uxtab16	r8, r8, r8, ror #8
    3e4c:	e1a0c46c 	ror	ip, ip, #8
    3e50:	e68c8fb8 	sel	r8, ip, r8
    3e54:	e6688f91 	uqadd8	r8, r8, r1
    3e58:	e6cfc073 	uxtb16	ip, r3
    3e5c:	e6cf3473 	uxtb16	r3, r3, ror #8
    3e60:	e02c769c 	mla	ip, ip, r6, r7
    3e64:	e0237693 	mla	r3, r3, r6, r7
    3e68:	e6ccc47c 	uxtab16	ip, ip, ip, ror #8
    3e6c:	e6c33473 	uxtab16	r3, r3, r3, ror #8
    3e70:	e1a0c46c 	ror	ip, ip, #8
    3e74:	e68c3fb3 	sel	r3, ip, r3
    3e78:	e045ec23 	sub	lr, r5, r3, lsr #24
    3e7c:	e6cfc079 	uxtb16	ip, r9
    3e80:	e6cf9479 	uxtb16	r9, r9, ror #8
    3e84:	e02c7e9c 	mla	ip, ip, lr, r7
    3e88:	e0297e99 	mla	r9, r9, lr, r7
    3e8c:	e6ccc47c 	uxtab16	ip, ip, ip, ror #8
    3e90:	e6c99479 	uxtab16	r9, r9, r9, ror #8
    3e94:	e1a0c46c 	ror	ip, ip, #8
    3e98:	e68c9fb9 	sel	r9, ip, r9
    3e9c:	e6699f93 	uqadd8	r9, r9, r3
    3ea0:	e9020300 	stmdb	r2, {r8, r9}
    3ea4:	e1b0cf80 	lsls	ip, r0, #31
    3ea8:	5a000017 	bpl	3f0c <pixman_composite_over_8888_n_8888_asm_armv6+0xe04>
    3eac:	e4941004 	ldr	r1, [r4], #4
    3eb0:	e492a004 	ldr	sl, [r2], #4
    3eb4:	e3310000 	teq	r1, #0
    3eb8:	0a000013 	beq	3f0c <pixman_composite_over_8888_n_8888_asm_armv6+0xe04>
    3ebc:	e3a050ff 	mov	r5, #255	; 0xff
    3ec0:	e6cfc071 	uxtb16	ip, r1
    3ec4:	e6cf1471 	uxtb16	r1, r1, ror #8
    3ec8:	e02c769c 	mla	ip, ip, r6, r7
    3ecc:	e0217691 	mla	r1, r1, r6, r7
    3ed0:	e6ccc47c 	uxtab16	ip, ip, ip, ror #8
    3ed4:	e6c11471 	uxtab16	r1, r1, r1, ror #8
    3ed8:	e1a0c46c 	ror	ip, ip, #8
    3edc:	e68c1fb1 	sel	r1, ip, r1
    3ee0:	e045ec21 	sub	lr, r5, r1, lsr #24
    3ee4:	e6cfc07a 	uxtb16	ip, sl
    3ee8:	e6cfa47a 	uxtb16	sl, sl, ror #8
    3eec:	e02c7e9c 	mla	ip, ip, lr, r7
    3ef0:	e02a7e9a 	mla	sl, sl, lr, r7
    3ef4:	e6ccc47c 	uxtab16	ip, ip, ip, ror #8
    3ef8:	e6caa47a 	uxtab16	sl, sl, sl, ror #8
    3efc:	e1a0c46c 	ror	ip, ip, #8
    3f00:	e68cafba 	sel	sl, ip, sl
    3f04:	e66aaf91 	uqadd8	sl, sl, r1
    3f08:	e502a004 	str	sl, [r2, #-4]
    3f0c:	e89d402a 	ldm	sp, {r1, r3, r5, lr}
    3f10:	e2511001 	subs	r1, r1, #1
    3f14:	e58d1000 	str	r1, [sp]
    3f18:	e0822003 	add	r2, r2, r3
    3f1c:	e0844005 	add	r4, r4, r5
    3f20:	e1a0000e 	mov	r0, lr
    3f24:	2afffef7 	bcs	3b08 <pixman_composite_over_8888_n_8888_asm_armv6+0xa00>
    3f28:	ea0000b1 	b	41f4 <LINE_SAVED_REGS+0x16a>
    3f2c:	e92d402a 	push	{r1, r3, r5, lr}
    3f30:	e3c4801f 	bic	r8, r4, #31
    3f34:	f5d8f000 	pld	[r8]
    3f38:	e0849100 	add	r9, r4, r0, lsl #2
    3f3c:	e2499001 	sub	r9, r9, #1
    3f40:	e3c9901f 	bic	r9, r9, #31
    3f44:	e1590008 	cmp	r9, r8
    3f48:	0a000000 	beq	3f50 <pixman_composite_over_8888_n_8888_asm_armv6+0xe48>
    3f4c:	f5d9f000 	pld	[r9]
    3f50:	e3c2801f 	bic	r8, r2, #31
    3f54:	f5d8f000 	pld	[r8]
    3f58:	e0829100 	add	r9, r2, r0, lsl #2
    3f5c:	e2499001 	sub	r9, r9, #1
    3f60:	e3c9901f 	bic	r9, r9, #31
    3f64:	e1590008 	cmp	r9, r8
    3f68:	0a000000 	beq	3f70 <pixman_composite_over_8888_n_8888_asm_armv6+0xe68>
    3f6c:	f5d9f000 	pld	[r9]
    3f70:	e3100004 	tst	r0, #4
    3f74:	0a000051 	beq	40c0 <LINE_SAVED_REGS+0x36>
    3f78:	e8b4402a 	ldm	r4!, {r1, r3, r5, lr}
    3f7c:	e8b20f00 	ldm	r2!, {r8, r9, sl, fp}
    3f80:	e3310000 	teq	r1, #0
    3f84:	03330000 	teqeq	r3, #0
    3f88:	03350000 	teqeq	r5, #0
    3f8c:	033e0000 	teqeq	lr, #0
    3f90:	0a00004a 	beq	40c0 <LINE_SAVED_REGS+0x36>
    3f94:	e3a050ff 	mov	r5, #255	; 0xff
    3f98:	e6cfc071 	uxtb16	ip, r1
    3f9c:	e6cf1471 	uxtb16	r1, r1, ror #8
    3fa0:	e02c769c 	mla	ip, ip, r6, r7
    3fa4:	e0217691 	mla	r1, r1, r6, r7
    3fa8:	e6ccc47c 	uxtab16	ip, ip, ip, ror #8
    3fac:	e6c11471 	uxtab16	r1, r1, r1, ror #8
    3fb0:	e1a0c46c 	ror	ip, ip, #8
    3fb4:	e68c1fb1 	sel	r1, ip, r1
    3fb8:	e045ec21 	sub	lr, r5, r1, lsr #24
    3fbc:	e6cfc078 	uxtb16	ip, r8
    3fc0:	e6cf8478 	uxtb16	r8, r8, ror #8
    3fc4:	e02c7e9c 	mla	ip, ip, lr, r7
    3fc8:	e0287e98 	mla	r8, r8, lr, r7
    3fcc:	e6ccc47c 	uxtab16	ip, ip, ip, ror #8
    3fd0:	e6c88478 	uxtab16	r8, r8, r8, ror #8
    3fd4:	e1a0c46c 	ror	ip, ip, #8
    3fd8:	e68c8fb8 	sel	r8, ip, r8
    3fdc:	e6688f91 	uqadd8	r8, r8, r1
    3fe0:	e6cfc073 	uxtb16	ip, r3
    3fe4:	e6cf3473 	uxtb16	r3, r3, ror #8
    3fe8:	e02c769c 	mla	ip, ip, r6, r7
    3fec:	e0237693 	mla	r3, r3, r6, r7
    3ff0:	e6ccc47c 	uxtab16	ip, ip, ip, ror #8
    3ff4:	e6c33473 	uxtab16	r3, r3, r3, ror #8
    3ff8:	e1a0c46c 	ror	ip, ip, #8
    3ffc:	e68c3fb3 	sel	r3, ip, r3
    4000:	e045ec23 	sub	lr, r5, r3, lsr #24
    4004:	e6cfc079 	uxtb16	ip, r9
    4008:	e6cf9479 	uxtb16	r9, r9, ror #8
    400c:	e02c7e9c 	mla	ip, ip, lr, r7
    4010:	e0297e99 	mla	r9, r9, lr, r7
    4014:	e6ccc47c 	uxtab16	ip, ip, ip, ror #8
    4018:	e6c99479 	uxtab16	r9, r9, r9, ror #8
    401c:	e1a0c46c 	ror	ip, ip, #8
    4020:	e68c9fb9 	sel	r9, ip, r9
    4024:	e6699f93 	uqadd8	r9, r9, r3
    4028:	e914000a 	ldmdb	r4, {r1, r3}
    402c:	e6cfc071 	uxtb16	ip, r1
    4030:	e6cf1471 	uxtb16	r1, r1, ror #8
    4034:	e02c769c 	mla	ip, ip, r6, r7
    4038:	e0217691 	mla	r1, r1, r6, r7
    403c:	e6ccc47c 	uxtab16	ip, ip, ip, ror #8
    4040:	e6c11471 	uxtab16	r1, r1, r1, ror #8
    4044:	e1a0c46c 	ror	ip, ip, #8
    4048:	e68c1fb1 	sel	r1, ip, r1
    404c:	e045ec21 	sub	lr, r5, r1, lsr #24
    4050:	e6cfc07a 	uxtb16	ip, sl
    4054:	e6cfa47a 	uxtb16	sl, sl, ror #8
    4058:	e02c7e9c 	mla	ip, ip, lr, r7
    405c:	e02a7e9a 	mla	sl, sl, lr, r7
    4060:	e6ccc47c 	uxtab16	ip, ip, ip, ror #8
    4064:	e6caa47a 	uxtab16	sl, sl, sl, ror #8
    4068:	e1a0c46c 	ror	ip, ip, #8
    406c:	e68cafba 	sel	sl, ip, sl
    4070:	e66aaf91 	uqadd8	sl, sl, r1
    4074:	e6cfc073 	uxtb16	ip, r3
    4078:	e6cf3473 	uxtb16	r3, r3, ror #8
    407c:	e02c769c 	mla	ip, ip, r6, r7
    4080:	e0237693 	mla	r3, r3, r6, r7
    4084:	e6ccc47c 	uxtab16	ip, ip, ip, ror #8
    4088:	e6c33473 	uxtab16	r3, r3, r3, ror #8
    408c:	e1a0c46c 	ror	ip, ip, #8
    4090:	e68c3fb3 	sel	r3, ip, r3
    4094:	e045ec23 	sub	lr, r5, r3, lsr #24
    4098:	e6cfc07b 	uxtb16	ip, fp
    409c:	e6cfb47b 	uxtb16	fp, fp, ror #8
    40a0:	e02c7e9c 	mla	ip, ip, lr, r7
    40a4:	e02b7e9b 	mla	fp, fp, lr, r7
    40a8:	e6ccc47c 	uxtab16	ip, ip, ip, ror #8
    40ac:	e6cbb47b 	uxtab16	fp, fp, fp, ror #8
    40b0:	e1a0c46c 	ror	ip, ip, #8
    40b4:	e68cbfbb 	sel	fp, ip, fp
    40b8:	e66bbf93 	uqadd8	fp, fp, r3
    40bc:	e9020f00 	stmdb	r2, {r8, r9, sl, fp}
    40c0:	e1b0cf80 	lsls	ip, r0, #31
    40c4:	3a00002a 	bcc	4174 <LINE_SAVED_REGS+0xea>
    40c8:	e8b4000a 	ldm	r4!, {r1, r3}
    40cc:	e8b20300 	ldm	r2!, {r8, r9}
    40d0:	e3310000 	teq	r1, #0
    40d4:	03330000 	teqeq	r3, #0
    40d8:	0a000025 	beq	4174 <LINE_SAVED_REGS+0xea>
    40dc:	e3a050ff 	mov	r5, #255	; 0xff
    40e0:	e6cfc071 	uxtb16	ip, r1
    40e4:	e6cf1471 	uxtb16	r1, r1, ror #8
    40e8:	e02c769c 	mla	ip, ip, r6, r7
    40ec:	e0217691 	mla	r1, r1, r6, r7
    40f0:	e6ccc47c 	uxtab16	ip, ip, ip, ror #8
    40f4:	e6c11471 	uxtab16	r1, r1, r1, ror #8
    40f8:	e1a0c46c 	ror	ip, ip, #8
    40fc:	e68c1fb1 	sel	r1, ip, r1
    4100:	e045ec21 	sub	lr, r5, r1, lsr #24
    4104:	e6cfc078 	uxtb16	ip, r8
    4108:	e6cf8478 	uxtb16	r8, r8, ror #8
    410c:	e02c7e9c 	mla	ip, ip, lr, r7
    4110:	e0287e98 	mla	r8, r8, lr, r7
    4114:	e6ccc47c 	uxtab16	ip, ip, ip, ror #8
    4118:	e6c88478 	uxtab16	r8, r8, r8, ror #8
    411c:	e1a0c46c 	ror	ip, ip, #8
    4120:	e68c8fb8 	sel	r8, ip, r8
    4124:	e6688f91 	uqadd8	r8, r8, r1
    4128:	e6cfc073 	uxtb16	ip, r3
    412c:	e6cf3473 	uxtb16	r3, r3, ror #8
    4130:	e02c769c 	mla	ip, ip, r6, r7
    4134:	e0237693 	mla	r3, r3, r6, r7
    4138:	e6ccc47c 	uxtab16	ip, ip, ip, ror #8
    413c:	e6c33473 	uxtab16	r3, r3, r3, ror #8
    4140:	e1a0c46c 	ror	ip, ip, #8
    4144:	e68c3fb3 	sel	r3, ip, r3
    4148:	e045ec23 	sub	lr, r5, r3, lsr #24
    414c:	e6cfc079 	uxtb16	ip, r9
    4150:	e6cf9479 	uxtb16	r9, r9, ror #8
    4154:	e02c7e9c 	mla	ip, ip, lr, r7
    4158:	e0297e99 	mla	r9, r9, lr, r7
    415c:	e6ccc47c 	uxtab16	ip, ip, ip, ror #8
    4160:	e6c99479 	uxtab16	r9, r9, r9, ror #8
    4164:	e1a0c46c 	ror	ip, ip, #8
    4168:	e68c9fb9 	sel	r9, ip, r9
    416c:	e6699f93 	uqadd8	r9, r9, r3
    4170:	e9020300 	stmdb	r2, {r8, r9}
    4174:	e1b0cf80 	lsls	ip, r0, #31
    4178:	5a000017 	bpl	41dc <LINE_SAVED_REGS+0x152>
    417c:	e4941004 	ldr	r1, [r4], #4
    4180:	e492a004 	ldr	sl, [r2], #4
    4184:	e3310000 	teq	r1, #0
    4188:	0a000013 	beq	41dc <LINE_SAVED_REGS+0x152>
    418c:	e3a050ff 	mov	r5, #255	; 0xff
    4190:	e6cfc071 	uxtb16	ip, r1
    4194:	e6cf1471 	uxtb16	r1, r1, ror #8
    4198:	e02c769c 	mla	ip, ip, r6, r7
    419c:	e0217691 	mla	r1, r1, r6, r7
    41a0:	e6ccc47c 	uxtab16	ip, ip, ip, ror #8
    41a4:	e6c11471 	uxtab16	r1, r1, r1, ror #8
    41a8:	e1a0c46c 	ror	ip, ip, #8
    41ac:	e68c1fb1 	sel	r1, ip, r1
    41b0:	e045ec21 	sub	lr, r5, r1, lsr #24
    41b4:	e6cfc07a 	uxtb16	ip, sl
    41b8:	e6cfa47a 	uxtb16	sl, sl, ror #8
    41bc:	e02c7e9c 	mla	ip, ip, lr, r7
    41c0:	e02a7e9a 	mla	sl, sl, lr, r7
    41c4:	e6ccc47c 	uxtab16	ip, ip, ip, ror #8
    41c8:	e6caa47a 	uxtab16	sl, sl, sl, ror #8
    41cc:	e1a0c46c 	ror	ip, ip, #8
    41d0:	e68cafba 	sel	sl, ip, sl
    41d4:	e66aaf91 	uqadd8	sl, sl, r1
    41d8:	e502a004 	str	sl, [r2, #-4]
    41dc:	e89d402a 	ldm	sp, {r1, r3, r5, lr}
    41e0:	e2511001 	subs	r1, r1, #1
    41e4:	e58d1000 	str	r1, [sp]
    41e8:	e0822003 	add	r2, r2, r3
    41ec:	e0844005 	add	r4, r4, r5
    41f0:	2affff4e 	bcs	3f30 <pixman_composite_over_8888_n_8888_asm_armv6+0xe28>
    41f4:	e28dd010 	add	sp, sp, #16
    41f8:	e8bd8ff0 	pop	{r4, r5, r6, r7, r8, r9, sl, fp, pc}

000041fc <pixman_composite_over_n_8_8888_asm_armv6>:
    41fc:	e92d4ff0 	push	{r4, r5, r6, r7, r8, r9, sl, fp, lr}
    4200:	e2511001 	subs	r1, r1, #1
    4204:	3a000e6b 	bcc	7bb8 <pixman_composite_over_n_8_8888_asm_armv6+0x39bc>
    4208:	e59d602c 	ldr	r6, [sp, #44]	; 0x2c
    420c:	e59d7030 	ldr	r7, [sp, #48]	; 0x30
    4210:	e59d4024 	ldr	r4, [sp, #36]	; 0x24
    4214:	e59fc03c 	ldr	ip, [pc, #60]	; 4258 <pixman_composite_over_n_8_8888_asm_armv6+0x5c>
    4218:	e6cf5074 	uxtb16	r5, r4
    421c:	e6cf4474 	uxtb16	r4, r4, ror #8
    4220:	e65ccf9c 	uadd8	ip, ip, ip
    4224:	e1a03103 	lsl	r3, r3, #2
    4228:	e0433100 	sub	r3, r3, r0, lsl #2
    422c:	e1a07007 	mov	r7, r7
    4230:	e0477000 	sub	r7, r7, r0
    4234:	e3500007 	cmp	r0, #7
    4238:	3a000d1a 	bcc	76a8 <pixman_composite_over_n_8_8888_asm_armv6+0x34ac>
    423c:	e350009f 	cmp	r0, #159	; 0x9f
    4240:	3a000b7e 	bcc	7040 <pixman_composite_over_n_8_8888_asm_armv6+0x2e44>
    4244:	e2400080 	sub	r0, r0, #128	; 0x80
    4248:	e1a0e000 	mov	lr, r0
    424c:	e92d408a 	push	{r1, r3, r7, lr}
    4250:	e51f3000 	ldr	r3, [pc, #-0]	; 4258 <pixman_composite_over_n_8_8888_asm_armv6+0x5c>
    4254:	ea000000 	b	425c <pixman_composite_over_n_8_8888_asm_armv6+0x60>
    4258:	00800080 	addeq	r0, r0, r0, lsl #1
    425c:	e3c6a01f 	bic	sl, r6, #31
    4260:	f5daf000 	pld	[sl]
    4264:	f5daf020 	pld	[sl, #32]
    4268:	f5daf040 	pld	[sl, #64]	; 0x40
    426c:	e3c2b01f 	bic	fp, r2, #31
    4270:	f5dbf000 	pld	[fp]
    4274:	f5dbf020 	pld	[fp, #32]
    4278:	f5dbf040 	pld	[fp, #64]	; 0x40
    427c:	e312000f 	tst	r2, #15
    4280:	0a00004f 	beq	43c4 <pixman_composite_over_n_8_8888_asm_armv6+0x1c8>
    4284:	e2628000 	rsb	r8, r2, #0
    4288:	e208800f 	and	r8, r8, #15
    428c:	e1a0cd86 	lsl	ip, r6, #27
    4290:	e08ccc88 	add	ip, ip, r8, lsl #25
    4294:	e07ccc88 	rsbs	ip, ip, r8, lsl #25
    4298:	9a000000 	bls	42a0 <pixman_composite_over_n_8_8888_asm_armv6+0xa4>
    429c:	f5daf060 	pld	[sl, #96]	; 0x60
    42a0:	e3120010 	tst	r2, #16
    42a4:	0a000000 	beq	42ac <pixman_composite_over_n_8_8888_asm_armv6+0xb0>
    42a8:	f5dbf060 	pld	[fp, #96]	; 0x60
    42ac:	e1b0ce88 	lsls	ip, r8, #29
    42b0:	5a000017 	bpl	4314 <pixman_composite_over_n_8_8888_asm_armv6+0x118>
    42b4:	e4d67001 	ldrb	r7, [r6], #1
    42b8:	e4929004 	ldr	r9, [r2], #4
    42bc:	e2400001 	sub	r0, r0, #1
    42c0:	e3370000 	teq	r7, #0
    42c4:	0a000012 	beq	4314 <pixman_composite_over_n_8_8888_asm_armv6+0x118>
    42c8:	e6ef1077 	uxtb	r1, r7
    42cc:	e02c3195 	mla	ip, r5, r1, r3
    42d0:	e0213194 	mla	r1, r4, r1, r3
    42d4:	e3a0e0ff 	mov	lr, #255	; 0xff
    42d8:	e6ccc47c 	uxtab16	ip, ip, ip, ror #8
    42dc:	e6c11471 	uxtab16	r1, r1, r1, ror #8
    42e0:	e1a0c46c 	ror	ip, ip, #8
    42e4:	e04eec21 	sub	lr, lr, r1, lsr #24
    42e8:	e68c1fb1 	sel	r1, ip, r1
    42ec:	e6cfc079 	uxtb16	ip, r9
    42f0:	e6cf9479 	uxtb16	r9, r9, ror #8
    42f4:	e02c3e9c 	mla	ip, ip, lr, r3
    42f8:	e0293e99 	mla	r9, r9, lr, r3
    42fc:	e6ccc47c 	uxtab16	ip, ip, ip, ror #8
    4300:	e6c99479 	uxtab16	r9, r9, r9, ror #8
    4304:	e1a0c46c 	ror	ip, ip, #8
    4308:	e68c9fb9 	sel	r9, ip, r9
    430c:	e6699f91 	uqadd8	r9, r9, r1
    4310:	e5029004 	str	r9, [r2, #-4]
    4314:	e1b0ce88 	lsls	ip, r8, #29
    4318:	3a000029 	bcc	43c4 <pixman_composite_over_n_8_8888_asm_armv6+0x1c8>
    431c:	e0d670b2 	ldrh	r7, [r6], #2
    4320:	e8b20c00 	ldm	r2!, {sl, fp}
    4324:	e2400002 	sub	r0, r0, #2
    4328:	e3370000 	teq	r7, #0
    432c:	0a000024 	beq	43c4 <pixman_composite_over_n_8_8888_asm_armv6+0x1c8>
    4330:	e6ef1077 	uxtb	r1, r7
    4334:	e02c3195 	mla	ip, r5, r1, r3
    4338:	e0213194 	mla	r1, r4, r1, r3
    433c:	e3a0e0ff 	mov	lr, #255	; 0xff
    4340:	e6ccc47c 	uxtab16	ip, ip, ip, ror #8
    4344:	e6c11471 	uxtab16	r1, r1, r1, ror #8
    4348:	e1a0c46c 	ror	ip, ip, #8
    434c:	e04eec21 	sub	lr, lr, r1, lsr #24
    4350:	e68c1fb1 	sel	r1, ip, r1
    4354:	e6cfc07a 	uxtb16	ip, sl
    4358:	e6cfa47a 	uxtb16	sl, sl, ror #8
    435c:	e02c3e9c 	mla	ip, ip, lr, r3
    4360:	e02a3e9a 	mla	sl, sl, lr, r3
    4364:	e6ccc47c 	uxtab16	ip, ip, ip, ror #8
    4368:	e6caa47a 	uxtab16	sl, sl, sl, ror #8
    436c:	e1a0c46c 	ror	ip, ip, #8
    4370:	e68cafba 	sel	sl, ip, sl
    4374:	e66aaf91 	uqadd8	sl, sl, r1
    4378:	e6ef1477 	uxtb	r1, r7, ror #8
    437c:	e02c3195 	mla	ip, r5, r1, r3
    4380:	e0213194 	mla	r1, r4, r1, r3
    4384:	e3a0e0ff 	mov	lr, #255	; 0xff
    4388:	e6ccc47c 	uxtab16	ip, ip, ip, ror #8
    438c:	e6c11471 	uxtab16	r1, r1, r1, ror #8
    4390:	e1a0c46c 	ror	ip, ip, #8
    4394:	e04eec21 	sub	lr, lr, r1, lsr #24
    4398:	e68c1fb1 	sel	r1, ip, r1
    439c:	e6cfc07b 	uxtb16	ip, fp
    43a0:	e6cfb47b 	uxtb16	fp, fp, ror #8
    43a4:	e02c3e9c 	mla	ip, ip, lr, r3
    43a8:	e02b3e9b 	mla	fp, fp, lr, r3
    43ac:	e6ccc47c 	uxtab16	ip, ip, ip, ror #8
    43b0:	e6cbb47b 	uxtab16	fp, fp, fp, ror #8
    43b4:	e1a0c46c 	ror	ip, ip, #8
    43b8:	e68cbfbb 	sel	fp, ip, fp
    43bc:	e66bbf91 	uqadd8	fp, fp, r1
    43c0:	e9020c00 	stmdb	r2, {sl, fp}
    43c4:	e3160003 	tst	r6, #3
    43c8:	1a00058a 	bne	59f8 <pixman_composite_over_n_8_8888_asm_armv6+0x17fc>
    43cc:	e3120010 	tst	r2, #16
    43d0:	1a000270 	bne	4d98 <pixman_composite_over_n_8_8888_asm_armv6+0xb9c>
    43d4:	e4967004 	ldr	r7, [r6], #4
    43d8:	e8b20f00 	ldm	r2!, {r8, r9, sl, fp}
    43dc:	f5d2f030 	pld	[r2, #48]	; 0x30
    43e0:	e3370000 	teq	r7, #0
    43e4:	0a000048 	beq	450c <pixman_composite_over_n_8_8888_asm_armv6+0x310>
    43e8:	e6ef1077 	uxtb	r1, r7
    43ec:	e02c3195 	mla	ip, r5, r1, r3
    43f0:	e0213194 	mla	r1, r4, r1, r3
    43f4:	e3a0e0ff 	mov	lr, #255	; 0xff
    43f8:	e6ccc47c 	uxtab16	ip, ip, ip, ror #8
    43fc:	e6c11471 	uxtab16	r1, r1, r1, ror #8
    4400:	e1a0c46c 	ror	ip, ip, #8
    4404:	e04eec21 	sub	lr, lr, r1, lsr #24
    4408:	e68c1fb1 	sel	r1, ip, r1
    440c:	e6cfc078 	uxtb16	ip, r8
    4410:	e6cf8478 	uxtb16	r8, r8, ror #8
    4414:	e02c3e9c 	mla	ip, ip, lr, r3
    4418:	e0283e98 	mla	r8, r8, lr, r3
    441c:	e6ccc47c 	uxtab16	ip, ip, ip, ror #8
    4420:	e6c88478 	uxtab16	r8, r8, r8, ror #8
    4424:	e1a0c46c 	ror	ip, ip, #8
    4428:	e68c8fb8 	sel	r8, ip, r8
    442c:	e6688f91 	uqadd8	r8, r8, r1
    4430:	e6ef1477 	uxtb	r1, r7, ror #8
    4434:	e02c3195 	mla	ip, r5, r1, r3
    4438:	e0213194 	mla	r1, r4, r1, r3
    443c:	e3a0e0ff 	mov	lr, #255	; 0xff
    4440:	e6ccc47c 	uxtab16	ip, ip, ip, ror #8
    4444:	e6c11471 	uxtab16	r1, r1, r1, ror #8
    4448:	e1a0c46c 	ror	ip, ip, #8
    444c:	e04eec21 	sub	lr, lr, r1, lsr #24
    4450:	e68c1fb1 	sel	r1, ip, r1
    4454:	e6cfc079 	uxtb16	ip, r9
    4458:	e6cf9479 	uxtb16	r9, r9, ror #8
    445c:	e02c3e9c 	mla	ip, ip, lr, r3
    4460:	e0293e99 	mla	r9, r9, lr, r3
    4464:	e6ccc47c 	uxtab16	ip, ip, ip, ror #8
    4468:	e6c99479 	uxtab16	r9, r9, r9, ror #8
    446c:	e1a0c46c 	ror	ip, ip, #8
    4470:	e68c9fb9 	sel	r9, ip, r9
    4474:	e6699f91 	uqadd8	r9, r9, r1
    4478:	e6ef1877 	uxtb	r1, r7, ror #16
    447c:	e02c3195 	mla	ip, r5, r1, r3
    4480:	e0213194 	mla	r1, r4, r1, r3
    4484:	e3a0e0ff 	mov	lr, #255	; 0xff
    4488:	e6ccc47c 	uxtab16	ip, ip, ip, ror #8
    448c:	e6c11471 	uxtab16	r1, r1, r1, ror #8
    4490:	e1a0c46c 	ror	ip, ip, #8
    4494:	e04eec21 	sub	lr, lr, r1, lsr #24
    4498:	e68c1fb1 	sel	r1, ip, r1
    449c:	e6cfc07a 	uxtb16	ip, sl
    44a0:	e6cfa47a 	uxtb16	sl, sl, ror #8
    44a4:	e02c3e9c 	mla	ip, ip, lr, r3
    44a8:	e02a3e9a 	mla	sl, sl, lr, r3
    44ac:	e6ccc47c 	uxtab16	ip, ip, ip, ror #8
    44b0:	e6caa47a 	uxtab16	sl, sl, sl, ror #8
    44b4:	e1a0c46c 	ror	ip, ip, #8
    44b8:	e68cafba 	sel	sl, ip, sl
    44bc:	e66aaf91 	uqadd8	sl, sl, r1
    44c0:	e6ef1c77 	uxtb	r1, r7, ror #24
    44c4:	e02c3195 	mla	ip, r5, r1, r3
    44c8:	e0213194 	mla	r1, r4, r1, r3
    44cc:	e3a0e0ff 	mov	lr, #255	; 0xff
    44d0:	e6ccc47c 	uxtab16	ip, ip, ip, ror #8
    44d4:	e6c11471 	uxtab16	r1, r1, r1, ror #8
    44d8:	e1a0c46c 	ror	ip, ip, #8
    44dc:	e04eec21 	sub	lr, lr, r1, lsr #24
    44e0:	e68c1fb1 	sel	r1, ip, r1
    44e4:	e6cfc07b 	uxtb16	ip, fp
    44e8:	e6cfb47b 	uxtb16	fp, fp, ror #8
    44ec:	e02c3e9c 	mla	ip, ip, lr, r3
    44f0:	e02b3e9b 	mla	fp, fp, lr, r3
    44f4:	e6ccc47c 	uxtab16	ip, ip, ip, ror #8
    44f8:	e6cbb47b 	uxtab16	fp, fp, fp, ror #8
    44fc:	e1a0c46c 	ror	ip, ip, #8
    4500:	e68cbfbb 	sel	fp, ip, fp
    4504:	e66bbf91 	uqadd8	fp, fp, r1
    4508:	e9020f00 	stmdb	r2, {r8, r9, sl, fp}
    450c:	e4967004 	ldr	r7, [r6], #4
    4510:	e8b20f00 	ldm	r2!, {r8, r9, sl, fp}
    4514:	e3370000 	teq	r7, #0
    4518:	0a000048 	beq	4640 <pixman_composite_over_n_8_8888_asm_armv6+0x444>
    451c:	e6ef1077 	uxtb	r1, r7
    4520:	e02c3195 	mla	ip, r5, r1, r3
    4524:	e0213194 	mla	r1, r4, r1, r3
    4528:	e3a0e0ff 	mov	lr, #255	; 0xff
    452c:	e6ccc47c 	uxtab16	ip, ip, ip, ror #8
    4530:	e6c11471 	uxtab16	r1, r1, r1, ror #8
    4534:	e1a0c46c 	ror	ip, ip, #8
    4538:	e04eec21 	sub	lr, lr, r1, lsr #24
    453c:	e68c1fb1 	sel	r1, ip, r1
    4540:	e6cfc078 	uxtb16	ip, r8
    4544:	e6cf8478 	uxtb16	r8, r8, ror #8
    4548:	e02c3e9c 	mla	ip, ip, lr, r3
    454c:	e0283e98 	mla	r8, r8, lr, r3
    4550:	e6ccc47c 	uxtab16	ip, ip, ip, ror #8
    4554:	e6c88478 	uxtab16	r8, r8, r8, ror #8
    4558:	e1a0c46c 	ror	ip, ip, #8
    455c:	e68c8fb8 	sel	r8, ip, r8
    4560:	e6688f91 	uqadd8	r8, r8, r1
    4564:	e6ef1477 	uxtb	r1, r7, ror #8
    4568:	e02c3195 	mla	ip, r5, r1, r3
    456c:	e0213194 	mla	r1, r4, r1, r3
    4570:	e3a0e0ff 	mov	lr, #255	; 0xff
    4574:	e6ccc47c 	uxtab16	ip, ip, ip, ror #8
    4578:	e6c11471 	uxtab16	r1, r1, r1, ror #8
    457c:	e1a0c46c 	ror	ip, ip, #8
    4580:	e04eec21 	sub	lr, lr, r1, lsr #24
    4584:	e68c1fb1 	sel	r1, ip, r1
    4588:	e6cfc079 	uxtb16	ip, r9
    458c:	e6cf9479 	uxtb16	r9, r9, ror #8
    4590:	e02c3e9c 	mla	ip, ip, lr, r3
    4594:	e0293e99 	mla	r9, r9, lr, r3
    4598:	e6ccc47c 	uxtab16	ip, ip, ip, ror #8
    459c:	e6c99479 	uxtab16	r9, r9, r9, ror #8
    45a0:	e1a0c46c 	ror	ip, ip, #8
    45a4:	e68c9fb9 	sel	r9, ip, r9
    45a8:	e6699f91 	uqadd8	r9, r9, r1
    45ac:	e6ef1877 	uxtb	r1, r7, ror #16
    45b0:	e02c3195 	mla	ip, r5, r1, r3
    45b4:	e0213194 	mla	r1, r4, r1, r3
    45b8:	e3a0e0ff 	mov	lr, #255	; 0xff
    45bc:	e6ccc47c 	uxtab16	ip, ip, ip, ror #8
    45c0:	e6c11471 	uxtab16	r1, r1, r1, ror #8
    45c4:	e1a0c46c 	ror	ip, ip, #8
    45c8:	e04eec21 	sub	lr, lr, r1, lsr #24
    45cc:	e68c1fb1 	sel	r1, ip, r1
    45d0:	e6cfc07a 	uxtb16	ip, sl
    45d4:	e6cfa47a 	uxtb16	sl, sl, ror #8
    45d8:	e02c3e9c 	mla	ip, ip, lr, r3
    45dc:	e02a3e9a 	mla	sl, sl, lr, r3
    45e0:	e6ccc47c 	uxtab16	ip, ip, ip, ror #8
    45e4:	e6caa47a 	uxtab16	sl, sl, sl, ror #8
    45e8:	e1a0c46c 	ror	ip, ip, #8
    45ec:	e68cafba 	sel	sl, ip, sl
    45f0:	e66aaf91 	uqadd8	sl, sl, r1
    45f4:	e6ef1c77 	uxtb	r1, r7, ror #24
    45f8:	e02c3195 	mla	ip, r5, r1, r3
    45fc:	e0213194 	mla	r1, r4, r1, r3
    4600:	e3a0e0ff 	mov	lr, #255	; 0xff
    4604:	e6ccc47c 	uxtab16	ip, ip, ip, ror #8
    4608:	e6c11471 	uxtab16	r1, r1, r1, ror #8
    460c:	e1a0c46c 	ror	ip, ip, #8
    4610:	e04eec21 	sub	lr, lr, r1, lsr #24
    4614:	e68c1fb1 	sel	r1, ip, r1
    4618:	e6cfc07b 	uxtb16	ip, fp
    461c:	e6cfb47b 	uxtb16	fp, fp, ror #8
    4620:	e02c3e9c 	mla	ip, ip, lr, r3
    4624:	e02b3e9b 	mla	fp, fp, lr, r3
    4628:	e6ccc47c 	uxtab16	ip, ip, ip, ror #8
    462c:	e6cbb47b 	uxtab16	fp, fp, fp, ror #8
    4630:	e1a0c46c 	ror	ip, ip, #8
    4634:	e68cbfbb 	sel	fp, ip, fp
    4638:	e66bbf91 	uqadd8	fp, fp, r1
    463c:	e9020f00 	stmdb	r2, {r8, r9, sl, fp}
    4640:	e4967004 	ldr	r7, [r6], #4
    4644:	e8b20f00 	ldm	r2!, {r8, r9, sl, fp}
    4648:	f5d2f030 	pld	[r2, #48]	; 0x30
    464c:	e3370000 	teq	r7, #0
    4650:	0a000048 	beq	4778 <pixman_composite_over_n_8_8888_asm_armv6+0x57c>
    4654:	e6ef1077 	uxtb	r1, r7
    4658:	e02c3195 	mla	ip, r5, r1, r3
    465c:	e0213194 	mla	r1, r4, r1, r3
    4660:	e3a0e0ff 	mov	lr, #255	; 0xff
    4664:	e6ccc47c 	uxtab16	ip, ip, ip, ror #8
    4668:	e6c11471 	uxtab16	r1, r1, r1, ror #8
    466c:	e1a0c46c 	ror	ip, ip, #8
    4670:	e04eec21 	sub	lr, lr, r1, lsr #24
    4674:	e68c1fb1 	sel	r1, ip, r1
    4678:	e6cfc078 	uxtb16	ip, r8
    467c:	e6cf8478 	uxtb16	r8, r8, ror #8
    4680:	e02c3e9c 	mla	ip, ip, lr, r3
    4684:	e0283e98 	mla	r8, r8, lr, r3
    4688:	e6ccc47c 	uxtab16	ip, ip, ip, ror #8
    468c:	e6c88478 	uxtab16	r8, r8, r8, ror #8
    4690:	e1a0c46c 	ror	ip, ip, #8
    4694:	e68c8fb8 	sel	r8, ip, r8
    4698:	e6688f91 	uqadd8	r8, r8, r1
    469c:	e6ef1477 	uxtb	r1, r7, ror #8
    46a0:	e02c3195 	mla	ip, r5, r1, r3
    46a4:	e0213194 	mla	r1, r4, r1, r3
    46a8:	e3a0e0ff 	mov	lr, #255	; 0xff
    46ac:	e6ccc47c 	uxtab16	ip, ip, ip, ror #8
    46b0:	e6c11471 	uxtab16	r1, r1, r1, ror #8
    46b4:	e1a0c46c 	ror	ip, ip, #8
    46b8:	e04eec21 	sub	lr, lr, r1, lsr #24
    46bc:	e68c1fb1 	sel	r1, ip, r1
    46c0:	e6cfc079 	uxtb16	ip, r9
    46c4:	e6cf9479 	uxtb16	r9, r9, ror #8
    46c8:	e02c3e9c 	mla	ip, ip, lr, r3
    46cc:	e0293e99 	mla	r9, r9, lr, r3
    46d0:	e6ccc47c 	uxtab16	ip, ip, ip, ror #8
    46d4:	e6c99479 	uxtab16	r9, r9, r9, ror #8
    46d8:	e1a0c46c 	ror	ip, ip, #8
    46dc:	e68c9fb9 	sel	r9, ip, r9
    46e0:	e6699f91 	uqadd8	r9, r9, r1
    46e4:	e6ef1877 	uxtb	r1, r7, ror #16
    46e8:	e02c3195 	mla	ip, r5, r1, r3
    46ec:	e0213194 	mla	r1, r4, r1, r3
    46f0:	e3a0e0ff 	mov	lr, #255	; 0xff
    46f4:	e6ccc47c 	uxtab16	ip, ip, ip, ror #8
    46f8:	e6c11471 	uxtab16	r1, r1, r1, ror #8
    46fc:	e1a0c46c 	ror	ip, ip, #8
    4700:	e04eec21 	sub	lr, lr, r1, lsr #24
    4704:	e68c1fb1 	sel	r1, ip, r1
    4708:	e6cfc07a 	uxtb16	ip, sl
    470c:	e6cfa47a 	uxtb16	sl, sl, ror #8
    4710:	e02c3e9c 	mla	ip, ip, lr, r3
    4714:	e02a3e9a 	mla	sl, sl, lr, r3
    4718:	e6ccc47c 	uxtab16	ip, ip, ip, ror #8
    471c:	e6caa47a 	uxtab16	sl, sl, sl, ror #8
    4720:	e1a0c46c 	ror	ip, ip, #8
    4724:	e68cafba 	sel	sl, ip, sl
    4728:	e66aaf91 	uqadd8	sl, sl, r1
    472c:	e6ef1c77 	uxtb	r1, r7, ror #24
    4730:	e02c3195 	mla	ip, r5, r1, r3
    4734:	e0213194 	mla	r1, r4, r1, r3
    4738:	e3a0e0ff 	mov	lr, #255	; 0xff
    473c:	e6ccc47c 	uxtab16	ip, ip, ip, ror #8
    4740:	e6c11471 	uxtab16	r1, r1, r1, ror #8
    4744:	e1a0c46c 	ror	ip, ip, #8
    4748:	e04eec21 	sub	lr, lr, r1, lsr #24
    474c:	e68c1fb1 	sel	r1, ip, r1
    4750:	e6cfc07b 	uxtb16	ip, fp
    4754:	e6cfb47b 	uxtb16	fp, fp, ror #8
    4758:	e02c3e9c 	mla	ip, ip, lr, r3
    475c:	e02b3e9b 	mla	fp, fp, lr, r3
    4760:	e6ccc47c 	uxtab16	ip, ip, ip, ror #8
    4764:	e6cbb47b 	uxtab16	fp, fp, fp, ror #8
    4768:	e1a0c46c 	ror	ip, ip, #8
    476c:	e68cbfbb 	sel	fp, ip, fp
    4770:	e66bbf91 	uqadd8	fp, fp, r1
    4774:	e9020f00 	stmdb	r2, {r8, r9, sl, fp}
    4778:	e4967004 	ldr	r7, [r6], #4
    477c:	e8b20f00 	ldm	r2!, {r8, r9, sl, fp}
    4780:	e3370000 	teq	r7, #0
    4784:	0a000048 	beq	48ac <pixman_composite_over_n_8_8888_asm_armv6+0x6b0>
    4788:	e6ef1077 	uxtb	r1, r7
    478c:	e02c3195 	mla	ip, r5, r1, r3
    4790:	e0213194 	mla	r1, r4, r1, r3
    4794:	e3a0e0ff 	mov	lr, #255	; 0xff
    4798:	e6ccc47c 	uxtab16	ip, ip, ip, ror #8
    479c:	e6c11471 	uxtab16	r1, r1, r1, ror #8
    47a0:	e1a0c46c 	ror	ip, ip, #8
    47a4:	e04eec21 	sub	lr, lr, r1, lsr #24
    47a8:	e68c1fb1 	sel	r1, ip, r1
    47ac:	e6cfc078 	uxtb16	ip, r8
    47b0:	e6cf8478 	uxtb16	r8, r8, ror #8
    47b4:	e02c3e9c 	mla	ip, ip, lr, r3
    47b8:	e0283e98 	mla	r8, r8, lr, r3
    47bc:	e6ccc47c 	uxtab16	ip, ip, ip, ror #8
    47c0:	e6c88478 	uxtab16	r8, r8, r8, ror #8
    47c4:	e1a0c46c 	ror	ip, ip, #8
    47c8:	e68c8fb8 	sel	r8, ip, r8
    47cc:	e6688f91 	uqadd8	r8, r8, r1
    47d0:	e6ef1477 	uxtb	r1, r7, ror #8
    47d4:	e02c3195 	mla	ip, r5, r1, r3
    47d8:	e0213194 	mla	r1, r4, r1, r3
    47dc:	e3a0e0ff 	mov	lr, #255	; 0xff
    47e0:	e6ccc47c 	uxtab16	ip, ip, ip, ror #8
    47e4:	e6c11471 	uxtab16	r1, r1, r1, ror #8
    47e8:	e1a0c46c 	ror	ip, ip, #8
    47ec:	e04eec21 	sub	lr, lr, r1, lsr #24
    47f0:	e68c1fb1 	sel	r1, ip, r1
    47f4:	e6cfc079 	uxtb16	ip, r9
    47f8:	e6cf9479 	uxtb16	r9, r9, ror #8
    47fc:	e02c3e9c 	mla	ip, ip, lr, r3
    4800:	e0293e99 	mla	r9, r9, lr, r3
    4804:	e6ccc47c 	uxtab16	ip, ip, ip, ror #8
    4808:	e6c99479 	uxtab16	r9, r9, r9, ror #8
    480c:	e1a0c46c 	ror	ip, ip, #8
    4810:	e68c9fb9 	sel	r9, ip, r9
    4814:	e6699f91 	uqadd8	r9, r9, r1
    4818:	e6ef1877 	uxtb	r1, r7, ror #16
    481c:	e02c3195 	mla	ip, r5, r1, r3
    4820:	e0213194 	mla	r1, r4, r1, r3
    4824:	e3a0e0ff 	mov	lr, #255	; 0xff
    4828:	e6ccc47c 	uxtab16	ip, ip, ip, ror #8
    482c:	e6c11471 	uxtab16	r1, r1, r1, ror #8
    4830:	e1a0c46c 	ror	ip, ip, #8
    4834:	e04eec21 	sub	lr, lr, r1, lsr #24
    4838:	e68c1fb1 	sel	r1, ip, r1
    483c:	e6cfc07a 	uxtb16	ip, sl
    4840:	e6cfa47a 	uxtb16	sl, sl, ror #8
    4844:	e02c3e9c 	mla	ip, ip, lr, r3
    4848:	e02a3e9a 	mla	sl, sl, lr, r3
    484c:	e6ccc47c 	uxtab16	ip, ip, ip, ror #8
    4850:	e6caa47a 	uxtab16	sl, sl, sl, ror #8
    4854:	e1a0c46c 	ror	ip, ip, #8
    4858:	e68cafba 	sel	sl, ip, sl
    485c:	e66aaf91 	uqadd8	sl, sl, r1
    4860:	e6ef1c77 	uxtb	r1, r7, ror #24
    4864:	e02c3195 	mla	ip, r5, r1, r3
    4868:	e0213194 	mla	r1, r4, r1, r3
    486c:	e3a0e0ff 	mov	lr, #255	; 0xff
    4870:	e6ccc47c 	uxtab16	ip, ip, ip, ror #8
    4874:	e6c11471 	uxtab16	r1, r1, r1, ror #8
    4878:	e1a0c46c 	ror	ip, ip, #8
    487c:	e04eec21 	sub	lr, lr, r1, lsr #24
    4880:	e68c1fb1 	sel	r1, ip, r1
    4884:	e6cfc07b 	uxtb16	ip, fp
    4888:	e6cfb47b 	uxtb16	fp, fp, ror #8
    488c:	e02c3e9c 	mla	ip, ip, lr, r3
    4890:	e02b3e9b 	mla	fp, fp, lr, r3
    4894:	e6ccc47c 	uxtab16	ip, ip, ip, ror #8
    4898:	e6cbb47b 	uxtab16	fp, fp, fp, ror #8
    489c:	e1a0c46c 	ror	ip, ip, #8
    48a0:	e68cbfbb 	sel	fp, ip, fp
    48a4:	e66bbf91 	uqadd8	fp, fp, r1
    48a8:	e9020f00 	stmdb	r2, {r8, r9, sl, fp}
    48ac:	e4967004 	ldr	r7, [r6], #4
    48b0:	e8b20f00 	ldm	r2!, {r8, r9, sl, fp}
    48b4:	f5d2f030 	pld	[r2, #48]	; 0x30
    48b8:	e3370000 	teq	r7, #0
    48bc:	0a000048 	beq	49e4 <pixman_composite_over_n_8_8888_asm_armv6+0x7e8>
    48c0:	e6ef1077 	uxtb	r1, r7
    48c4:	e02c3195 	mla	ip, r5, r1, r3
    48c8:	e0213194 	mla	r1, r4, r1, r3
    48cc:	e3a0e0ff 	mov	lr, #255	; 0xff
    48d0:	e6ccc47c 	uxtab16	ip, ip, ip, ror #8
    48d4:	e6c11471 	uxtab16	r1, r1, r1, ror #8
    48d8:	e1a0c46c 	ror	ip, ip, #8
    48dc:	e04eec21 	sub	lr, lr, r1, lsr #24
    48e0:	e68c1fb1 	sel	r1, ip, r1
    48e4:	e6cfc078 	uxtb16	ip, r8
    48e8:	e6cf8478 	uxtb16	r8, r8, ror #8
    48ec:	e02c3e9c 	mla	ip, ip, lr, r3
    48f0:	e0283e98 	mla	r8, r8, lr, r3
    48f4:	e6ccc47c 	uxtab16	ip, ip, ip, ror #8
    48f8:	e6c88478 	uxtab16	r8, r8, r8, ror #8
    48fc:	e1a0c46c 	ror	ip, ip, #8
    4900:	e68c8fb8 	sel	r8, ip, r8
    4904:	e6688f91 	uqadd8	r8, r8, r1
    4908:	e6ef1477 	uxtb	r1, r7, ror #8
    490c:	e02c3195 	mla	ip, r5, r1, r3
    4910:	e0213194 	mla	r1, r4, r1, r3
    4914:	e3a0e0ff 	mov	lr, #255	; 0xff
    4918:	e6ccc47c 	uxtab16	ip, ip, ip, ror #8
    491c:	e6c11471 	uxtab16	r1, r1, r1, ror #8
    4920:	e1a0c46c 	ror	ip, ip, #8
    4924:	e04eec21 	sub	lr, lr, r1, lsr #24
    4928:	e68c1fb1 	sel	r1, ip, r1
    492c:	e6cfc079 	uxtb16	ip, r9
    4930:	e6cf9479 	uxtb16	r9, r9, ror #8
    4934:	e02c3e9c 	mla	ip, ip, lr, r3
    4938:	e0293e99 	mla	r9, r9, lr, r3
    493c:	e6ccc47c 	uxtab16	ip, ip, ip, ror #8
    4940:	e6c99479 	uxtab16	r9, r9, r9, ror #8
    4944:	e1a0c46c 	ror	ip, ip, #8
    4948:	e68c9fb9 	sel	r9, ip, r9
    494c:	e6699f91 	uqadd8	r9, r9, r1
    4950:	e6ef1877 	uxtb	r1, r7, ror #16
    4954:	e02c3195 	mla	ip, r5, r1, r3
    4958:	e0213194 	mla	r1, r4, r1, r3
    495c:	e3a0e0ff 	mov	lr, #255	; 0xff
    4960:	e6ccc47c 	uxtab16	ip, ip, ip, ror #8
    4964:	e6c11471 	uxtab16	r1, r1, r1, ror #8
    4968:	e1a0c46c 	ror	ip, ip, #8
    496c:	e04eec21 	sub	lr, lr, r1, lsr #24
    4970:	e68c1fb1 	sel	r1, ip, r1
    4974:	e6cfc07a 	uxtb16	ip, sl
    4978:	e6cfa47a 	uxtb16	sl, sl, ror #8
    497c:	e02c3e9c 	mla	ip, ip, lr, r3
    4980:	e02a3e9a 	mla	sl, sl, lr, r3
    4984:	e6ccc47c 	uxtab16	ip, ip, ip, ror #8
    4988:	e6caa47a 	uxtab16	sl, sl, sl, ror #8
    498c:	e1a0c46c 	ror	ip, ip, #8
    4990:	e68cafba 	sel	sl, ip, sl
    4994:	e66aaf91 	uqadd8	sl, sl, r1
    4998:	e6ef1c77 	uxtb	r1, r7, ror #24
    499c:	e02c3195 	mla	ip, r5, r1, r3
    49a0:	e0213194 	mla	r1, r4, r1, r3
    49a4:	e3a0e0ff 	mov	lr, #255	; 0xff
    49a8:	e6ccc47c 	uxtab16	ip, ip, ip, ror #8
    49ac:	e6c11471 	uxtab16	r1, r1, r1, ror #8
    49b0:	e1a0c46c 	ror	ip, ip, #8
    49b4:	e04eec21 	sub	lr, lr, r1, lsr #24
    49b8:	e68c1fb1 	sel	r1, ip, r1
    49bc:	e6cfc07b 	uxtb16	ip, fp
    49c0:	e6cfb47b 	uxtb16	fp, fp, ror #8
    49c4:	e02c3e9c 	mla	ip, ip, lr, r3
    49c8:	e02b3e9b 	mla	fp, fp, lr, r3
    49cc:	e6ccc47c 	uxtab16	ip, ip, ip, ror #8
    49d0:	e6cbb47b 	uxtab16	fp, fp, fp, ror #8
    49d4:	e1a0c46c 	ror	ip, ip, #8
    49d8:	e68cbfbb 	sel	fp, ip, fp
    49dc:	e66bbf91 	uqadd8	fp, fp, r1
    49e0:	e9020f00 	stmdb	r2, {r8, r9, sl, fp}
    49e4:	e4967004 	ldr	r7, [r6], #4
    49e8:	e8b20f00 	ldm	r2!, {r8, r9, sl, fp}
    49ec:	e3370000 	teq	r7, #0
    49f0:	0a000048 	beq	4b18 <pixman_composite_over_n_8_8888_asm_armv6+0x91c>
    49f4:	e6ef1077 	uxtb	r1, r7
    49f8:	e02c3195 	mla	ip, r5, r1, r3
    49fc:	e0213194 	mla	r1, r4, r1, r3
    4a00:	e3a0e0ff 	mov	lr, #255	; 0xff
    4a04:	e6ccc47c 	uxtab16	ip, ip, ip, ror #8
    4a08:	e6c11471 	uxtab16	r1, r1, r1, ror #8
    4a0c:	e1a0c46c 	ror	ip, ip, #8
    4a10:	e04eec21 	sub	lr, lr, r1, lsr #24
    4a14:	e68c1fb1 	sel	r1, ip, r1
    4a18:	e6cfc078 	uxtb16	ip, r8
    4a1c:	e6cf8478 	uxtb16	r8, r8, ror #8
    4a20:	e02c3e9c 	mla	ip, ip, lr, r3
    4a24:	e0283e98 	mla	r8, r8, lr, r3
    4a28:	e6ccc47c 	uxtab16	ip, ip, ip, ror #8
    4a2c:	e6c88478 	uxtab16	r8, r8, r8, ror #8
    4a30:	e1a0c46c 	ror	ip, ip, #8
    4a34:	e68c8fb8 	sel	r8, ip, r8
    4a38:	e6688f91 	uqadd8	r8, r8, r1
    4a3c:	e6ef1477 	uxtb	r1, r7, ror #8
    4a40:	e02c3195 	mla	ip, r5, r1, r3
    4a44:	e0213194 	mla	r1, r4, r1, r3
    4a48:	e3a0e0ff 	mov	lr, #255	; 0xff
    4a4c:	e6ccc47c 	uxtab16	ip, ip, ip, ror #8
    4a50:	e6c11471 	uxtab16	r1, r1, r1, ror #8
    4a54:	e1a0c46c 	ror	ip, ip, #8
    4a58:	e04eec21 	sub	lr, lr, r1, lsr #24
    4a5c:	e68c1fb1 	sel	r1, ip, r1
    4a60:	e6cfc079 	uxtb16	ip, r9
    4a64:	e6cf9479 	uxtb16	r9, r9, ror #8
    4a68:	e02c3e9c 	mla	ip, ip, lr, r3
    4a6c:	e0293e99 	mla	r9, r9, lr, r3
    4a70:	e6ccc47c 	uxtab16	ip, ip, ip, ror #8
    4a74:	e6c99479 	uxtab16	r9, r9, r9, ror #8
    4a78:	e1a0c46c 	ror	ip, ip, #8
    4a7c:	e68c9fb9 	sel	r9, ip, r9
    4a80:	e6699f91 	uqadd8	r9, r9, r1
    4a84:	e6ef1877 	uxtb	r1, r7, ror #16
    4a88:	e02c3195 	mla	ip, r5, r1, r3
    4a8c:	e0213194 	mla	r1, r4, r1, r3
    4a90:	e3a0e0ff 	mov	lr, #255	; 0xff
    4a94:	e6ccc47c 	uxtab16	ip, ip, ip, ror #8
    4a98:	e6c11471 	uxtab16	r1, r1, r1, ror #8
    4a9c:	e1a0c46c 	ror	ip, ip, #8
    4aa0:	e04eec21 	sub	lr, lr, r1, lsr #24
    4aa4:	e68c1fb1 	sel	r1, ip, r1
    4aa8:	e6cfc07a 	uxtb16	ip, sl
    4aac:	e6cfa47a 	uxtb16	sl, sl, ror #8
    4ab0:	e02c3e9c 	mla	ip, ip, lr, r3
    4ab4:	e02a3e9a 	mla	sl, sl, lr, r3
    4ab8:	e6ccc47c 	uxtab16	ip, ip, ip, ror #8
    4abc:	e6caa47a 	uxtab16	sl, sl, sl, ror #8
    4ac0:	e1a0c46c 	ror	ip, ip, #8
    4ac4:	e68cafba 	sel	sl, ip, sl
    4ac8:	e66aaf91 	uqadd8	sl, sl, r1
    4acc:	e6ef1c77 	uxtb	r1, r7, ror #24
    4ad0:	e02c3195 	mla	ip, r5, r1, r3
    4ad4:	e0213194 	mla	r1, r4, r1, r3
    4ad8:	e3a0e0ff 	mov	lr, #255	; 0xff
    4adc:	e6ccc47c 	uxtab16	ip, ip, ip, ror #8
    4ae0:	e6c11471 	uxtab16	r1, r1, r1, ror #8
    4ae4:	e1a0c46c 	ror	ip, ip, #8
    4ae8:	e04eec21 	sub	lr, lr, r1, lsr #24
    4aec:	e68c1fb1 	sel	r1, ip, r1
    4af0:	e6cfc07b 	uxtb16	ip, fp
    4af4:	e6cfb47b 	uxtb16	fp, fp, ror #8
    4af8:	e02c3e9c 	mla	ip, ip, lr, r3
    4afc:	e02b3e9b 	mla	fp, fp, lr, r3
    4b00:	e6ccc47c 	uxtab16	ip, ip, ip, ror #8
    4b04:	e6cbb47b 	uxtab16	fp, fp, fp, ror #8
    4b08:	e1a0c46c 	ror	ip, ip, #8
    4b0c:	e68cbfbb 	sel	fp, ip, fp
    4b10:	e66bbf91 	uqadd8	fp, fp, r1
    4b14:	e9020f00 	stmdb	r2, {r8, r9, sl, fp}
    4b18:	e4967004 	ldr	r7, [r6], #4
    4b1c:	e8b20f00 	ldm	r2!, {r8, r9, sl, fp}
    4b20:	f5d2f030 	pld	[r2, #48]	; 0x30
    4b24:	e3370000 	teq	r7, #0
    4b28:	0a000048 	beq	4c50 <pixman_composite_over_n_8_8888_asm_armv6+0xa54>
    4b2c:	e6ef1077 	uxtb	r1, r7
    4b30:	e02c3195 	mla	ip, r5, r1, r3
    4b34:	e0213194 	mla	r1, r4, r1, r3
    4b38:	e3a0e0ff 	mov	lr, #255	; 0xff
    4b3c:	e6ccc47c 	uxtab16	ip, ip, ip, ror #8
    4b40:	e6c11471 	uxtab16	r1, r1, r1, ror #8
    4b44:	e1a0c46c 	ror	ip, ip, #8
    4b48:	e04eec21 	sub	lr, lr, r1, lsr #24
    4b4c:	e68c1fb1 	sel	r1, ip, r1
    4b50:	e6cfc078 	uxtb16	ip, r8
    4b54:	e6cf8478 	uxtb16	r8, r8, ror #8
    4b58:	e02c3e9c 	mla	ip, ip, lr, r3
    4b5c:	e0283e98 	mla	r8, r8, lr, r3
    4b60:	e6ccc47c 	uxtab16	ip, ip, ip, ror #8
    4b64:	e6c88478 	uxtab16	r8, r8, r8, ror #8
    4b68:	e1a0c46c 	ror	ip, ip, #8
    4b6c:	e68c8fb8 	sel	r8, ip, r8
    4b70:	e6688f91 	uqadd8	r8, r8, r1
    4b74:	e6ef1477 	uxtb	r1, r7, ror #8
    4b78:	e02c3195 	mla	ip, r5, r1, r3
    4b7c:	e0213194 	mla	r1, r4, r1, r3
    4b80:	e3a0e0ff 	mov	lr, #255	; 0xff
    4b84:	e6ccc47c 	uxtab16	ip, ip, ip, ror #8
    4b88:	e6c11471 	uxtab16	r1, r1, r1, ror #8
    4b8c:	e1a0c46c 	ror	ip, ip, #8
    4b90:	e04eec21 	sub	lr, lr, r1, lsr #24
    4b94:	e68c1fb1 	sel	r1, ip, r1
    4b98:	e6cfc079 	uxtb16	ip, r9
    4b9c:	e6cf9479 	uxtb16	r9, r9, ror #8
    4ba0:	e02c3e9c 	mla	ip, ip, lr, r3
    4ba4:	e0293e99 	mla	r9, r9, lr, r3
    4ba8:	e6ccc47c 	uxtab16	ip, ip, ip, ror #8
    4bac:	e6c99479 	uxtab16	r9, r9, r9, ror #8
    4bb0:	e1a0c46c 	ror	ip, ip, #8
    4bb4:	e68c9fb9 	sel	r9, ip, r9
    4bb8:	e6699f91 	uqadd8	r9, r9, r1
    4bbc:	e6ef1877 	uxtb	r1, r7, ror #16
    4bc0:	e02c3195 	mla	ip, r5, r1, r3
    4bc4:	e0213194 	mla	r1, r4, r1, r3
    4bc8:	e3a0e0ff 	mov	lr, #255	; 0xff
    4bcc:	e6ccc47c 	uxtab16	ip, ip, ip, ror #8
    4bd0:	e6c11471 	uxtab16	r1, r1, r1, ror #8
    4bd4:	e1a0c46c 	ror	ip, ip, #8
    4bd8:	e04eec21 	sub	lr, lr, r1, lsr #24
    4bdc:	e68c1fb1 	sel	r1, ip, r1
    4be0:	e6cfc07a 	uxtb16	ip, sl
    4be4:	e6cfa47a 	uxtb16	sl, sl, ror #8
    4be8:	e02c3e9c 	mla	ip, ip, lr, r3
    4bec:	e02a3e9a 	mla	sl, sl, lr, r3
    4bf0:	e6ccc47c 	uxtab16	ip, ip, ip, ror #8
    4bf4:	e6caa47a 	uxtab16	sl, sl, sl, ror #8
    4bf8:	e1a0c46c 	ror	ip, ip, #8
    4bfc:	e68cafba 	sel	sl, ip, sl
    4c00:	e66aaf91 	uqadd8	sl, sl, r1
    4c04:	e6ef1c77 	uxtb	r1, r7, ror #24
    4c08:	e02c3195 	mla	ip, r5, r1, r3
    4c0c:	e0213194 	mla	r1, r4, r1, r3
    4c10:	e3a0e0ff 	mov	lr, #255	; 0xff
    4c14:	e6ccc47c 	uxtab16	ip, ip, ip, ror #8
    4c18:	e6c11471 	uxtab16	r1, r1, r1, ror #8
    4c1c:	e1a0c46c 	ror	ip, ip, #8
    4c20:	e04eec21 	sub	lr, lr, r1, lsr #24
    4c24:	e68c1fb1 	sel	r1, ip, r1
    4c28:	e6cfc07b 	uxtb16	ip, fp
    4c2c:	e6cfb47b 	uxtb16	fp, fp, ror #8
    4c30:	e02c3e9c 	mla	ip, ip, lr, r3
    4c34:	e02b3e9b 	mla	fp, fp, lr, r3
    4c38:	e6ccc47c 	uxtab16	ip, ip, ip, ror #8
    4c3c:	e6cbb47b 	uxtab16	fp, fp, fp, ror #8
    4c40:	e1a0c46c 	ror	ip, ip, #8
    4c44:	e68cbfbb 	sel	fp, ip, fp
    4c48:	e66bbf91 	uqadd8	fp, fp, r1
    4c4c:	e9020f00 	stmdb	r2, {r8, r9, sl, fp}
    4c50:	e4967004 	ldr	r7, [r6], #4
    4c54:	e8b20f00 	ldm	r2!, {r8, r9, sl, fp}
    4c58:	e3c6c01f 	bic	ip, r6, #31
    4c5c:	f5dcf040 	pld	[ip, #64]	; 0x40
    4c60:	e3370000 	teq	r7, #0
    4c64:	0a000048 	beq	4d8c <pixman_composite_over_n_8_8888_asm_armv6+0xb90>
    4c68:	e6ef1077 	uxtb	r1, r7
    4c6c:	e02c3195 	mla	ip, r5, r1, r3
    4c70:	e0213194 	mla	r1, r4, r1, r3
    4c74:	e3a0e0ff 	mov	lr, #255	; 0xff
    4c78:	e6ccc47c 	uxtab16	ip, ip, ip, ror #8
    4c7c:	e6c11471 	uxtab16	r1, r1, r1, ror #8
    4c80:	e1a0c46c 	ror	ip, ip, #8
    4c84:	e04eec21 	sub	lr, lr, r1, lsr #24
    4c88:	e68c1fb1 	sel	r1, ip, r1
    4c8c:	e6cfc078 	uxtb16	ip, r8
    4c90:	e6cf8478 	uxtb16	r8, r8, ror #8
    4c94:	e02c3e9c 	mla	ip, ip, lr, r3
    4c98:	e0283e98 	mla	r8, r8, lr, r3
    4c9c:	e6ccc47c 	uxtab16	ip, ip, ip, ror #8
    4ca0:	e6c88478 	uxtab16	r8, r8, r8, ror #8
    4ca4:	e1a0c46c 	ror	ip, ip, #8
    4ca8:	e68c8fb8 	sel	r8, ip, r8
    4cac:	e6688f91 	uqadd8	r8, r8, r1
    4cb0:	e6ef1477 	uxtb	r1, r7, ror #8
    4cb4:	e02c3195 	mla	ip, r5, r1, r3
    4cb8:	e0213194 	mla	r1, r4, r1, r3
    4cbc:	e3a0e0ff 	mov	lr, #255	; 0xff
    4cc0:	e6ccc47c 	uxtab16	ip, ip, ip, ror #8
    4cc4:	e6c11471 	uxtab16	r1, r1, r1, ror #8
    4cc8:	e1a0c46c 	ror	ip, ip, #8
    4ccc:	e04eec21 	sub	lr, lr, r1, lsr #24
    4cd0:	e68c1fb1 	sel	r1, ip, r1
    4cd4:	e6cfc079 	uxtb16	ip, r9
    4cd8:	e6cf9479 	uxtb16	r9, r9, ror #8
    4cdc:	e02c3e9c 	mla	ip, ip, lr, r3
    4ce0:	e0293e99 	mla	r9, r9, lr, r3
    4ce4:	e6ccc47c 	uxtab16	ip, ip, ip, ror #8
    4ce8:	e6c99479 	uxtab16	r9, r9, r9, ror #8
    4cec:	e1a0c46c 	ror	ip, ip, #8
    4cf0:	e68c9fb9 	sel	r9, ip, r9
    4cf4:	e6699f91 	uqadd8	r9, r9, r1
    4cf8:	e6ef1877 	uxtb	r1, r7, ror #16
    4cfc:	e02c3195 	mla	ip, r5, r1, r3
    4d00:	e0213194 	mla	r1, r4, r1, r3
    4d04:	e3a0e0ff 	mov	lr, #255	; 0xff
    4d08:	e6ccc47c 	uxtab16	ip, ip, ip, ror #8
    4d0c:	e6c11471 	uxtab16	r1, r1, r1, ror #8
    4d10:	e1a0c46c 	ror	ip, ip, #8
    4d14:	e04eec21 	sub	lr, lr, r1, lsr #24
    4d18:	e68c1fb1 	sel	r1, ip, r1
    4d1c:	e6cfc07a 	uxtb16	ip, sl
    4d20:	e6cfa47a 	uxtb16	sl, sl, ror #8
    4d24:	e02c3e9c 	mla	ip, ip, lr, r3
    4d28:	e02a3e9a 	mla	sl, sl, lr, r3
    4d2c:	e6ccc47c 	uxtab16	ip, ip, ip, ror #8
    4d30:	e6caa47a 	uxtab16	sl, sl, sl, ror #8
    4d34:	e1a0c46c 	ror	ip, ip, #8
    4d38:	e68cafba 	sel	sl, ip, sl
    4d3c:	e66aaf91 	uqadd8	sl, sl, r1
    4d40:	e6ef1c77 	uxtb	r1, r7, ror #24
    4d44:	e02c3195 	mla	ip, r5, r1, r3
    4d48:	e0213194 	mla	r1, r4, r1, r3
    4d4c:	e3a0e0ff 	mov	lr, #255	; 0xff
    4d50:	e6ccc47c 	uxtab16	ip, ip, ip, ror #8
    4d54:	e6c11471 	uxtab16	r1, r1, r1, ror #8
    4d58:	e1a0c46c 	ror	ip, ip, #8
    4d5c:	e04eec21 	sub	lr, lr, r1, lsr #24
    4d60:	e68c1fb1 	sel	r1, ip, r1
    4d64:	e6cfc07b 	uxtb16	ip, fp
    4d68:	e6cfb47b 	uxtb16	fp, fp, ror #8
    4d6c:	e02c3e9c 	mla	ip, ip, lr, r3
    4d70:	e02b3e9b 	mla	fp, fp, lr, r3
    4d74:	e6ccc47c 	uxtab16	ip, ip, ip, ror #8
    4d78:	e6cbb47b 	uxtab16	fp, fp, fp, ror #8
    4d7c:	e1a0c46c 	ror	ip, ip, #8
    4d80:	e68cbfbb 	sel	fp, ip, fp
    4d84:	e66bbf91 	uqadd8	fp, fp, r1
    4d88:	e9020f00 	stmdb	r2, {r8, r9, sl, fp}
    4d8c:	e2500020 	subs	r0, r0, #32
    4d90:	2afffd8f 	bcs	43d4 <pixman_composite_over_n_8_8888_asm_armv6+0x1d8>
    4d94:	ea00026f 	b	5758 <pixman_composite_over_n_8_8888_asm_armv6+0x155c>
    4d98:	e4967004 	ldr	r7, [r6], #4
    4d9c:	e8b20f00 	ldm	r2!, {r8, r9, sl, fp}
    4da0:	f5d2f040 	pld	[r2, #64]	; 0x40
    4da4:	e3370000 	teq	r7, #0
    4da8:	0a000048 	beq	4ed0 <pixman_composite_over_n_8_8888_asm_armv6+0xcd4>
    4dac:	e6ef1077 	uxtb	r1, r7
    4db0:	e02c3195 	mla	ip, r5, r1, r3
    4db4:	e0213194 	mla	r1, r4, r1, r3
    4db8:	e3a0e0ff 	mov	lr, #255	; 0xff
    4dbc:	e6ccc47c 	uxtab16	ip, ip, ip, ror #8
    4dc0:	e6c11471 	uxtab16	r1, r1, r1, ror #8
    4dc4:	e1a0c46c 	ror	ip, ip, #8
    4dc8:	e04eec21 	sub	lr, lr, r1, lsr #24
    4dcc:	e68c1fb1 	sel	r1, ip, r1
    4dd0:	e6cfc078 	uxtb16	ip, r8
    4dd4:	e6cf8478 	uxtb16	r8, r8, ror #8
    4dd8:	e02c3e9c 	mla	ip, ip, lr, r3
    4ddc:	e0283e98 	mla	r8, r8, lr, r3
    4de0:	e6ccc47c 	uxtab16	ip, ip, ip, ror #8
    4de4:	e6c88478 	uxtab16	r8, r8, r8, ror #8
    4de8:	e1a0c46c 	ror	ip, ip, #8
    4dec:	e68c8fb8 	sel	r8, ip, r8
    4df0:	e6688f91 	uqadd8	r8, r8, r1
    4df4:	e6ef1477 	uxtb	r1, r7, ror #8
    4df8:	e02c3195 	mla	ip, r5, r1, r3
    4dfc:	e0213194 	mla	r1, r4, r1, r3
    4e00:	e3a0e0ff 	mov	lr, #255	; 0xff
    4e04:	e6ccc47c 	uxtab16	ip, ip, ip, ror #8
    4e08:	e6c11471 	uxtab16	r1, r1, r1, ror #8
    4e0c:	e1a0c46c 	ror	ip, ip, #8
    4e10:	e04eec21 	sub	lr, lr, r1, lsr #24
    4e14:	e68c1fb1 	sel	r1, ip, r1
    4e18:	e6cfc079 	uxtb16	ip, r9
    4e1c:	e6cf9479 	uxtb16	r9, r9, ror #8
    4e20:	e02c3e9c 	mla	ip, ip, lr, r3
    4e24:	e0293e99 	mla	r9, r9, lr, r3
    4e28:	e6ccc47c 	uxtab16	ip, ip, ip, ror #8
    4e2c:	e6c99479 	uxtab16	r9, r9, r9, ror #8
    4e30:	e1a0c46c 	ror	ip, ip, #8
    4e34:	e68c9fb9 	sel	r9, ip, r9
    4e38:	e6699f91 	uqadd8	r9, r9, r1
    4e3c:	e6ef1877 	uxtb	r1, r7, ror #16
    4e40:	e02c3195 	mla	ip, r5, r1, r3
    4e44:	e0213194 	mla	r1, r4, r1, r3
    4e48:	e3a0e0ff 	mov	lr, #255	; 0xff
    4e4c:	e6ccc47c 	uxtab16	ip, ip, ip, ror #8
    4e50:	e6c11471 	uxtab16	r1, r1, r1, ror #8
    4e54:	e1a0c46c 	ror	ip, ip, #8
    4e58:	e04eec21 	sub	lr, lr, r1, lsr #24
    4e5c:	e68c1fb1 	sel	r1, ip, r1
    4e60:	e6cfc07a 	uxtb16	ip, sl
    4e64:	e6cfa47a 	uxtb16	sl, sl, ror #8
    4e68:	e02c3e9c 	mla	ip, ip, lr, r3
    4e6c:	e02a3e9a 	mla	sl, sl, lr, r3
    4e70:	e6ccc47c 	uxtab16	ip, ip, ip, ror #8
    4e74:	e6caa47a 	uxtab16	sl, sl, sl, ror #8
    4e78:	e1a0c46c 	ror	ip, ip, #8
    4e7c:	e68cafba 	sel	sl, ip, sl
    4e80:	e66aaf91 	uqadd8	sl, sl, r1
    4e84:	e6ef1c77 	uxtb	r1, r7, ror #24
    4e88:	e02c3195 	mla	ip, r5, r1, r3
    4e8c:	e0213194 	mla	r1, r4, r1, r3
    4e90:	e3a0e0ff 	mov	lr, #255	; 0xff
    4e94:	e6ccc47c 	uxtab16	ip, ip, ip, ror #8
    4e98:	e6c11471 	uxtab16	r1, r1, r1, ror #8
    4e9c:	e1a0c46c 	ror	ip, ip, #8
    4ea0:	e04eec21 	sub	lr, lr, r1, lsr #24
    4ea4:	e68c1fb1 	sel	r1, ip, r1
    4ea8:	e6cfc07b 	uxtb16	ip, fp
    4eac:	e6cfb47b 	uxtb16	fp, fp, ror #8
    4eb0:	e02c3e9c 	mla	ip, ip, lr, r3
    4eb4:	e02b3e9b 	mla	fp, fp, lr, r3
    4eb8:	e6ccc47c 	uxtab16	ip, ip, ip, ror #8
    4ebc:	e6cbb47b 	uxtab16	fp, fp, fp, ror #8
    4ec0:	e1a0c46c 	ror	ip, ip, #8
    4ec4:	e68cbfbb 	sel	fp, ip, fp
    4ec8:	e66bbf91 	uqadd8	fp, fp, r1
    4ecc:	e9020f00 	stmdb	r2, {r8, r9, sl, fp}
    4ed0:	e4967004 	ldr	r7, [r6], #4
    4ed4:	e8b20f00 	ldm	r2!, {r8, r9, sl, fp}
    4ed8:	e3370000 	teq	r7, #0
    4edc:	0a000048 	beq	5004 <pixman_composite_over_n_8_8888_asm_armv6+0xe08>
    4ee0:	e6ef1077 	uxtb	r1, r7
    4ee4:	e02c3195 	mla	ip, r5, r1, r3
    4ee8:	e0213194 	mla	r1, r4, r1, r3
    4eec:	e3a0e0ff 	mov	lr, #255	; 0xff
    4ef0:	e6ccc47c 	uxtab16	ip, ip, ip, ror #8
    4ef4:	e6c11471 	uxtab16	r1, r1, r1, ror #8
    4ef8:	e1a0c46c 	ror	ip, ip, #8
    4efc:	e04eec21 	sub	lr, lr, r1, lsr #24
    4f00:	e68c1fb1 	sel	r1, ip, r1
    4f04:	e6cfc078 	uxtb16	ip, r8
    4f08:	e6cf8478 	uxtb16	r8, r8, ror #8
    4f0c:	e02c3e9c 	mla	ip, ip, lr, r3
    4f10:	e0283e98 	mla	r8, r8, lr, r3
    4f14:	e6ccc47c 	uxtab16	ip, ip, ip, ror #8
    4f18:	e6c88478 	uxtab16	r8, r8, r8, ror #8
    4f1c:	e1a0c46c 	ror	ip, ip, #8
    4f20:	e68c8fb8 	sel	r8, ip, r8
    4f24:	e6688f91 	uqadd8	r8, r8, r1
    4f28:	e6ef1477 	uxtb	r1, r7, ror #8
    4f2c:	e02c3195 	mla	ip, r5, r1, r3
    4f30:	e0213194 	mla	r1, r4, r1, r3
    4f34:	e3a0e0ff 	mov	lr, #255	; 0xff
    4f38:	e6ccc47c 	uxtab16	ip, ip, ip, ror #8
    4f3c:	e6c11471 	uxtab16	r1, r1, r1, ror #8
    4f40:	e1a0c46c 	ror	ip, ip, #8
    4f44:	e04eec21 	sub	lr, lr, r1, lsr #24
    4f48:	e68c1fb1 	sel	r1, ip, r1
    4f4c:	e6cfc079 	uxtb16	ip, r9
    4f50:	e6cf9479 	uxtb16	r9, r9, ror #8
    4f54:	e02c3e9c 	mla	ip, ip, lr, r3
    4f58:	e0293e99 	mla	r9, r9, lr, r3
    4f5c:	e6ccc47c 	uxtab16	ip, ip, ip, ror #8
    4f60:	e6c99479 	uxtab16	r9, r9, r9, ror #8
    4f64:	e1a0c46c 	ror	ip, ip, #8
    4f68:	e68c9fb9 	sel	r9, ip, r9
    4f6c:	e6699f91 	uqadd8	r9, r9, r1
    4f70:	e6ef1877 	uxtb	r1, r7, ror #16
    4f74:	e02c3195 	mla	ip, r5, r1, r3
    4f78:	e0213194 	mla	r1, r4, r1, r3
    4f7c:	e3a0e0ff 	mov	lr, #255	; 0xff
    4f80:	e6ccc47c 	uxtab16	ip, ip, ip, ror #8
    4f84:	e6c11471 	uxtab16	r1, r1, r1, ror #8
    4f88:	e1a0c46c 	ror	ip, ip, #8
    4f8c:	e04eec21 	sub	lr, lr, r1, lsr #24
    4f90:	e68c1fb1 	sel	r1, ip, r1
    4f94:	e6cfc07a 	uxtb16	ip, sl
    4f98:	e6cfa47a 	uxtb16	sl, sl, ror #8
    4f9c:	e02c3e9c 	mla	ip, ip, lr, r3
    4fa0:	e02a3e9a 	mla	sl, sl, lr, r3
    4fa4:	e6ccc47c 	uxtab16	ip, ip, ip, ror #8
    4fa8:	e6caa47a 	uxtab16	sl, sl, sl, ror #8
    4fac:	e1a0c46c 	ror	ip, ip, #8
    4fb0:	e68cafba 	sel	sl, ip, sl
    4fb4:	e66aaf91 	uqadd8	sl, sl, r1
    4fb8:	e6ef1c77 	uxtb	r1, r7, ror #24
    4fbc:	e02c3195 	mla	ip, r5, r1, r3
    4fc0:	e0213194 	mla	r1, r4, r1, r3
    4fc4:	e3a0e0ff 	mov	lr, #255	; 0xff
    4fc8:	e6ccc47c 	uxtab16	ip, ip, ip, ror #8
    4fcc:	e6c11471 	uxtab16	r1, r1, r1, ror #8
    4fd0:	e1a0c46c 	ror	ip, ip, #8
    4fd4:	e04eec21 	sub	lr, lr, r1, lsr #24
    4fd8:	e68c1fb1 	sel	r1, ip, r1
    4fdc:	e6cfc07b 	uxtb16	ip, fp
    4fe0:	e6cfb47b 	uxtb16	fp, fp, ror #8
    4fe4:	e02c3e9c 	mla	ip, ip, lr, r3
    4fe8:	e02b3e9b 	mla	fp, fp, lr, r3
    4fec:	e6ccc47c 	uxtab16	ip, ip, ip, ror #8
    4ff0:	e6cbb47b 	uxtab16	fp, fp, fp, ror #8
    4ff4:	e1a0c46c 	ror	ip, ip, #8
    4ff8:	e68cbfbb 	sel	fp, ip, fp
    4ffc:	e66bbf91 	uqadd8	fp, fp, r1
    5000:	e9020f00 	stmdb	r2, {r8, r9, sl, fp}
    5004:	e4967004 	ldr	r7, [r6], #4
    5008:	e8b20f00 	ldm	r2!, {r8, r9, sl, fp}
    500c:	f5d2f040 	pld	[r2, #64]	; 0x40
    5010:	e3370000 	teq	r7, #0
    5014:	0a000048 	beq	513c <pixman_composite_over_n_8_8888_asm_armv6+0xf40>
    5018:	e6ef1077 	uxtb	r1, r7
    501c:	e02c3195 	mla	ip, r5, r1, r3
    5020:	e0213194 	mla	r1, r4, r1, r3
    5024:	e3a0e0ff 	mov	lr, #255	; 0xff
    5028:	e6ccc47c 	uxtab16	ip, ip, ip, ror #8
    502c:	e6c11471 	uxtab16	r1, r1, r1, ror #8
    5030:	e1a0c46c 	ror	ip, ip, #8
    5034:	e04eec21 	sub	lr, lr, r1, lsr #24
    5038:	e68c1fb1 	sel	r1, ip, r1
    503c:	e6cfc078 	uxtb16	ip, r8
    5040:	e6cf8478 	uxtb16	r8, r8, ror #8
    5044:	e02c3e9c 	mla	ip, ip, lr, r3
    5048:	e0283e98 	mla	r8, r8, lr, r3
    504c:	e6ccc47c 	uxtab16	ip, ip, ip, ror #8
    5050:	e6c88478 	uxtab16	r8, r8, r8, ror #8
    5054:	e1a0c46c 	ror	ip, ip, #8
    5058:	e68c8fb8 	sel	r8, ip, r8
    505c:	e6688f91 	uqadd8	r8, r8, r1
    5060:	e6ef1477 	uxtb	r1, r7, ror #8
    5064:	e02c3195 	mla	ip, r5, r1, r3
    5068:	e0213194 	mla	r1, r4, r1, r3
    506c:	e3a0e0ff 	mov	lr, #255	; 0xff
    5070:	e6ccc47c 	uxtab16	ip, ip, ip, ror #8
    5074:	e6c11471 	uxtab16	r1, r1, r1, ror #8
    5078:	e1a0c46c 	ror	ip, ip, #8
    507c:	e04eec21 	sub	lr, lr, r1, lsr #24
    5080:	e68c1fb1 	sel	r1, ip, r1
    5084:	e6cfc079 	uxtb16	ip, r9
    5088:	e6cf9479 	uxtb16	r9, r9, ror #8
    508c:	e02c3e9c 	mla	ip, ip, lr, r3
    5090:	e0293e99 	mla	r9, r9, lr, r3
    5094:	e6ccc47c 	uxtab16	ip, ip, ip, ror #8
    5098:	e6c99479 	uxtab16	r9, r9, r9, ror #8
    509c:	e1a0c46c 	ror	ip, ip, #8
    50a0:	e68c9fb9 	sel	r9, ip, r9
    50a4:	e6699f91 	uqadd8	r9, r9, r1
    50a8:	e6ef1877 	uxtb	r1, r7, ror #16
    50ac:	e02c3195 	mla	ip, r5, r1, r3
    50b0:	e0213194 	mla	r1, r4, r1, r3
    50b4:	e3a0e0ff 	mov	lr, #255	; 0xff
    50b8:	e6ccc47c 	uxtab16	ip, ip, ip, ror #8
    50bc:	e6c11471 	uxtab16	r1, r1, r1, ror #8
    50c0:	e1a0c46c 	ror	ip, ip, #8
    50c4:	e04eec21 	sub	lr, lr, r1, lsr #24
    50c8:	e68c1fb1 	sel	r1, ip, r1
    50cc:	e6cfc07a 	uxtb16	ip, sl
    50d0:	e6cfa47a 	uxtb16	sl, sl, ror #8
    50d4:	e02c3e9c 	mla	ip, ip, lr, r3
    50d8:	e02a3e9a 	mla	sl, sl, lr, r3
    50dc:	e6ccc47c 	uxtab16	ip, ip, ip, ror #8
    50e0:	e6caa47a 	uxtab16	sl, sl, sl, ror #8
    50e4:	e1a0c46c 	ror	ip, ip, #8
    50e8:	e68cafba 	sel	sl, ip, sl
    50ec:	e66aaf91 	uqadd8	sl, sl, r1
    50f0:	e6ef1c77 	uxtb	r1, r7, ror #24
    50f4:	e02c3195 	mla	ip, r5, r1, r3
    50f8:	e0213194 	mla	r1, r4, r1, r3
    50fc:	e3a0e0ff 	mov	lr, #255	; 0xff
    5100:	e6ccc47c 	uxtab16	ip, ip, ip, ror #8
    5104:	e6c11471 	uxtab16	r1, r1, r1, ror #8
    5108:	e1a0c46c 	ror	ip, ip, #8
    510c:	e04eec21 	sub	lr, lr, r1, lsr #24
    5110:	e68c1fb1 	sel	r1, ip, r1
    5114:	e6cfc07b 	uxtb16	ip, fp
    5118:	e6cfb47b 	uxtb16	fp, fp, ror #8
    511c:	e02c3e9c 	mla	ip, ip, lr, r3
    5120:	e02b3e9b 	mla	fp, fp, lr, r3
    5124:	e6ccc47c 	uxtab16	ip, ip, ip, ror #8
    5128:	e6cbb47b 	uxtab16	fp, fp, fp, ror #8
    512c:	e1a0c46c 	ror	ip, ip, #8
    5130:	e68cbfbb 	sel	fp, ip, fp
    5134:	e66bbf91 	uqadd8	fp, fp, r1
    5138:	e9020f00 	stmdb	r2, {r8, r9, sl, fp}
    513c:	e4967004 	ldr	r7, [r6], #4
    5140:	e8b20f00 	ldm	r2!, {r8, r9, sl, fp}
    5144:	e3370000 	teq	r7, #0
    5148:	0a000048 	beq	5270 <pixman_composite_over_n_8_8888_asm_armv6+0x1074>
    514c:	e6ef1077 	uxtb	r1, r7
    5150:	e02c3195 	mla	ip, r5, r1, r3
    5154:	e0213194 	mla	r1, r4, r1, r3
    5158:	e3a0e0ff 	mov	lr, #255	; 0xff
    515c:	e6ccc47c 	uxtab16	ip, ip, ip, ror #8
    5160:	e6c11471 	uxtab16	r1, r1, r1, ror #8
    5164:	e1a0c46c 	ror	ip, ip, #8
    5168:	e04eec21 	sub	lr, lr, r1, lsr #24
    516c:	e68c1fb1 	sel	r1, ip, r1
    5170:	e6cfc078 	uxtb16	ip, r8
    5174:	e6cf8478 	uxtb16	r8, r8, ror #8
    5178:	e02c3e9c 	mla	ip, ip, lr, r3
    517c:	e0283e98 	mla	r8, r8, lr, r3
    5180:	e6ccc47c 	uxtab16	ip, ip, ip, ror #8
    5184:	e6c88478 	uxtab16	r8, r8, r8, ror #8
    5188:	e1a0c46c 	ror	ip, ip, #8
    518c:	e68c8fb8 	sel	r8, ip, r8
    5190:	e6688f91 	uqadd8	r8, r8, r1
    5194:	e6ef1477 	uxtb	r1, r7, ror #8
    5198:	e02c3195 	mla	ip, r5, r1, r3
    519c:	e0213194 	mla	r1, r4, r1, r3
    51a0:	e3a0e0ff 	mov	lr, #255	; 0xff
    51a4:	e6ccc47c 	uxtab16	ip, ip, ip, ror #8
    51a8:	e6c11471 	uxtab16	r1, r1, r1, ror #8
    51ac:	e1a0c46c 	ror	ip, ip, #8
    51b0:	e04eec21 	sub	lr, lr, r1, lsr #24
    51b4:	e68c1fb1 	sel	r1, ip, r1
    51b8:	e6cfc079 	uxtb16	ip, r9
    51bc:	e6cf9479 	uxtb16	r9, r9, ror #8
    51c0:	e02c3e9c 	mla	ip, ip, lr, r3
    51c4:	e0293e99 	mla	r9, r9, lr, r3
    51c8:	e6ccc47c 	uxtab16	ip, ip, ip, ror #8
    51cc:	e6c99479 	uxtab16	r9, r9, r9, ror #8
    51d0:	e1a0c46c 	ror	ip, ip, #8
    51d4:	e68c9fb9 	sel	r9, ip, r9
    51d8:	e6699f91 	uqadd8	r9, r9, r1
    51dc:	e6ef1877 	uxtb	r1, r7, ror #16
    51e0:	e02c3195 	mla	ip, r5, r1, r3
    51e4:	e0213194 	mla	r1, r4, r1, r3
    51e8:	e3a0e0ff 	mov	lr, #255	; 0xff
    51ec:	e6ccc47c 	uxtab16	ip, ip, ip, ror #8
    51f0:	e6c11471 	uxtab16	r1, r1, r1, ror #8
    51f4:	e1a0c46c 	ror	ip, ip, #8
    51f8:	e04eec21 	sub	lr, lr, r1, lsr #24
    51fc:	e68c1fb1 	sel	r1, ip, r1
    5200:	e6cfc07a 	uxtb16	ip, sl
    5204:	e6cfa47a 	uxtb16	sl, sl, ror #8
    5208:	e02c3e9c 	mla	ip, ip, lr, r3
    520c:	e02a3e9a 	mla	sl, sl, lr, r3
    5210:	e6ccc47c 	uxtab16	ip, ip, ip, ror #8
    5214:	e6caa47a 	uxtab16	sl, sl, sl, ror #8
    5218:	e1a0c46c 	ror	ip, ip, #8
    521c:	e68cafba 	sel	sl, ip, sl
    5220:	e66aaf91 	uqadd8	sl, sl, r1
    5224:	e6ef1c77 	uxtb	r1, r7, ror #24
    5228:	e02c3195 	mla	ip, r5, r1, r3
    522c:	e0213194 	mla	r1, r4, r1, r3
    5230:	e3a0e0ff 	mov	lr, #255	; 0xff
    5234:	e6ccc47c 	uxtab16	ip, ip, ip, ror #8
    5238:	e6c11471 	uxtab16	r1, r1, r1, ror #8
    523c:	e1a0c46c 	ror	ip, ip, #8
    5240:	e04eec21 	sub	lr, lr, r1, lsr #24
    5244:	e68c1fb1 	sel	r1, ip, r1
    5248:	e6cfc07b 	uxtb16	ip, fp
    524c:	e6cfb47b 	uxtb16	fp, fp, ror #8
    5250:	e02c3e9c 	mla	ip, ip, lr, r3
    5254:	e02b3e9b 	mla	fp, fp, lr, r3
    5258:	e6ccc47c 	uxtab16	ip, ip, ip, ror #8
    525c:	e6cbb47b 	uxtab16	fp, fp, fp, ror #8
    5260:	e1a0c46c 	ror	ip, ip, #8
    5264:	e68cbfbb 	sel	fp, ip, fp
    5268:	e66bbf91 	uqadd8	fp, fp, r1
    526c:	e9020f00 	stmdb	r2, {r8, r9, sl, fp}
    5270:	e4967004 	ldr	r7, [r6], #4
    5274:	e8b20f00 	ldm	r2!, {r8, r9, sl, fp}
    5278:	f5d2f040 	pld	[r2, #64]	; 0x40
    527c:	e3370000 	teq	r7, #0
    5280:	0a000048 	beq	53a8 <pixman_composite_over_n_8_8888_asm_armv6+0x11ac>
    5284:	e6ef1077 	uxtb	r1, r7
    5288:	e02c3195 	mla	ip, r5, r1, r3
    528c:	e0213194 	mla	r1, r4, r1, r3
    5290:	e3a0e0ff 	mov	lr, #255	; 0xff
    5294:	e6ccc47c 	uxtab16	ip, ip, ip, ror #8
    5298:	e6c11471 	uxtab16	r1, r1, r1, ror #8
    529c:	e1a0c46c 	ror	ip, ip, #8
    52a0:	e04eec21 	sub	lr, lr, r1, lsr #24
    52a4:	e68c1fb1 	sel	r1, ip, r1
    52a8:	e6cfc078 	uxtb16	ip, r8
    52ac:	e6cf8478 	uxtb16	r8, r8, ror #8
    52b0:	e02c3e9c 	mla	ip, ip, lr, r3
    52b4:	e0283e98 	mla	r8, r8, lr, r3
    52b8:	e6ccc47c 	uxtab16	ip, ip, ip, ror #8
    52bc:	e6c88478 	uxtab16	r8, r8, r8, ror #8
    52c0:	e1a0c46c 	ror	ip, ip, #8
    52c4:	e68c8fb8 	sel	r8, ip, r8
    52c8:	e6688f91 	uqadd8	r8, r8, r1
    52cc:	e6ef1477 	uxtb	r1, r7, ror #8
    52d0:	e02c3195 	mla	ip, r5, r1, r3
    52d4:	e0213194 	mla	r1, r4, r1, r3
    52d8:	e3a0e0ff 	mov	lr, #255	; 0xff
    52dc:	e6ccc47c 	uxtab16	ip, ip, ip, ror #8
    52e0:	e6c11471 	uxtab16	r1, r1, r1, ror #8
    52e4:	e1a0c46c 	ror	ip, ip, #8
    52e8:	e04eec21 	sub	lr, lr, r1, lsr #24
    52ec:	e68c1fb1 	sel	r1, ip, r1
    52f0:	e6cfc079 	uxtb16	ip, r9
    52f4:	e6cf9479 	uxtb16	r9, r9, ror #8
    52f8:	e02c3e9c 	mla	ip, ip, lr, r3
    52fc:	e0293e99 	mla	r9, r9, lr, r3
    5300:	e6ccc47c 	uxtab16	ip, ip, ip, ror #8
    5304:	e6c99479 	uxtab16	r9, r9, r9, ror #8
    5308:	e1a0c46c 	ror	ip, ip, #8
    530c:	e68c9fb9 	sel	r9, ip, r9
    5310:	e6699f91 	uqadd8	r9, r9, r1
    5314:	e6ef1877 	uxtb	r1, r7, ror #16
    5318:	e02c3195 	mla	ip, r5, r1, r3
    531c:	e0213194 	mla	r1, r4, r1, r3
    5320:	e3a0e0ff 	mov	lr, #255	; 0xff
    5324:	e6ccc47c 	uxtab16	ip, ip, ip, ror #8
    5328:	e6c11471 	uxtab16	r1, r1, r1, ror #8
    532c:	e1a0c46c 	ror	ip, ip, #8
    5330:	e04eec21 	sub	lr, lr, r1, lsr #24
    5334:	e68c1fb1 	sel	r1, ip, r1
    5338:	e6cfc07a 	uxtb16	ip, sl
    533c:	e6cfa47a 	uxtb16	sl, sl, ror #8
    5340:	e02c3e9c 	mla	ip, ip, lr, r3
    5344:	e02a3e9a 	mla	sl, sl, lr, r3
    5348:	e6ccc47c 	uxtab16	ip, ip, ip, ror #8
    534c:	e6caa47a 	uxtab16	sl, sl, sl, ror #8
    5350:	e1a0c46c 	ror	ip, ip, #8
    5354:	e68cafba 	sel	sl, ip, sl
    5358:	e66aaf91 	uqadd8	sl, sl, r1
    535c:	e6ef1c77 	uxtb	r1, r7, ror #24
    5360:	e02c3195 	mla	ip, r5, r1, r3
    5364:	e0213194 	mla	r1, r4, r1, r3
    5368:	e3a0e0ff 	mov	lr, #255	; 0xff
    536c:	e6ccc47c 	uxtab16	ip, ip, ip, ror #8
    5370:	e6c11471 	uxtab16	r1, r1, r1, ror #8
    5374:	e1a0c46c 	ror	ip, ip, #8
    5378:	e04eec21 	sub	lr, lr, r1, lsr #24
    537c:	e68c1fb1 	sel	r1, ip, r1
    5380:	e6cfc07b 	uxtb16	ip, fp
    5384:	e6cfb47b 	uxtb16	fp, fp, ror #8
    5388:	e02c3e9c 	mla	ip, ip, lr, r3
    538c:	e02b3e9b 	mla	fp, fp, lr, r3
    5390:	e6ccc47c 	uxtab16	ip, ip, ip, ror #8
    5394:	e6cbb47b 	uxtab16	fp, fp, fp, ror #8
    5398:	e1a0c46c 	ror	ip, ip, #8
    539c:	e68cbfbb 	sel	fp, ip, fp
    53a0:	e66bbf91 	uqadd8	fp, fp, r1
    53a4:	e9020f00 	stmdb	r2, {r8, r9, sl, fp}
    53a8:	e4967004 	ldr	r7, [r6], #4
    53ac:	e8b20f00 	ldm	r2!, {r8, r9, sl, fp}
    53b0:	e3370000 	teq	r7, #0
    53b4:	0a000048 	beq	54dc <pixman_composite_over_n_8_8888_asm_armv6+0x12e0>
    53b8:	e6ef1077 	uxtb	r1, r7
    53bc:	e02c3195 	mla	ip, r5, r1, r3
    53c0:	e0213194 	mla	r1, r4, r1, r3
    53c4:	e3a0e0ff 	mov	lr, #255	; 0xff
    53c8:	e6ccc47c 	uxtab16	ip, ip, ip, ror #8
    53cc:	e6c11471 	uxtab16	r1, r1, r1, ror #8
    53d0:	e1a0c46c 	ror	ip, ip, #8
    53d4:	e04eec21 	sub	lr, lr, r1, lsr #24
    53d8:	e68c1fb1 	sel	r1, ip, r1
    53dc:	e6cfc078 	uxtb16	ip, r8
    53e0:	e6cf8478 	uxtb16	r8, r8, ror #8
    53e4:	e02c3e9c 	mla	ip, ip, lr, r3
    53e8:	e0283e98 	mla	r8, r8, lr, r3
    53ec:	e6ccc47c 	uxtab16	ip, ip, ip, ror #8
    53f0:	e6c88478 	uxtab16	r8, r8, r8, ror #8
    53f4:	e1a0c46c 	ror	ip, ip, #8
    53f8:	e68c8fb8 	sel	r8, ip, r8
    53fc:	e6688f91 	uqadd8	r8, r8, r1
    5400:	e6ef1477 	uxtb	r1, r7, ror #8
    5404:	e02c3195 	mla	ip, r5, r1, r3
    5408:	e0213194 	mla	r1, r4, r1, r3
    540c:	e3a0e0ff 	mov	lr, #255	; 0xff
    5410:	e6ccc47c 	uxtab16	ip, ip, ip, ror #8
    5414:	e6c11471 	uxtab16	r1, r1, r1, ror #8
    5418:	e1a0c46c 	ror	ip, ip, #8
    541c:	e04eec21 	sub	lr, lr, r1, lsr #24
    5420:	e68c1fb1 	sel	r1, ip, r1
    5424:	e6cfc079 	uxtb16	ip, r9
    5428:	e6cf9479 	uxtb16	r9, r9, ror #8
    542c:	e02c3e9c 	mla	ip, ip, lr, r3
    5430:	e0293e99 	mla	r9, r9, lr, r3
    5434:	e6ccc47c 	uxtab16	ip, ip, ip, ror #8
    5438:	e6c99479 	uxtab16	r9, r9, r9, ror #8
    543c:	e1a0c46c 	ror	ip, ip, #8
    5440:	e68c9fb9 	sel	r9, ip, r9
    5444:	e6699f91 	uqadd8	r9, r9, r1
    5448:	e6ef1877 	uxtb	r1, r7, ror #16
    544c:	e02c3195 	mla	ip, r5, r1, r3
    5450:	e0213194 	mla	r1, r4, r1, r3
    5454:	e3a0e0ff 	mov	lr, #255	; 0xff
    5458:	e6ccc47c 	uxtab16	ip, ip, ip, ror #8
    545c:	e6c11471 	uxtab16	r1, r1, r1, ror #8
    5460:	e1a0c46c 	ror	ip, ip, #8
    5464:	e04eec21 	sub	lr, lr, r1, lsr #24
    5468:	e68c1fb1 	sel	r1, ip, r1
    546c:	e6cfc07a 	uxtb16	ip, sl
    5470:	e6cfa47a 	uxtb16	sl, sl, ror #8
    5474:	e02c3e9c 	mla	ip, ip, lr, r3
    5478:	e02a3e9a 	mla	sl, sl, lr, r3
    547c:	e6ccc47c 	uxtab16	ip, ip, ip, ror #8
    5480:	e6caa47a 	uxtab16	sl, sl, sl, ror #8
    5484:	e1a0c46c 	ror	ip, ip, #8
    5488:	e68cafba 	sel	sl, ip, sl
    548c:	e66aaf91 	uqadd8	sl, sl, r1
    5490:	e6ef1c77 	uxtb	r1, r7, ror #24
    5494:	e02c3195 	mla	ip, r5, r1, r3
    5498:	e0213194 	mla	r1, r4, r1, r3
    549c:	e3a0e0ff 	mov	lr, #255	; 0xff
    54a0:	e6ccc47c 	uxtab16	ip, ip, ip, ror #8
    54a4:	e6c11471 	uxtab16	r1, r1, r1, ror #8
    54a8:	e1a0c46c 	ror	ip, ip, #8
    54ac:	e04eec21 	sub	lr, lr, r1, lsr #24
    54b0:	e68c1fb1 	sel	r1, ip, r1
    54b4:	e6cfc07b 	uxtb16	ip, fp
    54b8:	e6cfb47b 	uxtb16	fp, fp, ror #8
    54bc:	e02c3e9c 	mla	ip, ip, lr, r3
    54c0:	e02b3e9b 	mla	fp, fp, lr, r3
    54c4:	e6ccc47c 	uxtab16	ip, ip, ip, ror #8
    54c8:	e6cbb47b 	uxtab16	fp, fp, fp, ror #8
    54cc:	e1a0c46c 	ror	ip, ip, #8
    54d0:	e68cbfbb 	sel	fp, ip, fp
    54d4:	e66bbf91 	uqadd8	fp, fp, r1
    54d8:	e9020f00 	stmdb	r2, {r8, r9, sl, fp}
    54dc:	e4967004 	ldr	r7, [r6], #4
    54e0:	e8b20f00 	ldm	r2!, {r8, r9, sl, fp}
    54e4:	f5d2f040 	pld	[r2, #64]	; 0x40
    54e8:	e3370000 	teq	r7, #0
    54ec:	0a000048 	beq	5614 <pixman_composite_over_n_8_8888_asm_armv6+0x1418>
    54f0:	e6ef1077 	uxtb	r1, r7
    54f4:	e02c3195 	mla	ip, r5, r1, r3
    54f8:	e0213194 	mla	r1, r4, r1, r3
    54fc:	e3a0e0ff 	mov	lr, #255	; 0xff
    5500:	e6ccc47c 	uxtab16	ip, ip, ip, ror #8
    5504:	e6c11471 	uxtab16	r1, r1, r1, ror #8
    5508:	e1a0c46c 	ror	ip, ip, #8
    550c:	e04eec21 	sub	lr, lr, r1, lsr #24
    5510:	e68c1fb1 	sel	r1, ip, r1
    5514:	e6cfc078 	uxtb16	ip, r8
    5518:	e6cf8478 	uxtb16	r8, r8, ror #8
    551c:	e02c3e9c 	mla	ip, ip, lr, r3
    5520:	e0283e98 	mla	r8, r8, lr, r3
    5524:	e6ccc47c 	uxtab16	ip, ip, ip, ror #8
    5528:	e6c88478 	uxtab16	r8, r8, r8, ror #8
    552c:	e1a0c46c 	ror	ip, ip, #8
    5530:	e68c8fb8 	sel	r8, ip, r8
    5534:	e6688f91 	uqadd8	r8, r8, r1
    5538:	e6ef1477 	uxtb	r1, r7, ror #8
    553c:	e02c3195 	mla	ip, r5, r1, r3
    5540:	e0213194 	mla	r1, r4, r1, r3
    5544:	e3a0e0ff 	mov	lr, #255	; 0xff
    5548:	e6ccc47c 	uxtab16	ip, ip, ip, ror #8
    554c:	e6c11471 	uxtab16	r1, r1, r1, ror #8
    5550:	e1a0c46c 	ror	ip, ip, #8
    5554:	e04eec21 	sub	lr, lr, r1, lsr #24
    5558:	e68c1fb1 	sel	r1, ip, r1
    555c:	e6cfc079 	uxtb16	ip, r9
    5560:	e6cf9479 	uxtb16	r9, r9, ror #8
    5564:	e02c3e9c 	mla	ip, ip, lr, r3
    5568:	e0293e99 	mla	r9, r9, lr, r3
    556c:	e6ccc47c 	uxtab16	ip, ip, ip, ror #8
    5570:	e6c99479 	uxtab16	r9, r9, r9, ror #8
    5574:	e1a0c46c 	ror	ip, ip, #8
    5578:	e68c9fb9 	sel	r9, ip, r9
    557c:	e6699f91 	uqadd8	r9, r9, r1
    5580:	e6ef1877 	uxtb	r1, r7, ror #16
    5584:	e02c3195 	mla	ip, r5, r1, r3
    5588:	e0213194 	mla	r1, r4, r1, r3
    558c:	e3a0e0ff 	mov	lr, #255	; 0xff
    5590:	e6ccc47c 	uxtab16	ip, ip, ip, ror #8
    5594:	e6c11471 	uxtab16	r1, r1, r1, ror #8
    5598:	e1a0c46c 	ror	ip, ip, #8
    559c:	e04eec21 	sub	lr, lr, r1, lsr #24
    55a0:	e68c1fb1 	sel	r1, ip, r1
    55a4:	e6cfc07a 	uxtb16	ip, sl
    55a8:	e6cfa47a 	uxtb16	sl, sl, ror #8
    55ac:	e02c3e9c 	mla	ip, ip, lr, r3
    55b0:	e02a3e9a 	mla	sl, sl, lr, r3
    55b4:	e6ccc47c 	uxtab16	ip, ip, ip, ror #8
    55b8:	e6caa47a 	uxtab16	sl, sl, sl, ror #8
    55bc:	e1a0c46c 	ror	ip, ip, #8
    55c0:	e68cafba 	sel	sl, ip, sl
    55c4:	e66aaf91 	uqadd8	sl, sl, r1
    55c8:	e6ef1c77 	uxtb	r1, r7, ror #24
    55cc:	e02c3195 	mla	ip, r5, r1, r3
    55d0:	e0213194 	mla	r1, r4, r1, r3
    55d4:	e3a0e0ff 	mov	lr, #255	; 0xff
    55d8:	e6ccc47c 	uxtab16	ip, ip, ip, ror #8
    55dc:	e6c11471 	uxtab16	r1, r1, r1, ror #8
    55e0:	e1a0c46c 	ror	ip, ip, #8
    55e4:	e04eec21 	sub	lr, lr, r1, lsr #24
    55e8:	e68c1fb1 	sel	r1, ip, r1
    55ec:	e6cfc07b 	uxtb16	ip, fp
    55f0:	e6cfb47b 	uxtb16	fp, fp, ror #8
    55f4:	e02c3e9c 	mla	ip, ip, lr, r3
    55f8:	e02b3e9b 	mla	fp, fp, lr, r3
    55fc:	e6ccc47c 	uxtab16	ip, ip, ip, ror #8
    5600:	e6cbb47b 	uxtab16	fp, fp, fp, ror #8
    5604:	e1a0c46c 	ror	ip, ip, #8
    5608:	e68cbfbb 	sel	fp, ip, fp
    560c:	e66bbf91 	uqadd8	fp, fp, r1
    5610:	e9020f00 	stmdb	r2, {r8, r9, sl, fp}
    5614:	e4967004 	ldr	r7, [r6], #4
    5618:	e8b20f00 	ldm	r2!, {r8, r9, sl, fp}
    561c:	e3c6c01f 	bic	ip, r6, #31
    5620:	f5dcf040 	pld	[ip, #64]	; 0x40
    5624:	e3370000 	teq	r7, #0
    5628:	0a000048 	beq	5750 <pixman_composite_over_n_8_8888_asm_armv6+0x1554>
    562c:	e6ef1077 	uxtb	r1, r7
    5630:	e02c3195 	mla	ip, r5, r1, r3
    5634:	e0213194 	mla	r1, r4, r1, r3
    5638:	e3a0e0ff 	mov	lr, #255	; 0xff
    563c:	e6ccc47c 	uxtab16	ip, ip, ip, ror #8
    5640:	e6c11471 	uxtab16	r1, r1, r1, ror #8
    5644:	e1a0c46c 	ror	ip, ip, #8
    5648:	e04eec21 	sub	lr, lr, r1, lsr #24
    564c:	e68c1fb1 	sel	r1, ip, r1
    5650:	e6cfc078 	uxtb16	ip, r8
    5654:	e6cf8478 	uxtb16	r8, r8, ror #8
    5658:	e02c3e9c 	mla	ip, ip, lr, r3
    565c:	e0283e98 	mla	r8, r8, lr, r3
    5660:	e6ccc47c 	uxtab16	ip, ip, ip, ror #8
    5664:	e6c88478 	uxtab16	r8, r8, r8, ror #8
    5668:	e1a0c46c 	ror	ip, ip, #8
    566c:	e68c8fb8 	sel	r8, ip, r8
    5670:	e6688f91 	uqadd8	r8, r8, r1
    5674:	e6ef1477 	uxtb	r1, r7, ror #8
    5678:	e02c3195 	mla	ip, r5, r1, r3
    567c:	e0213194 	mla	r1, r4, r1, r3
    5680:	e3a0e0ff 	mov	lr, #255	; 0xff
    5684:	e6ccc47c 	uxtab16	ip, ip, ip, ror #8
    5688:	e6c11471 	uxtab16	r1, r1, r1, ror #8
    568c:	e1a0c46c 	ror	ip, ip, #8
    5690:	e04eec21 	sub	lr, lr, r1, lsr #24
    5694:	e68c1fb1 	sel	r1, ip, r1
    5698:	e6cfc079 	uxtb16	ip, r9
    569c:	e6cf9479 	uxtb16	r9, r9, ror #8
    56a0:	e02c3e9c 	mla	ip, ip, lr, r3
    56a4:	e0293e99 	mla	r9, r9, lr, r3
    56a8:	e6ccc47c 	uxtab16	ip, ip, ip, ror #8
    56ac:	e6c99479 	uxtab16	r9, r9, r9, ror #8
    56b0:	e1a0c46c 	ror	ip, ip, #8
    56b4:	e68c9fb9 	sel	r9, ip, r9
    56b8:	e6699f91 	uqadd8	r9, r9, r1
    56bc:	e6ef1877 	uxtb	r1, r7, ror #16
    56c0:	e02c3195 	mla	ip, r5, r1, r3
    56c4:	e0213194 	mla	r1, r4, r1, r3
    56c8:	e3a0e0ff 	mov	lr, #255	; 0xff
    56cc:	e6ccc47c 	uxtab16	ip, ip, ip, ror #8
    56d0:	e6c11471 	uxtab16	r1, r1, r1, ror #8
    56d4:	e1a0c46c 	ror	ip, ip, #8
    56d8:	e04eec21 	sub	lr, lr, r1, lsr #24
    56dc:	e68c1fb1 	sel	r1, ip, r1
    56e0:	e6cfc07a 	uxtb16	ip, sl
    56e4:	e6cfa47a 	uxtb16	sl, sl, ror #8
    56e8:	e02c3e9c 	mla	ip, ip, lr, r3
    56ec:	e02a3e9a 	mla	sl, sl, lr, r3
    56f0:	e6ccc47c 	uxtab16	ip, ip, ip, ror #8
    56f4:	e6caa47a 	uxtab16	sl, sl, sl, ror #8
    56f8:	e1a0c46c 	ror	ip, ip, #8
    56fc:	e68cafba 	sel	sl, ip, sl
    5700:	e66aaf91 	uqadd8	sl, sl, r1
    5704:	e6ef1c77 	uxtb	r1, r7, ror #24
    5708:	e02c3195 	mla	ip, r5, r1, r3
    570c:	e0213194 	mla	r1, r4, r1, r3
    5710:	e3a0e0ff 	mov	lr, #255	; 0xff
    5714:	e6ccc47c 	uxtab16	ip, ip, ip, ror #8
    5718:	e6c11471 	uxtab16	r1, r1, r1, ror #8
    571c:	e1a0c46c 	ror	ip, ip, #8
    5720:	e04eec21 	sub	lr, lr, r1, lsr #24
    5724:	e68c1fb1 	sel	r1, ip, r1
    5728:	e6cfc07b 	uxtb16	ip, fp
    572c:	e6cfb47b 	uxtb16	fp, fp, ror #8
    5730:	e02c3e9c 	mla	ip, ip, lr, r3
    5734:	e02b3e9b 	mla	fp, fp, lr, r3
    5738:	e6ccc47c 	uxtab16	ip, ip, ip, ror #8
    573c:	e6cbb47b 	uxtab16	fp, fp, fp, ror #8
    5740:	e1a0c46c 	ror	ip, ip, #8
    5744:	e68cbfbb 	sel	fp, ip, fp
    5748:	e66bbf91 	uqadd8	fp, fp, r1
    574c:	e9020f00 	stmdb	r2, {r8, r9, sl, fp}
    5750:	e2500020 	subs	r0, r0, #32
    5754:	2afffd8f 	bcs	4d98 <pixman_composite_over_n_8_8888_asm_armv6+0xb9c>
    5758:	e200801f 	and	r8, r0, #31
    575c:	e1a0cd86 	lsl	ip, r6, #27
    5760:	e09ccd80 	adds	ip, ip, r0, lsl #27
    5764:	02bcc000 	adcseq	ip, ip, #0
    5768:	0a000003 	beq	577c <pixman_composite_over_n_8_8888_asm_armv6+0x1580>
    576c:	e3c6c01f 	bic	ip, r6, #31
    5770:	3a000000 	bcc	5778 <pixman_composite_over_n_8_8888_asm_armv6+0x157c>
    5774:	f5dcf080 	pld	[ip, #128]	; 0x80
    5778:	f5dcf060 	pld	[ip, #96]	; 0x60
    577c:	e202901f 	and	r9, r2, #31
    5780:	e0899108 	add	r9, r9, r8, lsl #2
    5784:	e2899e12 	add	r9, r9, #288	; 0x120
    5788:	e3c2c01f 	bic	ip, r2, #31
    578c:	f5dcf060 	pld	[ip, #96]	; 0x60
    5790:	e28cc020 	add	ip, ip, #32
    5794:	e2599020 	subs	r9, r9, #32
    5798:	8afffffb 	bhi	578c <pixman_composite_over_n_8_8888_asm_armv6+0x1590>
    579c:	e280007c 	add	r0, r0, #124	; 0x7c
    57a0:	e4967004 	ldr	r7, [r6], #4
    57a4:	e8b20f00 	ldm	r2!, {r8, r9, sl, fp}
    57a8:	e3370000 	teq	r7, #0
    57ac:	0a000048 	beq	58d4 <pixman_composite_over_n_8_8888_asm_armv6+0x16d8>
    57b0:	e6ef1077 	uxtb	r1, r7
    57b4:	e02c3195 	mla	ip, r5, r1, r3
    57b8:	e0213194 	mla	r1, r4, r1, r3
    57bc:	e3a0e0ff 	mov	lr, #255	; 0xff
    57c0:	e6ccc47c 	uxtab16	ip, ip, ip, ror #8
    57c4:	e6c11471 	uxtab16	r1, r1, r1, ror #8
    57c8:	e1a0c46c 	ror	ip, ip, #8
    57cc:	e04eec21 	sub	lr, lr, r1, lsr #24
    57d0:	e68c1fb1 	sel	r1, ip, r1
    57d4:	e6cfc078 	uxtb16	ip, r8
    57d8:	e6cf8478 	uxtb16	r8, r8, ror #8
    57dc:	e02c3e9c 	mla	ip, ip, lr, r3
    57e0:	e0283e98 	mla	r8, r8, lr, r3
    57e4:	e6ccc47c 	uxtab16	ip, ip, ip, ror #8
    57e8:	e6c88478 	uxtab16	r8, r8, r8, ror #8
    57ec:	e1a0c46c 	ror	ip, ip, #8
    57f0:	e68c8fb8 	sel	r8, ip, r8
    57f4:	e6688f91 	uqadd8	r8, r8, r1
    57f8:	e6ef1477 	uxtb	r1, r7, ror #8
    57fc:	e02c3195 	mla	ip, r5, r1, r3
    5800:	e0213194 	mla	r1, r4, r1, r3
    5804:	e3a0e0ff 	mov	lr, #255	; 0xff
    5808:	e6ccc47c 	uxtab16	ip, ip, ip, ror #8
    580c:	e6c11471 	uxtab16	r1, r1, r1, ror #8
    5810:	e1a0c46c 	ror	ip, ip, #8
    5814:	e04eec21 	sub	lr, lr, r1, lsr #24
    5818:	e68c1fb1 	sel	r1, ip, r1
    581c:	e6cfc079 	uxtb16	ip, r9
    5820:	e6cf9479 	uxtb16	r9, r9, ror #8
    5824:	e02c3e9c 	mla	ip, ip, lr, r3
    5828:	e0293e99 	mla	r9, r9, lr, r3
    582c:	e6ccc47c 	uxtab16	ip, ip, ip, ror #8
    5830:	e6c99479 	uxtab16	r9, r9, r9, ror #8
    5834:	e1a0c46c 	ror	ip, ip, #8
    5838:	e68c9fb9 	sel	r9, ip, r9
    583c:	e6699f91 	uqadd8	r9, r9, r1
    5840:	e6ef1877 	uxtb	r1, r7, ror #16
    5844:	e02c3195 	mla	ip, r5, r1, r3
    5848:	e0213194 	mla	r1, r4, r1, r3
    584c:	e3a0e0ff 	mov	lr, #255	; 0xff
    5850:	e6ccc47c 	uxtab16	ip, ip, ip, ror #8
    5854:	e6c11471 	uxtab16	r1, r1, r1, ror #8
    5858:	e1a0c46c 	ror	ip, ip, #8
    585c:	e04eec21 	sub	lr, lr, r1, lsr #24
    5860:	e68c1fb1 	sel	r1, ip, r1
    5864:	e6cfc07a 	uxtb16	ip, sl
    5868:	e6cfa47a 	uxtb16	sl, sl, ror #8
    586c:	e02c3e9c 	mla	ip, ip, lr, r3
    5870:	e02a3e9a 	mla	sl, sl, lr, r3
    5874:	e6ccc47c 	uxtab16	ip, ip, ip, ror #8
    5878:	e6caa47a 	uxtab16	sl, sl, sl, ror #8
    587c:	e1a0c46c 	ror	ip, ip, #8
    5880:	e68cafba 	sel	sl, ip, sl
    5884:	e66aaf91 	uqadd8	sl, sl, r1
    5888:	e6ef1c77 	uxtb	r1, r7, ror #24
    588c:	e02c3195 	mla	ip, r5, r1, r3
    5890:	e0213194 	mla	r1, r4, r1, r3
    5894:	e3a0e0ff 	mov	lr, #255	; 0xff
    5898:	e6ccc47c 	uxtab16	ip, ip, ip, ror #8
    589c:	e6c11471 	uxtab16	r1, r1, r1, ror #8
    58a0:	e1a0c46c 	ror	ip, ip, #8
    58a4:	e04eec21 	sub	lr, lr, r1, lsr #24
    58a8:	e68c1fb1 	sel	r1, ip, r1
    58ac:	e6cfc07b 	uxtb16	ip, fp
    58b0:	e6cfb47b 	uxtb16	fp, fp, ror #8
    58b4:	e02c3e9c 	mla	ip, ip, lr, r3
    58b8:	e02b3e9b 	mla	fp, fp, lr, r3
    58bc:	e6ccc47c 	uxtab16	ip, ip, ip, ror #8
    58c0:	e6cbb47b 	uxtab16	fp, fp, fp, ror #8
    58c4:	e1a0c46c 	ror	ip, ip, #8
    58c8:	e68cbfbb 	sel	fp, ip, fp
    58cc:	e66bbf91 	uqadd8	fp, fp, r1
    58d0:	e9020f00 	stmdb	r2, {r8, r9, sl, fp}
    58d4:	e2500004 	subs	r0, r0, #4
    58d8:	2affffb0 	bcs	57a0 <pixman_composite_over_n_8_8888_asm_armv6+0x15a4>
    58dc:	e3100003 	tst	r0, #3
    58e0:	0a0005ce 	beq	7020 <pixman_composite_over_n_8_8888_asm_armv6+0x2e24>
    58e4:	e1b0cf80 	lsls	ip, r0, #31
    58e8:	3a000028 	bcc	5990 <pixman_composite_over_n_8_8888_asm_armv6+0x1794>
    58ec:	e0d670b2 	ldrh	r7, [r6], #2
    58f0:	e8b20300 	ldm	r2!, {r8, r9}
    58f4:	e3370000 	teq	r7, #0
    58f8:	0a000024 	beq	5990 <pixman_composite_over_n_8_8888_asm_armv6+0x1794>
    58fc:	e6ef1077 	uxtb	r1, r7
    5900:	e02c3195 	mla	ip, r5, r1, r3
    5904:	e0213194 	mla	r1, r4, r1, r3
    5908:	e3a0e0ff 	mov	lr, #255	; 0xff
    590c:	e6ccc47c 	uxtab16	ip, ip, ip, ror #8
    5910:	e6c11471 	uxtab16	r1, r1, r1, ror #8
    5914:	e1a0c46c 	ror	ip, ip, #8
    5918:	e04eec21 	sub	lr, lr, r1, lsr #24
    591c:	e68c1fb1 	sel	r1, ip, r1
    5920:	e6cfc078 	uxtb16	ip, r8
    5924:	e6cf8478 	uxtb16	r8, r8, ror #8
    5928:	e02c3e9c 	mla	ip, ip, lr, r3
    592c:	e0283e98 	mla	r8, r8, lr, r3
    5930:	e6ccc47c 	uxtab16	ip, ip, ip, ror #8
    5934:	e6c88478 	uxtab16	r8, r8, r8, ror #8
    5938:	e1a0c46c 	ror	ip, ip, #8
    593c:	e68c8fb8 	sel	r8, ip, r8
    5940:	e6688f91 	uqadd8	r8, r8, r1
    5944:	e6ef1477 	uxtb	r1, r7, ror #8
    5948:	e02c3195 	mla	ip, r5, r1, r3
    594c:	e0213194 	mla	r1, r4, r1, r3
    5950:	e3a0e0ff 	mov	lr, #255	; 0xff
    5954:	e6ccc47c 	uxtab16	ip, ip, ip, ror #8
    5958:	e6c11471 	uxtab16	r1, r1, r1, ror #8
    595c:	e1a0c46c 	ror	ip, ip, #8
    5960:	e04eec21 	sub	lr, lr, r1, lsr #24
    5964:	e68c1fb1 	sel	r1, ip, r1
    5968:	e6cfc079 	uxtb16	ip, r9
    596c:	e6cf9479 	uxtb16	r9, r9, ror #8
    5970:	e02c3e9c 	mla	ip, ip, lr, r3
    5974:	e0293e99 	mla	r9, r9, lr, r3
    5978:	e6ccc47c 	uxtab16	ip, ip, ip, ror #8
    597c:	e6c99479 	uxtab16	r9, r9, r9, ror #8
    5980:	e1a0c46c 	ror	ip, ip, #8
    5984:	e68c9fb9 	sel	r9, ip, r9
    5988:	e6699f91 	uqadd8	r9, r9, r1
    598c:	e9020300 	stmdb	r2, {r8, r9}
    5990:	e1b0cf80 	lsls	ip, r0, #31
    5994:	5a000016 	bpl	59f4 <pixman_composite_over_n_8_8888_asm_armv6+0x17f8>
    5998:	e4d67001 	ldrb	r7, [r6], #1
    599c:	e492a004 	ldr	sl, [r2], #4
    59a0:	e3370000 	teq	r7, #0
    59a4:	0a000012 	beq	59f4 <pixman_composite_over_n_8_8888_asm_armv6+0x17f8>
    59a8:	e6ef1077 	uxtb	r1, r7
    59ac:	e02c3195 	mla	ip, r5, r1, r3
    59b0:	e0213194 	mla	r1, r4, r1, r3
    59b4:	e3a0e0ff 	mov	lr, #255	; 0xff
    59b8:	e6ccc47c 	uxtab16	ip, ip, ip, ror #8
    59bc:	e6c11471 	uxtab16	r1, r1, r1, ror #8
    59c0:	e1a0c46c 	ror	ip, ip, #8
    59c4:	e04eec21 	sub	lr, lr, r1, lsr #24
    59c8:	e68c1fb1 	sel	r1, ip, r1
    59cc:	e6cfc07a 	uxtb16	ip, sl
    59d0:	e6cfa47a 	uxtb16	sl, sl, ror #8
    59d4:	e02c3e9c 	mla	ip, ip, lr, r3
    59d8:	e02a3e9a 	mla	sl, sl, lr, r3
    59dc:	e6ccc47c 	uxtab16	ip, ip, ip, ror #8
    59e0:	e6caa47a 	uxtab16	sl, sl, sl, ror #8
    59e4:	e1a0c46c 	ror	ip, ip, #8
    59e8:	e68cafba 	sel	sl, ip, sl
    59ec:	e66aaf91 	uqadd8	sl, sl, r1
    59f0:	e502a004 	str	sl, [r2, #-4]
    59f4:	ea000589 	b	7020 <pixman_composite_over_n_8_8888_asm_armv6+0x2e24>
    59f8:	e3120010 	tst	r2, #16
    59fc:	1a000270 	bne	63c4 <pixman_composite_over_n_8_8888_asm_armv6+0x21c8>
    5a00:	e4967004 	ldr	r7, [r6], #4
    5a04:	e8b20f00 	ldm	r2!, {r8, r9, sl, fp}
    5a08:	f5d2f030 	pld	[r2, #48]	; 0x30
    5a0c:	e3370000 	teq	r7, #0
    5a10:	0a000048 	beq	5b38 <pixman_composite_over_n_8_8888_asm_armv6+0x193c>
    5a14:	e6ef1077 	uxtb	r1, r7
    5a18:	e02c3195 	mla	ip, r5, r1, r3
    5a1c:	e0213194 	mla	r1, r4, r1, r3
    5a20:	e3a0e0ff 	mov	lr, #255	; 0xff
    5a24:	e6ccc47c 	uxtab16	ip, ip, ip, ror #8
    5a28:	e6c11471 	uxtab16	r1, r1, r1, ror #8
    5a2c:	e1a0c46c 	ror	ip, ip, #8
    5a30:	e04eec21 	sub	lr, lr, r1, lsr #24
    5a34:	e68c1fb1 	sel	r1, ip, r1
    5a38:	e6cfc078 	uxtb16	ip, r8
    5a3c:	e6cf8478 	uxtb16	r8, r8, ror #8
    5a40:	e02c3e9c 	mla	ip, ip, lr, r3
    5a44:	e0283e98 	mla	r8, r8, lr, r3
    5a48:	e6ccc47c 	uxtab16	ip, ip, ip, ror #8
    5a4c:	e6c88478 	uxtab16	r8, r8, r8, ror #8
    5a50:	e1a0c46c 	ror	ip, ip, #8
    5a54:	e68c8fb8 	sel	r8, ip, r8
    5a58:	e6688f91 	uqadd8	r8, r8, r1
    5a5c:	e6ef1477 	uxtb	r1, r7, ror #8
    5a60:	e02c3195 	mla	ip, r5, r1, r3
    5a64:	e0213194 	mla	r1, r4, r1, r3
    5a68:	e3a0e0ff 	mov	lr, #255	; 0xff
    5a6c:	e6ccc47c 	uxtab16	ip, ip, ip, ror #8
    5a70:	e6c11471 	uxtab16	r1, r1, r1, ror #8
    5a74:	e1a0c46c 	ror	ip, ip, #8
    5a78:	e04eec21 	sub	lr, lr, r1, lsr #24
    5a7c:	e68c1fb1 	sel	r1, ip, r1
    5a80:	e6cfc079 	uxtb16	ip, r9
    5a84:	e6cf9479 	uxtb16	r9, r9, ror #8
    5a88:	e02c3e9c 	mla	ip, ip, lr, r3
    5a8c:	e0293e99 	mla	r9, r9, lr, r3
    5a90:	e6ccc47c 	uxtab16	ip, ip, ip, ror #8
    5a94:	e6c99479 	uxtab16	r9, r9, r9, ror #8
    5a98:	e1a0c46c 	ror	ip, ip, #8
    5a9c:	e68c9fb9 	sel	r9, ip, r9
    5aa0:	e6699f91 	uqadd8	r9, r9, r1
    5aa4:	e6ef1877 	uxtb	r1, r7, ror #16
    5aa8:	e02c3195 	mla	ip, r5, r1, r3
    5aac:	e0213194 	mla	r1, r4, r1, r3
    5ab0:	e3a0e0ff 	mov	lr, #255	; 0xff
    5ab4:	e6ccc47c 	uxtab16	ip, ip, ip, ror #8
    5ab8:	e6c11471 	uxtab16	r1, r1, r1, ror #8
    5abc:	e1a0c46c 	ror	ip, ip, #8
    5ac0:	e04eec21 	sub	lr, lr, r1, lsr #24
    5ac4:	e68c1fb1 	sel	r1, ip, r1
    5ac8:	e6cfc07a 	uxtb16	ip, sl
    5acc:	e6cfa47a 	uxtb16	sl, sl, ror #8
    5ad0:	e02c3e9c 	mla	ip, ip, lr, r3
    5ad4:	e02a3e9a 	mla	sl, sl, lr, r3
    5ad8:	e6ccc47c 	uxtab16	ip, ip, ip, ror #8
    5adc:	e6caa47a 	uxtab16	sl, sl, sl, ror #8
    5ae0:	e1a0c46c 	ror	ip, ip, #8
    5ae4:	e68cafba 	sel	sl, ip, sl
    5ae8:	e66aaf91 	uqadd8	sl, sl, r1
    5aec:	e6ef1c77 	uxtb	r1, r7, ror #24
    5af0:	e02c3195 	mla	ip, r5, r1, r3
    5af4:	e0213194 	mla	r1, r4, r1, r3
    5af8:	e3a0e0ff 	mov	lr, #255	; 0xff
    5afc:	e6ccc47c 	uxtab16	ip, ip, ip, ror #8
    5b00:	e6c11471 	uxtab16	r1, r1, r1, ror #8
    5b04:	e1a0c46c 	ror	ip, ip, #8
    5b08:	e04eec21 	sub	lr, lr, r1, lsr #24
    5b0c:	e68c1fb1 	sel	r1, ip, r1
    5b10:	e6cfc07b 	uxtb16	ip, fp
    5b14:	e6cfb47b 	uxtb16	fp, fp, ror #8
    5b18:	e02c3e9c 	mla	ip, ip, lr, r3
    5b1c:	e02b3e9b 	mla	fp, fp, lr, r3
    5b20:	e6ccc47c 	uxtab16	ip, ip, ip, ror #8
    5b24:	e6cbb47b 	uxtab16	fp, fp, fp, ror #8
    5b28:	e1a0c46c 	ror	ip, ip, #8
    5b2c:	e68cbfbb 	sel	fp, ip, fp
    5b30:	e66bbf91 	uqadd8	fp, fp, r1
    5b34:	e9020f00 	stmdb	r2, {r8, r9, sl, fp}
    5b38:	e4967004 	ldr	r7, [r6], #4
    5b3c:	e8b20f00 	ldm	r2!, {r8, r9, sl, fp}
    5b40:	e3370000 	teq	r7, #0
    5b44:	0a000048 	beq	5c6c <pixman_composite_over_n_8_8888_asm_armv6+0x1a70>
    5b48:	e6ef1077 	uxtb	r1, r7
    5b4c:	e02c3195 	mla	ip, r5, r1, r3
    5b50:	e0213194 	mla	r1, r4, r1, r3
    5b54:	e3a0e0ff 	mov	lr, #255	; 0xff
    5b58:	e6ccc47c 	uxtab16	ip, ip, ip, ror #8
    5b5c:	e6c11471 	uxtab16	r1, r1, r1, ror #8
    5b60:	e1a0c46c 	ror	ip, ip, #8
    5b64:	e04eec21 	sub	lr, lr, r1, lsr #24
    5b68:	e68c1fb1 	sel	r1, ip, r1
    5b6c:	e6cfc078 	uxtb16	ip, r8
    5b70:	e6cf8478 	uxtb16	r8, r8, ror #8
    5b74:	e02c3e9c 	mla	ip, ip, lr, r3
    5b78:	e0283e98 	mla	r8, r8, lr, r3
    5b7c:	e6ccc47c 	uxtab16	ip, ip, ip, ror #8
    5b80:	e6c88478 	uxtab16	r8, r8, r8, ror #8
    5b84:	e1a0c46c 	ror	ip, ip, #8
    5b88:	e68c8fb8 	sel	r8, ip, r8
    5b8c:	e6688f91 	uqadd8	r8, r8, r1
    5b90:	e6ef1477 	uxtb	r1, r7, ror #8
    5b94:	e02c3195 	mla	ip, r5, r1, r3
    5b98:	e0213194 	mla	r1, r4, r1, r3
