
pixman-arm-neon-asm.o:     file format elf32-littlearm
pixman-arm-neon-asm.o
architecture: arm, flags 0x00000011:
HAS_RELOC, HAS_SYMS
start address 0x00000000
private flags = 5000000: [Version5 EABI]

Sections:
Idx Name          Size      VMA       LMA       File off  Algn
  0 .text         00011104  00000000  00000000  00000034  2**2
                  CONTENTS, ALLOC, LOAD, RELOC, READONLY, CODE
  1 .data         00000000  00000000  00000000  00011138  2**0
                  CONTENTS, ALLOC, LOAD, DATA
  2 .bss          00000000  00000000  00000000  00011138  2**0
                  ALLOC
  3 .ARM.attributes 0000001a  00000000  00000000  00011138  2**0
                  CONTENTS, READONLY
SYMBOL TABLE:
00000000 l    d  .text	00000000 .text
00000000 l    d  .data	00000000 .data
00000000 l    d  .bss	00000000 .bss
00000000 l       *ABS*	00000000 FLAG_DST_WRITEONLY
00000001 l       *ABS*	00000000 FLAG_DST_READWRITE
00000002 l       *ABS*	00000000 FLAG_DEINTERLEAVE_32BPP
00000028 l       *ABS*	00000000 ARGS_STACK_OFFSET
00000000 l       *ABS*	00000000 PREFETCH_TYPE_NONE
00000001 l       *ABS*	00000000 PREFETCH_TYPE_SIMPLE
00000002 l       *ABS*	00000000 PREFETCH_TYPE_ADVANCED
00000001 l       *ABS*	00000000 RESPECT_STRICT_ALIGNMENT
00000002 l       *ABS*	00000000 PREFETCH_TYPE_DEFAULT
00000040 l       *ABS*	00000000 PREFETCH_DISTANCE_SIMPLE
00000000 l       *ABS*	00000000 PREFETCH_TYPE_CURRENT
00000010 l       *ABS*	00000000 src_bpp
00000008 l       *ABS*	00000000 mask_bpp
00000010 l       *ABS*	00000000 dst_w_bpp
00000008 l       *ABS*	00000000 pixblock_size
0000001c l       *ABS*	00000000 dst_w_basereg
0000000a l       *ABS*	00000000 dst_r_basereg
00000008 l       *ABS*	00000000 src_basereg
0000000f l       *ABS*	00000000 mask_basereg
00000000 l       *ABS*	00000000 regs_shortage
ffffffff l       *ABS*	00000000 mask_bpp_shift
00000000 l       *ABS*	00000000 src_bpp_shift
00000002 l       *ABS*	00000000 dst_bpp_shift
00000010 l       *ABS*	00000000 dst_r_bpp
00000000 l       *ABS*	00000000 DEINTERLEAVE_32BPP_ENABLED
00000000 l       *ABS*	00000000 BILINEAR_FLAG_UNROLL_4
00000001 l       *ABS*	00000000 BILINEAR_FLAG_UNROLL_8
00000002 l       *ABS*	00000000 BILINEAR_FLAG_USE_ALL_NEON_REGS
00000001 l       *ABS*	00000000 have_bilinear_interpolate_four_pixels_8888_8888
00000001 l       *ABS*	00000000 have_bilinear_interpolate_eight_pixels_8888_0565
00000000 l    d  .ARM.attributes	00000000 .ARM.attributes
00000000 g     F .text	00000000 .hidden pixman_composite_over_8888_0565_asm_neon
00000510 g     F .text	00000000 .hidden pixman_composite_over_n_0565_asm_neon
0000098c g     F .text	00000000 .hidden pixman_composite_src_8888_0565_asm_neon
00000c9c g     F .text	00000000 .hidden pixman_composite_src_0565_8888_asm_neon
00000fcc g     F .text	00000000 .hidden pixman_composite_add_8_8_asm_neon
000013dc g     F .text	00000000 .hidden pixman_composite_add_8888_8888_asm_neon
0000169c g     F .text	00000000 .hidden pixman_composite_scanline_add_asm_neon
00001818 g     F .text	00000000 .hidden pixman_composite_scanline_out_reverse_asm_neon
00001b00 g     F .text	00000000 .hidden pixman_composite_over_8888_8888_asm_neon
00001f88 g     F .text	00000000 .hidden pixman_composite_scanline_over_asm_neon
00002298 g     F .text	00000000 .hidden pixman_composite_over_n_8888_asm_neon
000026a0 g     F .text	00000000 .hidden pixman_composite_over_reverse_n_8888_asm_neon
00002aa8 g     F .text	00000000 .hidden pixman_composite_over_8888_8_0565_asm_neon
000031a0 g     F .text	00000000 .hidden pixman_composite_over_n_8_0565_asm_neon
000037f4 g     F .text	00000000 .hidden pixman_composite_over_8888_n_0565_asm_neon
00003e3c g     F .text	00000000 .hidden pixman_composite_src_0565_0565_asm_neon
000040f8 g     F .text	00000000 .hidden pixman_composite_src_n_8_asm_neon
00004318 g     F .text	00000000 .hidden pixman_composite_src_n_0565_asm_neon
000044cc g     F .text	00000000 .hidden pixman_composite_src_n_8888_asm_neon
0000462c g     F .text	00000000 .hidden pixman_composite_src_8888_8888_asm_neon
00004878 g     F .text	00000000 .hidden pixman_composite_src_x888_8888_asm_neon
00004afc g     F .text	00000000 .hidden pixman_composite_src_n_8_8888_asm_neon
00004ee0 g     F .text	00000000 .hidden pixman_composite_src_n_8_8_asm_neon
00005368 g     F .text	00000000 .hidden pixman_composite_over_n_8_8888_asm_neon
00005934 g     F .text	00000000 .hidden pixman_composite_over_n_8_8_asm_neon
00005fcc g     F .text	00000000 .hidden pixman_composite_over_n_8888_8888_ca_asm_neon
000066a0 g     F .text	00000000 .hidden pixman_composite_over_n_8888_0565_ca_asm_neon
00006d9c g     F .text	00000000 .hidden pixman_composite_in_n_8_asm_neon
000071f8 g     F .text	00000000 .hidden pixman_composite_add_n_8_8_asm_neon
00007740 g     F .text	00000000 .hidden pixman_composite_add_8_8_8_asm_neon
00007d44 g     F .text	00000000 .hidden pixman_composite_add_8888_8888_8888_asm_neon
00008270 g     F .text	00000000 .hidden pixman_composite_scanline_add_mask_asm_neon
000085c8 g     F .text	00000000 .hidden pixman_composite_add_8888_8_8888_asm_neon
00008af4 g     F .text	00000000 .hidden pixman_composite_add_n_8_8888_asm_neon
00008f7c g     F .text	00000000 .hidden pixman_composite_add_8888_n_8888_asm_neon
000093f8 g     F .text	00000000 .hidden pixman_composite_scanline_out_reverse_mask_asm_neon
00009838 g     F .text	00000000 .hidden pixman_composite_over_8888_n_8888_asm_neon
00009df8 g     F .text	00000000 .hidden pixman_composite_over_8888_8888_8888_asm_neon
0000a468 g     F .text	00000000 .hidden pixman_composite_scanline_over_mask_asm_neon
0000a8d0 g     F .text	00000000 .hidden pixman_composite_over_8888_8_8888_asm_neon
0000af40 g     F .text	00000000 .hidden pixman_composite_src_0888_0888_asm_neon
0000b0c8 g     F .text	00000000 .hidden pixman_composite_src_0888_8888_rev_asm_neon
0000b2e8 g     F .text	00000000 .hidden pixman_composite_src_0888_0565_rev_asm_neon
0000b550 g     F .text	00000000 .hidden pixman_composite_src_pixbuf_8888_asm_neon
0000b8ec g     F .text	00000000 .hidden pixman_composite_src_rpixbuf_8888_asm_neon
0000bc88 g     F .text	00000000 .hidden pixman_composite_over_0565_8_0565_asm_neon
0000c3a4 g     F .text	00000000 .hidden pixman_composite_over_0565_n_0565_asm_neon
0000ca10 g     F .text	00000000 .hidden pixman_composite_add_0565_8_0565_asm_neon
0000d03c g     F .text	00000000 .hidden pixman_composite_out_reverse_8_0565_asm_neon
0000d528 g     F .text	00000000 .hidden pixman_composite_out_reverse_8_8888_asm_neon
0000d980 g     F .text	00000000 .hidden pixman_scaled_nearest_scanline_8888_8888_OVER_asm_neon
0000dedc g     F .text	00000000 .hidden pixman_scaled_nearest_scanline_8888_0565_OVER_asm_neon
0000e4a0 g     F .text	00000000 .hidden pixman_scaled_nearest_scanline_8888_0565_SRC_asm_neon
0000e8d0 g     F .text	00000000 .hidden pixman_scaled_nearest_scanline_0565_8888_SRC_asm_neon
0000ecec g     F .text	00000000 .hidden pixman_scaled_nearest_scanline_8888_8_0565_OVER_asm_neon
0000f40c g     F .text	00000000 .hidden pixman_scaled_nearest_scanline_0565_8_0565_OVER_asm_neon
0000fb18 g     F .text	00000000 .hidden pixman_scaled_bilinear_scanline_8888_8888_SRC_asm_neon
0000fe9c g     F .text	00000000 .hidden pixman_scaled_bilinear_scanline_8888_0565_SRC_asm_neon
000106b4 g     F .text	00000000 .hidden pixman_scaled_bilinear_scanline_0565_x888_SRC_asm_neon
00010b70 g     F .text	00000000 .hidden pixman_scaled_bilinear_scanline_0565_0565_SRC_asm_neon



Disassembly of section .text:

00000000 <pixman_composite_over_8888_0565_asm_neon>:
       0:	e92d5ff0 	push	{r4, r5, r6, r7, r8, r9, sl, fp, ip, lr}
       4:	e59d4028 	ldr	r4, [sp, #40]	; 0x28
       8:	e3a0a000 	mov	sl, #0
       c:	e59d502c 	ldr	r5, [sp, #44]	; 0x2c
      10:	e1a06002 	mov	r6, r2
      14:	e1a0b004 	mov	fp, r4
      18:	e1a0c006 	mov	ip, r6
      1c:	e1a0e007 	mov	lr, r7
      20:	e1a09201 	lsl	r9, r1, #4
      24:	e249900b 	sub	r9, r9, #11
      28:	e2511001 	subs	r1, r1, #1
      2c:	e1a07000 	mov	r7, r0
      30:	ba000135 	blt	50c <pixman_composite_over_8888_0565_asm_neon+0x50c>
      34:	e3500010 	cmp	r0, #16
      38:	ba0000db 	blt	3ac <pixman_composite_over_8888_0565_asm_neon+0x3ac>
      3c:	e316000f 	tst	r6, #15
      40:	0a000041 	beq	14c <pixman_composite_over_8888_0565_asm_neon+0x14c>
      44:	e3160002 	tst	r6, #2
      48:	0a000003 	beq	5c <pixman_composite_over_8888_0565_asm_neon+0x5c>
      4c:	f4a4088d 	vld1.32	{d0[1]}, [r4]!
      50:	f4a6444d 	vld1.16	{d4[1]}, [r6]!
      54:	e28aa001 	add	sl, sl, #1
      58:	e2400001 	sub	r0, r0, #1
      5c:	e3160004 	tst	r6, #4
      60:	0a000004 	beq	78 <pixman_composite_over_8888_0565_asm_neon+0x78>
      64:	f424178d 	vld1.32	{d1}, [r4]!
      68:	f4a6448d 	vld1.16	{d4[2]}, [r6]!
      6c:	f4a644cd 	vld1.16	{d4[3]}, [r6]!
      70:	e28aa002 	add	sl, sl, #2
      74:	e2400002 	sub	r0, r0, #2
      78:	e3160008 	tst	r6, #8
      7c:	0a000003 	beq	90 <pixman_composite_over_8888_0565_asm_neon+0x90>
      80:	f4242a8d 	vld1.32	{d2-d3}, [r4]!
      84:	f426575d 	vld1.16	{d5}, [r6 :64]!
      88:	e28aa004 	add	sl, sl, #4
      8c:	e2400004 	sub	r0, r0, #4
      90:	f3b20101 	vuzp.8	d0, d1
      94:	f3b22103 	vuzp.8	d2, d3
      98:	f3b21103 	vuzp.8	d1, d3
      9c:	f3b20102 	vuzp.8	d0, d2
      a0:	f2886814 	vshrn.i16	d6, q2, #8
      a4:	f28d7814 	vshrn.i16	d7, q2, #3
      a8:	f3954554 	vsli.16	q2, q2, #5
      ac:	f38b6416 	vsri.8	d6, d6, #5
      b0:	f3b03583 	vmvn	d3, d3
      b4:	f38a7417 	vsri.8	d7, d7, #6
      b8:	f2cee814 	vshrn.i16	d30, q2, #2
      bc:	f3c34c06 	vmull.u8	q10, d3, d6
      c0:	f3c36c07 	vmull.u8	q11, d3, d7
      c4:	f3c38c2e 	vmull.u8	q12, d3, d30
      c8:	f3d8a274 	vrshr.u16	q13, q10, #8
      cc:	f3986276 	vrshr.u16	q3, q11, #8
      d0:	f3d8e278 	vrshr.u16	q15, q12, #8
      d4:	f3c444aa 	vraddhn.i16	d20, q10, q13
      d8:	f3c67486 	vraddhn.i16	d23, q11, q3
      dc:	f3c864ae 	vraddhn.i16	d22, q12, q15
      e0:	e319000f 	tst	r9, #15
      e4:	128aa008 	addne	sl, sl, #8
      e8:	12499001 	subne	r9, r9, #1
      ec:	e15a0007 	cmp	sl, r7
      f0:	f7dbf10a 	pld	[fp, sl, lsl #2]
      f4:	f7dcf08a 	pld	[ip, sl, lsl #1]
      f8:	a04aa007 	subge	sl, sl, r7
      fc:	a2599010 	subsge	r9, r9, #16
     100:	a7fb8105 	ldrbge	r8, [fp, r5, lsl #2]!
     104:	a7fc8083 	ldrbge	r8, [ip, r3, lsl #1]!
     108:	f3420034 	vqadd.u8	d16, d2, d20
     10c:	f3402076 	vqadd.u8	q9, q0, q11
     110:	f3f2c320 	vshll.i8	q14, d16, #8
     114:	f3f20323 	vshll.i8	q8, d19, #8
     118:	f3f22322 	vshll.i8	q9, d18, #8
     11c:	f3dbc470 	vsri.16	q14, q8, #5
     120:	f3d5c472 	vsri.16	q14, q9, #11
     124:	e3120002 	tst	r2, #2
     128:	0a000000 	beq	130 <pixman_composite_over_8888_0565_asm_neon+0x130>
     12c:	f4c2c44d 	vst1.16	{d28[1]}, [r2]!
     130:	e3120004 	tst	r2, #4
     134:	0a000001 	beq	140 <pixman_composite_over_8888_0565_asm_neon+0x140>
     138:	f4c2c48d 	vst1.16	{d28[2]}, [r2]!
     13c:	f4c2c4cd 	vst1.16	{d28[3]}, [r2]!
     140:	e3120008 	tst	r2, #8
     144:	0a000000 	beq	14c <pixman_composite_over_8888_0565_asm_neon+0x14c>
     148:	f442d75d 	vst1.16	{d29}, [r2 :64]!
     14c:	f4264a6d 	vld1.16	{d4-d5}, [r6 :128]!
     150:	f424000d 	vld4.8	{d0-d3}, [r4]!
     154:	e28aa008 	add	sl, sl, #8
     158:	f2886814 	vshrn.i16	d6, q2, #8
     15c:	f28d7814 	vshrn.i16	d7, q2, #3
     160:	f3954554 	vsli.16	q2, q2, #5
     164:	f38b6416 	vsri.8	d6, d6, #5
     168:	f3b03583 	vmvn	d3, d3
     16c:	f38a7417 	vsri.8	d7, d7, #6
     170:	f2cee814 	vshrn.i16	d30, q2, #2
     174:	f3c34c06 	vmull.u8	q10, d3, d6
     178:	f3c36c07 	vmull.u8	q11, d3, d7
     17c:	f3c38c2e 	vmull.u8	q12, d3, d30
     180:	f3d8a274 	vrshr.u16	q13, q10, #8
     184:	f3986276 	vrshr.u16	q3, q11, #8
     188:	f3d8e278 	vrshr.u16	q15, q12, #8
     18c:	f3c444aa 	vraddhn.i16	d20, q10, q13
     190:	f3c67486 	vraddhn.i16	d23, q11, q3
     194:	f3c864ae 	vraddhn.i16	d22, q12, q15
     198:	e319000f 	tst	r9, #15
     19c:	128aa008 	addne	sl, sl, #8
     1a0:	12499001 	subne	r9, r9, #1
     1a4:	e15a0007 	cmp	sl, r7
     1a8:	f7dbf10a 	pld	[fp, sl, lsl #2]
     1ac:	f7dcf08a 	pld	[ip, sl, lsl #1]
     1b0:	a04aa007 	subge	sl, sl, r7
     1b4:	a2599010 	subsge	r9, r9, #16
     1b8:	a7fb8105 	ldrbge	r8, [fp, r5, lsl #2]!
     1bc:	a7fc8083 	ldrbge	r8, [ip, r3, lsl #1]!
     1c0:	e2500010 	subs	r0, r0, #16
     1c4:	ba000026 	blt	264 <pixman_composite_over_8888_0565_asm_neon+0x264>
     1c8:	f3420034 	vqadd.u8	d16, d2, d20
     1cc:	f4264a6d 	vld1.16	{d4-d5}, [r6 :128]!
     1d0:	f3402076 	vqadd.u8	q9, q0, q11
     1d4:	f2886814 	vshrn.i16	d6, q2, #8
     1d8:	f424000d 	vld4.8	{d0-d3}, [r4]!
     1dc:	f28d7814 	vshrn.i16	d7, q2, #3
     1e0:	f3954554 	vsli.16	q2, q2, #5
     1e4:	f3f2c320 	vshll.i8	q14, d16, #8
     1e8:	e28aa008 	add	sl, sl, #8
     1ec:	f3f20323 	vshll.i8	q8, d19, #8
     1f0:	e319000f 	tst	r9, #15
     1f4:	f38b6416 	vsri.8	d6, d6, #5
     1f8:	128aa008 	addne	sl, sl, #8
     1fc:	f3b03583 	vmvn	d3, d3
     200:	12499001 	subne	r9, r9, #1
     204:	f38a7417 	vsri.8	d7, d7, #6
     208:	f2cee814 	vshrn.i16	d30, q2, #2
     20c:	f3c34c06 	vmull.u8	q10, d3, d6
     210:	f7dbf10a 	pld	[fp, sl, lsl #2]
     214:	f3c36c07 	vmull.u8	q11, d3, d7
     218:	f3c38c2e 	vmull.u8	q12, d3, d30
     21c:	f7dcf08a 	pld	[ip, sl, lsl #1]
     220:	f3dbc470 	vsri.16	q14, q8, #5
     224:	e15a0007 	cmp	sl, r7
     228:	f3f22322 	vshll.i8	q9, d18, #8
     22c:	f3d8a274 	vrshr.u16	q13, q10, #8
     230:	a04aa007 	subge	sl, sl, r7
     234:	f3986276 	vrshr.u16	q3, q11, #8
     238:	f3d8e278 	vrshr.u16	q15, q12, #8
     23c:	a2599010 	subsge	r9, r9, #16
     240:	f3d5c472 	vsri.16	q14, q9, #11
     244:	a7fb8105 	ldrbge	r8, [fp, r5, lsl #2]!
     248:	f3c444aa 	vraddhn.i16	d20, q10, q13
     24c:	f3c67486 	vraddhn.i16	d23, q11, q3
     250:	a7fc8083 	ldrbge	r8, [ip, r3, lsl #1]!
     254:	f3c864ae 	vraddhn.i16	d22, q12, q15
     258:	f442ca6d 	vst1.16	{d28-d29}, [r2 :128]!
     25c:	e2500008 	subs	r0, r0, #8
     260:	aaffffd8 	bge	1c8 <pixman_composite_over_8888_0565_asm_neon+0x1c8>
     264:	f3420034 	vqadd.u8	d16, d2, d20
     268:	f3402076 	vqadd.u8	q9, q0, q11
     26c:	f3f2c320 	vshll.i8	q14, d16, #8
     270:	f3f20323 	vshll.i8	q8, d19, #8
     274:	f3f22322 	vshll.i8	q9, d18, #8
     278:	f3dbc470 	vsri.16	q14, q8, #5
     27c:	f3d5c472 	vsri.16	q14, q9, #11
     280:	f442ca6d 	vst1.16	{d28-d29}, [r2 :128]!
     284:	e3100007 	tst	r0, #7
     288:	0a00003e 	beq	388 <pixman_composite_over_8888_0565_asm_neon+0x388>
     28c:	e3100004 	tst	r0, #4
     290:	0a000002 	beq	2a0 <pixman_composite_over_8888_0565_asm_neon+0x2a0>
     294:	f4242a8d 	vld1.32	{d2-d3}, [r4]!
     298:	f426575d 	vld1.16	{d5}, [r6 :64]!
     29c:	e28aa004 	add	sl, sl, #4
     2a0:	e3100002 	tst	r0, #2
     2a4:	0a000003 	beq	2b8 <pixman_composite_over_8888_0565_asm_neon+0x2b8>
     2a8:	f424178d 	vld1.32	{d1}, [r4]!
     2ac:	f4a6448d 	vld1.16	{d4[2]}, [r6]!
     2b0:	f4a644cd 	vld1.16	{d4[3]}, [r6]!
     2b4:	e28aa002 	add	sl, sl, #2
     2b8:	e3100001 	tst	r0, #1
     2bc:	0a000002 	beq	2cc <pixman_composite_over_8888_0565_asm_neon+0x2cc>
     2c0:	f4a4088d 	vld1.32	{d0[1]}, [r4]!
     2c4:	f4a6444d 	vld1.16	{d4[1]}, [r6]!
     2c8:	e28aa001 	add	sl, sl, #1
     2cc:	f3b20101 	vuzp.8	d0, d1
     2d0:	f3b22103 	vuzp.8	d2, d3
     2d4:	f3b21103 	vuzp.8	d1, d3
     2d8:	f3b20102 	vuzp.8	d0, d2
     2dc:	f2886814 	vshrn.i16	d6, q2, #8
     2e0:	f28d7814 	vshrn.i16	d7, q2, #3
     2e4:	f3954554 	vsli.16	q2, q2, #5
     2e8:	f38b6416 	vsri.8	d6, d6, #5
     2ec:	f3b03583 	vmvn	d3, d3
     2f0:	f38a7417 	vsri.8	d7, d7, #6
     2f4:	f2cee814 	vshrn.i16	d30, q2, #2
     2f8:	f3c34c06 	vmull.u8	q10, d3, d6
     2fc:	f3c36c07 	vmull.u8	q11, d3, d7
     300:	f3c38c2e 	vmull.u8	q12, d3, d30
     304:	f3d8a274 	vrshr.u16	q13, q10, #8
     308:	f3986276 	vrshr.u16	q3, q11, #8
     30c:	f3d8e278 	vrshr.u16	q15, q12, #8
     310:	f3c444aa 	vraddhn.i16	d20, q10, q13
     314:	f3c67486 	vraddhn.i16	d23, q11, q3
     318:	f3c864ae 	vraddhn.i16	d22, q12, q15
     31c:	e319000f 	tst	r9, #15
     320:	128aa008 	addne	sl, sl, #8
     324:	12499001 	subne	r9, r9, #1
     328:	e15a0007 	cmp	sl, r7
     32c:	f7dbf10a 	pld	[fp, sl, lsl #2]
     330:	f7dcf08a 	pld	[ip, sl, lsl #1]
     334:	a04aa007 	subge	sl, sl, r7
     338:	a2599010 	subsge	r9, r9, #16
     33c:	a7fb8105 	ldrbge	r8, [fp, r5, lsl #2]!
     340:	a7fc8083 	ldrbge	r8, [ip, r3, lsl #1]!
     344:	f3420034 	vqadd.u8	d16, d2, d20
     348:	f3402076 	vqadd.u8	q9, q0, q11
     34c:	f3f2c320 	vshll.i8	q14, d16, #8
     350:	f3f20323 	vshll.i8	q8, d19, #8
     354:	f3f22322 	vshll.i8	q9, d18, #8
     358:	f3dbc470 	vsri.16	q14, q8, #5
     35c:	f3d5c472 	vsri.16	q14, q9, #11
     360:	e3100004 	tst	r0, #4
     364:	0a000000 	beq	36c <pixman_composite_over_8888_0565_asm_neon+0x36c>
     368:	f442d75d 	vst1.16	{d29}, [r2 :64]!
     36c:	e3100002 	tst	r0, #2
     370:	0a000001 	beq	37c <pixman_composite_over_8888_0565_asm_neon+0x37c>
     374:	f4c2c48d 	vst1.16	{d28[2]}, [r2]!
     378:	f4c2c4cd 	vst1.16	{d28[3]}, [r2]!
     37c:	e3100001 	tst	r0, #1
     380:	0a000000 	beq	388 <pixman_composite_over_8888_0565_asm_neon+0x388>
     384:	f4c2c44d 	vst1.16	{d28[1]}, [r2]!
     388:	e1a00007 	mov	r0, r7
     38c:	e0822083 	add	r2, r2, r3, lsl #1
     390:	e0844105 	add	r4, r4, r5, lsl #2
     394:	e0422080 	sub	r2, r2, r0, lsl #1
     398:	e0444100 	sub	r4, r4, r0, lsl #2
     39c:	e2511001 	subs	r1, r1, #1
     3a0:	e1a06002 	mov	r6, r2
     3a4:	aaffff24 	bge	3c <pixman_composite_over_8888_0565_asm_neon+0x3c>
     3a8:	e8bd9ff0 	pop	{r4, r5, r6, r7, r8, r9, sl, fp, ip, pc}
     3ac:	e3100008 	tst	r0, #8
     3b0:	0a000019 	beq	41c <pixman_composite_over_8888_0565_asm_neon+0x41c>
     3b4:	f4264a4d 	vld1.16	{d4-d5}, [r6]!
     3b8:	f424000d 	vld4.8	{d0-d3}, [r4]!
     3bc:	f2886814 	vshrn.i16	d6, q2, #8
     3c0:	f28d7814 	vshrn.i16	d7, q2, #3
     3c4:	f3954554 	vsli.16	q2, q2, #5
     3c8:	f38b6416 	vsri.8	d6, d6, #5
     3cc:	f3b03583 	vmvn	d3, d3
     3d0:	f38a7417 	vsri.8	d7, d7, #6
     3d4:	f2cee814 	vshrn.i16	d30, q2, #2
     3d8:	f3c34c06 	vmull.u8	q10, d3, d6
     3dc:	f3c36c07 	vmull.u8	q11, d3, d7
     3e0:	f3c38c2e 	vmull.u8	q12, d3, d30
     3e4:	f3d8a274 	vrshr.u16	q13, q10, #8
     3e8:	f3986276 	vrshr.u16	q3, q11, #8
     3ec:	f3d8e278 	vrshr.u16	q15, q12, #8
     3f0:	f3c444aa 	vraddhn.i16	d20, q10, q13
     3f4:	f3c67486 	vraddhn.i16	d23, q11, q3
     3f8:	f3c864ae 	vraddhn.i16	d22, q12, q15
     3fc:	f3420034 	vqadd.u8	d16, d2, d20
     400:	f3402076 	vqadd.u8	q9, q0, q11
     404:	f3f2c320 	vshll.i8	q14, d16, #8
     408:	f3f20323 	vshll.i8	q8, d19, #8
     40c:	f3f22322 	vshll.i8	q9, d18, #8
     410:	f3dbc470 	vsri.16	q14, q8, #5
     414:	f3d5c472 	vsri.16	q14, q9, #11
     418:	f442ca4d 	vst1.16	{d28-d29}, [r2]!
     41c:	e3100007 	tst	r0, #7
     420:	0a000031 	beq	4ec <pixman_composite_over_8888_0565_asm_neon+0x4ec>
     424:	e3100004 	tst	r0, #4
     428:	0a000001 	beq	434 <pixman_composite_over_8888_0565_asm_neon+0x434>
     42c:	f4242a8d 	vld1.32	{d2-d3}, [r4]!
     430:	f426574d 	vld1.16	{d5}, [r6]!
     434:	e3100002 	tst	r0, #2
     438:	0a000002 	beq	448 <pixman_composite_over_8888_0565_asm_neon+0x448>
     43c:	f424178d 	vld1.32	{d1}, [r4]!
     440:	f4a6448d 	vld1.16	{d4[2]}, [r6]!
     444:	f4a644cd 	vld1.16	{d4[3]}, [r6]!
     448:	e3100001 	tst	r0, #1
     44c:	0a000001 	beq	458 <pixman_composite_over_8888_0565_asm_neon+0x458>
     450:	f4a4088d 	vld1.32	{d0[1]}, [r4]!
     454:	f4a6444d 	vld1.16	{d4[1]}, [r6]!
     458:	f3b20101 	vuzp.8	d0, d1
     45c:	f3b22103 	vuzp.8	d2, d3
     460:	f3b21103 	vuzp.8	d1, d3
     464:	f3b20102 	vuzp.8	d0, d2
     468:	f2886814 	vshrn.i16	d6, q2, #8
     46c:	f28d7814 	vshrn.i16	d7, q2, #3
     470:	f3954554 	vsli.16	q2, q2, #5
     474:	f38b6416 	vsri.8	d6, d6, #5
     478:	f3b03583 	vmvn	d3, d3
     47c:	f38a7417 	vsri.8	d7, d7, #6
     480:	f2cee814 	vshrn.i16	d30, q2, #2
     484:	f3c34c06 	vmull.u8	q10, d3, d6
     488:	f3c36c07 	vmull.u8	q11, d3, d7
     48c:	f3c38c2e 	vmull.u8	q12, d3, d30
     490:	f3d8a274 	vrshr.u16	q13, q10, #8
     494:	f3986276 	vrshr.u16	q3, q11, #8
     498:	f3d8e278 	vrshr.u16	q15, q12, #8
     49c:	f3c444aa 	vraddhn.i16	d20, q10, q13
     4a0:	f3c67486 	vraddhn.i16	d23, q11, q3
     4a4:	f3c864ae 	vraddhn.i16	d22, q12, q15
     4a8:	f3420034 	vqadd.u8	d16, d2, d20
     4ac:	f3402076 	vqadd.u8	q9, q0, q11
     4b0:	f3f2c320 	vshll.i8	q14, d16, #8
     4b4:	f3f20323 	vshll.i8	q8, d19, #8
     4b8:	f3f22322 	vshll.i8	q9, d18, #8
     4bc:	f3dbc470 	vsri.16	q14, q8, #5
     4c0:	f3d5c472 	vsri.16	q14, q9, #11
     4c4:	e3100004 	tst	r0, #4
     4c8:	0a000000 	beq	4d0 <pixman_composite_over_8888_0565_asm_neon+0x4d0>
     4cc:	f442d74d 	vst1.16	{d29}, [r2]!
     4d0:	e3100002 	tst	r0, #2
     4d4:	0a000001 	beq	4e0 <pixman_composite_over_8888_0565_asm_neon+0x4e0>
     4d8:	f4c2c48d 	vst1.16	{d28[2]}, [r2]!
     4dc:	f4c2c4cd 	vst1.16	{d28[3]}, [r2]!
     4e0:	e3100001 	tst	r0, #1
     4e4:	0a000000 	beq	4ec <pixman_composite_over_8888_0565_asm_neon+0x4ec>
     4e8:	f4c2c44d 	vst1.16	{d28[1]}, [r2]!
     4ec:	e1a00007 	mov	r0, r7
     4f0:	e0822083 	add	r2, r2, r3, lsl #1
     4f4:	e0844105 	add	r4, r4, r5, lsl #2
     4f8:	e0422080 	sub	r2, r2, r0, lsl #1
     4fc:	e0444100 	sub	r4, r4, r0, lsl #2
     500:	e2511001 	subs	r1, r1, #1
     504:	e1a06002 	mov	r6, r2
     508:	aaffffa7 	bge	3ac <pixman_composite_over_8888_0565_asm_neon+0x3ac>
     50c:	e8bd9ff0 	pop	{r4, r5, r6, r7, r8, r9, sl, fp, ip, pc}

00000510 <pixman_composite_over_n_0565_asm_neon>:
     510:	e92d5ff0 	push	{r4, r5, r6, r7, r8, r9, sl, fp, ip, lr}
     514:	e3a0a000 	mov	sl, #0
     518:	e1a06002 	mov	r6, r2
     51c:	e1a0b004 	mov	fp, r4
     520:	e1a0c006 	mov	ip, r6
     524:	e1a0e007 	mov	lr, r7
     528:	e1a09201 	lsl	r9, r1, #4
     52c:	e249900b 	sub	r9, r9, #11
     530:	e28d8028 	add	r8, sp, #40	; 0x28
     534:	f4a8380f 	vld1.32	{d3[0]}, [r8]
     538:	f3b10c03 	vdup.8	d0, d3[0]
     53c:	f3b31c03 	vdup.8	d1, d3[1]
     540:	f3b52c03 	vdup.8	d2, d3[2]
     544:	f3b73c03 	vdup.8	d3, d3[3]
     548:	f3b03583 	vmvn	d3, d3
     54c:	e2511001 	subs	r1, r1, #1
     550:	e1a07000 	mov	r7, r0
     554:	ba00010b 	blt	988 <pixman_composite_over_n_0565_asm_neon+0x478>
     558:	e3500010 	cmp	r0, #16
     55c:	ba0000bd 	blt	858 <pixman_composite_over_n_0565_asm_neon+0x348>
     560:	e316000f 	tst	r6, #15
     564:	0a000037 	beq	648 <pixman_composite_over_n_0565_asm_neon+0x138>
     568:	e3160002 	tst	r6, #2
     56c:	0a000002 	beq	57c <pixman_composite_over_n_0565_asm_neon+0x6c>
     570:	f4a6444d 	vld1.16	{d4[1]}, [r6]!
     574:	e28aa001 	add	sl, sl, #1
     578:	e2400001 	sub	r0, r0, #1
     57c:	e3160004 	tst	r6, #4
     580:	0a000003 	beq	594 <pixman_composite_over_n_0565_asm_neon+0x84>
     584:	f4a6448d 	vld1.16	{d4[2]}, [r6]!
     588:	f4a644cd 	vld1.16	{d4[3]}, [r6]!
     58c:	e28aa002 	add	sl, sl, #2
     590:	e2400002 	sub	r0, r0, #2
     594:	e3160008 	tst	r6, #8
     598:	0a000002 	beq	5a8 <pixman_composite_over_n_0565_asm_neon+0x98>
     59c:	f426575d 	vld1.16	{d5}, [r6 :64]!
     5a0:	e28aa004 	add	sl, sl, #4
     5a4:	e2400004 	sub	r0, r0, #4
     5a8:	f2886814 	vshrn.i16	d6, q2, #8
     5ac:	f28d7814 	vshrn.i16	d7, q2, #3
     5b0:	f3954554 	vsli.16	q2, q2, #5
     5b4:	f38b6416 	vsri.8	d6, d6, #5
     5b8:	f38a7417 	vsri.8	d7, d7, #6
     5bc:	f2cee814 	vshrn.i16	d30, q2, #2
     5c0:	f3c34c06 	vmull.u8	q10, d3, d6
     5c4:	f3c36c07 	vmull.u8	q11, d3, d7
     5c8:	f3c38c2e 	vmull.u8	q12, d3, d30
     5cc:	f3d8a274 	vrshr.u16	q13, q10, #8
     5d0:	f3986276 	vrshr.u16	q3, q11, #8
     5d4:	f3d8e278 	vrshr.u16	q15, q12, #8
     5d8:	f3c444aa 	vraddhn.i16	d20, q10, q13
     5dc:	f3c67486 	vraddhn.i16	d23, q11, q3
     5e0:	f3c864ae 	vraddhn.i16	d22, q12, q15
     5e4:	e319000f 	tst	r9, #15
     5e8:	128aa008 	addne	sl, sl, #8
     5ec:	12499001 	subne	r9, r9, #1
     5f0:	e15a0007 	cmp	sl, r7
     5f4:	f7dcf08a 	pld	[ip, sl, lsl #1]
     5f8:	a04aa007 	subge	sl, sl, r7
     5fc:	a2599010 	subsge	r9, r9, #16
     600:	a7fc8083 	ldrbge	r8, [ip, r3, lsl #1]!
     604:	f3420034 	vqadd.u8	d16, d2, d20
     608:	f3402076 	vqadd.u8	q9, q0, q11
     60c:	f3f2c320 	vshll.i8	q14, d16, #8
     610:	f3f20323 	vshll.i8	q8, d19, #8
     614:	f3f22322 	vshll.i8	q9, d18, #8
     618:	f3dbc470 	vsri.16	q14, q8, #5
     61c:	f3d5c472 	vsri.16	q14, q9, #11
     620:	e3120002 	tst	r2, #2
     624:	0a000000 	beq	62c <pixman_composite_over_n_0565_asm_neon+0x11c>
     628:	f4c2c44d 	vst1.16	{d28[1]}, [r2]!
     62c:	e3120004 	tst	r2, #4
     630:	0a000001 	beq	63c <pixman_composite_over_n_0565_asm_neon+0x12c>
     634:	f4c2c48d 	vst1.16	{d28[2]}, [r2]!
     638:	f4c2c4cd 	vst1.16	{d28[3]}, [r2]!
     63c:	e3120008 	tst	r2, #8
     640:	0a000000 	beq	648 <pixman_composite_over_n_0565_asm_neon+0x138>
     644:	f442d75d 	vst1.16	{d29}, [r2 :64]!
     648:	f4264a6d 	vld1.16	{d4-d5}, [r6 :128]!
     64c:	e28aa008 	add	sl, sl, #8
     650:	f2886814 	vshrn.i16	d6, q2, #8
     654:	f28d7814 	vshrn.i16	d7, q2, #3
     658:	f3954554 	vsli.16	q2, q2, #5
     65c:	f38b6416 	vsri.8	d6, d6, #5
     660:	f38a7417 	vsri.8	d7, d7, #6
     664:	f2cee814 	vshrn.i16	d30, q2, #2
     668:	f3c34c06 	vmull.u8	q10, d3, d6
     66c:	f3c36c07 	vmull.u8	q11, d3, d7
     670:	f3c38c2e 	vmull.u8	q12, d3, d30
     674:	f3d8a274 	vrshr.u16	q13, q10, #8
     678:	f3986276 	vrshr.u16	q3, q11, #8
     67c:	f3d8e278 	vrshr.u16	q15, q12, #8
     680:	f3c444aa 	vraddhn.i16	d20, q10, q13
     684:	f3c67486 	vraddhn.i16	d23, q11, q3
     688:	f3c864ae 	vraddhn.i16	d22, q12, q15
     68c:	e319000f 	tst	r9, #15
     690:	128aa008 	addne	sl, sl, #8
     694:	12499001 	subne	r9, r9, #1
     698:	e15a0007 	cmp	sl, r7
     69c:	f7dcf08a 	pld	[ip, sl, lsl #1]
     6a0:	a04aa007 	subge	sl, sl, r7
     6a4:	a2599010 	subsge	r9, r9, #16
     6a8:	a7fc8083 	ldrbge	r8, [ip, r3, lsl #1]!
     6ac:	e2500010 	subs	r0, r0, #16
     6b0:	ba000022 	blt	740 <pixman_composite_over_n_0565_asm_neon+0x230>
     6b4:	f3420034 	vqadd.u8	d16, d2, d20
     6b8:	f3402076 	vqadd.u8	q9, q0, q11
     6bc:	f3f2c320 	vshll.i8	q14, d16, #8
     6c0:	f3f20323 	vshll.i8	q8, d19, #8
     6c4:	f3f22322 	vshll.i8	q9, d18, #8
     6c8:	f3dbc470 	vsri.16	q14, q8, #5
     6cc:	f3d5c472 	vsri.16	q14, q9, #11
     6d0:	f4264a6d 	vld1.16	{d4-d5}, [r6 :128]!
     6d4:	f442ca6d 	vst1.16	{d28-d29}, [r2 :128]!
     6d8:	f2886814 	vshrn.i16	d6, q2, #8
     6dc:	f28d7814 	vshrn.i16	d7, q2, #3
     6e0:	f3954554 	vsli.16	q2, q2, #5
     6e4:	f38b6416 	vsri.8	d6, d6, #5
     6e8:	f38a7417 	vsri.8	d7, d7, #6
     6ec:	f2cee814 	vshrn.i16	d30, q2, #2
     6f0:	f3c34c06 	vmull.u8	q10, d3, d6
     6f4:	f3c36c07 	vmull.u8	q11, d3, d7
     6f8:	f3c38c2e 	vmull.u8	q12, d3, d30
     6fc:	f3d8a274 	vrshr.u16	q13, q10, #8
     700:	f3986276 	vrshr.u16	q3, q11, #8
     704:	f3d8e278 	vrshr.u16	q15, q12, #8
     708:	f3c444aa 	vraddhn.i16	d20, q10, q13
     70c:	f3c67486 	vraddhn.i16	d23, q11, q3
     710:	f3c864ae 	vraddhn.i16	d22, q12, q15
     714:	e28aa008 	add	sl, sl, #8
     718:	e319000f 	tst	r9, #15
     71c:	128aa008 	addne	sl, sl, #8
     720:	12499001 	subne	r9, r9, #1
     724:	e15a0007 	cmp	sl, r7
     728:	f7dcf08a 	pld	[ip, sl, lsl #1]
     72c:	a04aa007 	subge	sl, sl, r7
     730:	a2599010 	subsge	r9, r9, #16
     734:	a7fc8083 	ldrbge	r8, [ip, r3, lsl #1]!
     738:	e2500008 	subs	r0, r0, #8
     73c:	aaffffdc 	bge	6b4 <pixman_composite_over_n_0565_asm_neon+0x1a4>
     740:	f3420034 	vqadd.u8	d16, d2, d20
     744:	f3402076 	vqadd.u8	q9, q0, q11
     748:	f3f2c320 	vshll.i8	q14, d16, #8
     74c:	f3f20323 	vshll.i8	q8, d19, #8
     750:	f3f22322 	vshll.i8	q9, d18, #8
     754:	f3dbc470 	vsri.16	q14, q8, #5
     758:	f3d5c472 	vsri.16	q14, q9, #11
     75c:	f442ca6d 	vst1.16	{d28-d29}, [r2 :128]!
     760:	e3100007 	tst	r0, #7
     764:	0a000034 	beq	83c <pixman_composite_over_n_0565_asm_neon+0x32c>
     768:	e3100004 	tst	r0, #4
     76c:	0a000001 	beq	778 <pixman_composite_over_n_0565_asm_neon+0x268>
     770:	f426575d 	vld1.16	{d5}, [r6 :64]!
     774:	e28aa004 	add	sl, sl, #4
     778:	e3100002 	tst	r0, #2
     77c:	0a000002 	beq	78c <pixman_composite_over_n_0565_asm_neon+0x27c>
     780:	f4a6448d 	vld1.16	{d4[2]}, [r6]!
     784:	f4a644cd 	vld1.16	{d4[3]}, [r6]!
     788:	e28aa002 	add	sl, sl, #2
     78c:	e3100001 	tst	r0, #1
     790:	0a000001 	beq	79c <pixman_composite_over_n_0565_asm_neon+0x28c>
     794:	f4a6444d 	vld1.16	{d4[1]}, [r6]!
     798:	e28aa001 	add	sl, sl, #1
     79c:	f2886814 	vshrn.i16	d6, q2, #8
     7a0:	f28d7814 	vshrn.i16	d7, q2, #3
     7a4:	f3954554 	vsli.16	q2, q2, #5
     7a8:	f38b6416 	vsri.8	d6, d6, #5
     7ac:	f38a7417 	vsri.8	d7, d7, #6
     7b0:	f2cee814 	vshrn.i16	d30, q2, #2
     7b4:	f3c34c06 	vmull.u8	q10, d3, d6
     7b8:	f3c36c07 	vmull.u8	q11, d3, d7
     7bc:	f3c38c2e 	vmull.u8	q12, d3, d30
     7c0:	f3d8a274 	vrshr.u16	q13, q10, #8
     7c4:	f3986276 	vrshr.u16	q3, q11, #8
     7c8:	f3d8e278 	vrshr.u16	q15, q12, #8
     7cc:	f3c444aa 	vraddhn.i16	d20, q10, q13
     7d0:	f3c67486 	vraddhn.i16	d23, q11, q3
     7d4:	f3c864ae 	vraddhn.i16	d22, q12, q15
     7d8:	e319000f 	tst	r9, #15
     7dc:	128aa008 	addne	sl, sl, #8
     7e0:	12499001 	subne	r9, r9, #1
     7e4:	e15a0007 	cmp	sl, r7
     7e8:	f7dcf08a 	pld	[ip, sl, lsl #1]
     7ec:	a04aa007 	subge	sl, sl, r7
     7f0:	a2599010 	subsge	r9, r9, #16
     7f4:	a7fc8083 	ldrbge	r8, [ip, r3, lsl #1]!
     7f8:	f3420034 	vqadd.u8	d16, d2, d20
     7fc:	f3402076 	vqadd.u8	q9, q0, q11
     800:	f3f2c320 	vshll.i8	q14, d16, #8
     804:	f3f20323 	vshll.i8	q8, d19, #8
     808:	f3f22322 	vshll.i8	q9, d18, #8
     80c:	f3dbc470 	vsri.16	q14, q8, #5
     810:	f3d5c472 	vsri.16	q14, q9, #11
     814:	e3100004 	tst	r0, #4
     818:	0a000000 	beq	820 <pixman_composite_over_n_0565_asm_neon+0x310>
     81c:	f442d75d 	vst1.16	{d29}, [r2 :64]!
     820:	e3100002 	tst	r0, #2
     824:	0a000001 	beq	830 <pixman_composite_over_n_0565_asm_neon+0x320>
     828:	f4c2c48d 	vst1.16	{d28[2]}, [r2]!
     82c:	f4c2c4cd 	vst1.16	{d28[3]}, [r2]!
     830:	e3100001 	tst	r0, #1
     834:	0a000000 	beq	83c <pixman_composite_over_n_0565_asm_neon+0x32c>
     838:	f4c2c44d 	vst1.16	{d28[1]}, [r2]!
     83c:	e1a00007 	mov	r0, r7
     840:	e0822083 	add	r2, r2, r3, lsl #1
     844:	e0422080 	sub	r2, r2, r0, lsl #1
     848:	e2511001 	subs	r1, r1, #1
     84c:	e1a06002 	mov	r6, r2
     850:	aaffff42 	bge	560 <pixman_composite_over_n_0565_asm_neon+0x50>
     854:	e8bd9ff0 	pop	{r4, r5, r6, r7, r8, r9, sl, fp, ip, pc}
     858:	e3100008 	tst	r0, #8
     85c:	0a000017 	beq	8c0 <pixman_composite_over_n_0565_asm_neon+0x3b0>
     860:	f4264a4d 	vld1.16	{d4-d5}, [r6]!
     864:	f2886814 	vshrn.i16	d6, q2, #8
     868:	f28d7814 	vshrn.i16	d7, q2, #3
     86c:	f3954554 	vsli.16	q2, q2, #5
     870:	f38b6416 	vsri.8	d6, d6, #5
     874:	f38a7417 	vsri.8	d7, d7, #6
     878:	f2cee814 	vshrn.i16	d30, q2, #2
     87c:	f3c34c06 	vmull.u8	q10, d3, d6
     880:	f3c36c07 	vmull.u8	q11, d3, d7
     884:	f3c38c2e 	vmull.u8	q12, d3, d30
     888:	f3d8a274 	vrshr.u16	q13, q10, #8
     88c:	f3986276 	vrshr.u16	q3, q11, #8
     890:	f3d8e278 	vrshr.u16	q15, q12, #8
     894:	f3c444aa 	vraddhn.i16	d20, q10, q13
     898:	f3c67486 	vraddhn.i16	d23, q11, q3
     89c:	f3c864ae 	vraddhn.i16	d22, q12, q15
     8a0:	f3420034 	vqadd.u8	d16, d2, d20
     8a4:	f3402076 	vqadd.u8	q9, q0, q11
     8a8:	f3f2c320 	vshll.i8	q14, d16, #8
     8ac:	f3f20323 	vshll.i8	q8, d19, #8
     8b0:	f3f22322 	vshll.i8	q9, d18, #8
     8b4:	f3dbc470 	vsri.16	q14, q8, #5
     8b8:	f3d5c472 	vsri.16	q14, q9, #11
     8bc:	f442ca4d 	vst1.16	{d28-d29}, [r2]!
     8c0:	e3100007 	tst	r0, #7
     8c4:	0a000029 	beq	970 <pixman_composite_over_n_0565_asm_neon+0x460>
     8c8:	e3100004 	tst	r0, #4
     8cc:	0a000000 	beq	8d4 <pixman_composite_over_n_0565_asm_neon+0x3c4>
     8d0:	f426574d 	vld1.16	{d5}, [r6]!
     8d4:	e3100002 	tst	r0, #2
     8d8:	0a000001 	beq	8e4 <pixman_composite_over_n_0565_asm_neon+0x3d4>
     8dc:	f4a6448d 	vld1.16	{d4[2]}, [r6]!
     8e0:	f4a644cd 	vld1.16	{d4[3]}, [r6]!
     8e4:	e3100001 	tst	r0, #1
     8e8:	0a000000 	beq	8f0 <pixman_composite_over_n_0565_asm_neon+0x3e0>
     8ec:	f4a6444d 	vld1.16	{d4[1]}, [r6]!
     8f0:	f2886814 	vshrn.i16	d6, q2, #8
     8f4:	f28d7814 	vshrn.i16	d7, q2, #3
     8f8:	f3954554 	vsli.16	q2, q2, #5
     8fc:	f38b6416 	vsri.8	d6, d6, #5
     900:	f38a7417 	vsri.8	d7, d7, #6
     904:	f2cee814 	vshrn.i16	d30, q2, #2
     908:	f3c34c06 	vmull.u8	q10, d3, d6
     90c:	f3c36c07 	vmull.u8	q11, d3, d7
     910:	f3c38c2e 	vmull.u8	q12, d3, d30
     914:	f3d8a274 	vrshr.u16	q13, q10, #8
     918:	f3986276 	vrshr.u16	q3, q11, #8
     91c:	f3d8e278 	vrshr.u16	q15, q12, #8
     920:	f3c444aa 	vraddhn.i16	d20, q10, q13
     924:	f3c67486 	vraddhn.i16	d23, q11, q3
     928:	f3c864ae 	vraddhn.i16	d22, q12, q15
     92c:	f3420034 	vqadd.u8	d16, d2, d20
     930:	f3402076 	vqadd.u8	q9, q0, q11
     934:	f3f2c320 	vshll.i8	q14, d16, #8
     938:	f3f20323 	vshll.i8	q8, d19, #8
     93c:	f3f22322 	vshll.i8	q9, d18, #8
     940:	f3dbc470 	vsri.16	q14, q8, #5
     944:	f3d5c472 	vsri.16	q14, q9, #11
     948:	e3100004 	tst	r0, #4
     94c:	0a000000 	beq	954 <pixman_composite_over_n_0565_asm_neon+0x444>
     950:	f442d74d 	vst1.16	{d29}, [r2]!
     954:	e3100002 	tst	r0, #2
     958:	0a000001 	beq	964 <pixman_composite_over_n_0565_asm_neon+0x454>
     95c:	f4c2c48d 	vst1.16	{d28[2]}, [r2]!
     960:	f4c2c4cd 	vst1.16	{d28[3]}, [r2]!
     964:	e3100001 	tst	r0, #1
     968:	0a000000 	beq	970 <pixman_composite_over_n_0565_asm_neon+0x460>
     96c:	f4c2c44d 	vst1.16	{d28[1]}, [r2]!
     970:	e1a00007 	mov	r0, r7
     974:	e0822083 	add	r2, r2, r3, lsl #1
     978:	e0422080 	sub	r2, r2, r0, lsl #1
     97c:	e2511001 	subs	r1, r1, #1
     980:	e1a06002 	mov	r6, r2
     984:	aaffffb3 	bge	858 <pixman_composite_over_n_0565_asm_neon+0x348>
     988:	e8bd9ff0 	pop	{r4, r5, r6, r7, r8, r9, sl, fp, ip, pc}

0000098c <pixman_composite_src_8888_0565_asm_neon>:
     98c:	e92d5ff0 	push	{r4, r5, r6, r7, r8, r9, sl, fp, ip, lr}
     990:	e59d4028 	ldr	r4, [sp, #40]	; 0x28
     994:	e3a0a000 	mov	sl, #0
     998:	e59d502c 	ldr	r5, [sp, #44]	; 0x2c
     99c:	e1a06002 	mov	r6, r2
     9a0:	e1a0b004 	mov	fp, r4
     9a4:	e1a0c006 	mov	ip, r6
     9a8:	e1a0e007 	mov	lr, r7
     9ac:	e1a09201 	lsl	r9, r1, #4
     9b0:	e2499006 	sub	r9, r9, #6
     9b4:	e2511001 	subs	r1, r1, #1
     9b8:	e1a07000 	mov	r7, r0
     9bc:	ba0000b5 	blt	c98 <pixman_composite_src_8888_0565_asm_neon+0x30c>
     9c0:	e3500010 	cmp	r0, #16
     9c4:	ba000084 	blt	bdc <pixman_composite_src_8888_0565_asm_neon+0x250>
     9c8:	e316000f 	tst	r6, #15
     9cc:	0a00002c 	beq	a84 <pixman_composite_src_8888_0565_asm_neon+0xf8>
     9d0:	e3160002 	tst	r6, #2
     9d4:	0a000003 	beq	9e8 <pixman_composite_src_8888_0565_asm_neon+0x5c>
     9d8:	f4a4088d 	vld1.32	{d0[1]}, [r4]!
     9dc:	e2866002 	add	r6, r6, #2
     9e0:	e28aa001 	add	sl, sl, #1
     9e4:	e2400001 	sub	r0, r0, #1
     9e8:	e3160004 	tst	r6, #4
     9ec:	0a000003 	beq	a00 <pixman_composite_src_8888_0565_asm_neon+0x74>
     9f0:	f424178d 	vld1.32	{d1}, [r4]!
     9f4:	e2866004 	add	r6, r6, #4
     9f8:	e28aa002 	add	sl, sl, #2
     9fc:	e2400002 	sub	r0, r0, #2
     a00:	e3160008 	tst	r6, #8
     a04:	0a000003 	beq	a18 <pixman_composite_src_8888_0565_asm_neon+0x8c>
     a08:	f4242a8d 	vld1.32	{d2-d3}, [r4]!
     a0c:	e2866008 	add	r6, r6, #8
     a10:	e28aa004 	add	sl, sl, #4
     a14:	e2400004 	sub	r0, r0, #4
     a18:	f3b20101 	vuzp.8	d0, d1
     a1c:	f3b22103 	vuzp.8	d2, d3
     a20:	f3b21103 	vuzp.8	d1, d3
     a24:	f3b20102 	vuzp.8	d0, d2
     a28:	f3f20301 	vshll.i8	q8, d1, #8
     a2c:	f3f2c302 	vshll.i8	q14, d2, #8
     a30:	f3f22300 	vshll.i8	q9, d0, #8
     a34:	e319000f 	tst	r9, #15
     a38:	128aa008 	addne	sl, sl, #8
     a3c:	12499001 	subne	r9, r9, #1
     a40:	e15a0007 	cmp	sl, r7
     a44:	f7dbf10a 	pld	[fp, sl, lsl #2]
     a48:	a04aa007 	subge	sl, sl, r7
     a4c:	a2599010 	subsge	r9, r9, #16
     a50:	a7fb8105 	ldrbge	r8, [fp, r5, lsl #2]!
     a54:	f3dbc470 	vsri.16	q14, q8, #5
     a58:	f3d5c472 	vsri.16	q14, q9, #11
     a5c:	e3120002 	tst	r2, #2
     a60:	0a000000 	beq	a68 <pixman_composite_src_8888_0565_asm_neon+0xdc>
     a64:	f4c2c44d 	vst1.16	{d28[1]}, [r2]!
     a68:	e3120004 	tst	r2, #4
     a6c:	0a000001 	beq	a78 <pixman_composite_src_8888_0565_asm_neon+0xec>
     a70:	f4c2c48d 	vst1.16	{d28[2]}, [r2]!
     a74:	f4c2c4cd 	vst1.16	{d28[3]}, [r2]!
     a78:	e3120008 	tst	r2, #8
     a7c:	0a000000 	beq	a84 <pixman_composite_src_8888_0565_asm_neon+0xf8>
     a80:	f442d75d 	vst1.16	{d29}, [r2 :64]!
     a84:	f424000d 	vld4.8	{d0-d3}, [r4]!
     a88:	e28aa008 	add	sl, sl, #8
     a8c:	f3f20301 	vshll.i8	q8, d1, #8
     a90:	f3f2c302 	vshll.i8	q14, d2, #8
     a94:	f3f22300 	vshll.i8	q9, d0, #8
     a98:	e319000f 	tst	r9, #15
     a9c:	128aa008 	addne	sl, sl, #8
     aa0:	12499001 	subne	r9, r9, #1
     aa4:	e15a0007 	cmp	sl, r7
     aa8:	f7dbf10a 	pld	[fp, sl, lsl #2]
     aac:	a04aa007 	subge	sl, sl, r7
     ab0:	a2599010 	subsge	r9, r9, #16
     ab4:	a7fb8105 	ldrbge	r8, [fp, r5, lsl #2]!
     ab8:	e2500010 	subs	r0, r0, #16
     abc:	ba000011 	blt	b08 <pixman_composite_src_8888_0565_asm_neon+0x17c>
     ac0:	f3dbc470 	vsri.16	q14, q8, #5
     ac4:	e28aa008 	add	sl, sl, #8
     ac8:	e319000f 	tst	r9, #15
     acc:	f424000d 	vld4.8	{d0-d3}, [r4]!
     ad0:	128aa008 	addne	sl, sl, #8
     ad4:	12499001 	subne	r9, r9, #1
     ad8:	f3d5c472 	vsri.16	q14, q9, #11
     adc:	e15a0007 	cmp	sl, r7
     ae0:	f7dbf10a 	pld	[fp, sl, lsl #2]
     ae4:	f3f20301 	vshll.i8	q8, d1, #8
     ae8:	f442ca6d 	vst1.16	{d28-d29}, [r2 :128]!
     aec:	a04aa007 	subge	sl, sl, r7
     af0:	a2599010 	subsge	r9, r9, #16
     af4:	f3f2c302 	vshll.i8	q14, d2, #8
     af8:	a7fb8105 	ldrbge	r8, [fp, r5, lsl #2]!
     afc:	f3f22300 	vshll.i8	q9, d0, #8
     b00:	e2500008 	subs	r0, r0, #8
     b04:	aaffffed 	bge	ac0 <pixman_composite_src_8888_0565_asm_neon+0x134>
     b08:	f3dbc470 	vsri.16	q14, q8, #5
     b0c:	f3d5c472 	vsri.16	q14, q9, #11
     b10:	f442ca6d 	vst1.16	{d28-d29}, [r2 :128]!
     b14:	e3100007 	tst	r0, #7
     b18:	0a000026 	beq	bb8 <pixman_composite_src_8888_0565_asm_neon+0x22c>
     b1c:	e3100004 	tst	r0, #4
     b20:	0a000001 	beq	b2c <pixman_composite_src_8888_0565_asm_neon+0x1a0>
     b24:	f4242a8d 	vld1.32	{d2-d3}, [r4]!
     b28:	e28aa004 	add	sl, sl, #4
     b2c:	e3100002 	tst	r0, #2
     b30:	0a000001 	beq	b3c <pixman_composite_src_8888_0565_asm_neon+0x1b0>
     b34:	f424178d 	vld1.32	{d1}, [r4]!
     b38:	e28aa002 	add	sl, sl, #2
     b3c:	e3100001 	tst	r0, #1
     b40:	0a000001 	beq	b4c <pixman_composite_src_8888_0565_asm_neon+0x1c0>
     b44:	f4a4088d 	vld1.32	{d0[1]}, [r4]!
     b48:	e28aa001 	add	sl, sl, #1
     b4c:	f3b20101 	vuzp.8	d0, d1
     b50:	f3b22103 	vuzp.8	d2, d3
     b54:	f3b21103 	vuzp.8	d1, d3
     b58:	f3b20102 	vuzp.8	d0, d2
     b5c:	f3f20301 	vshll.i8	q8, d1, #8
     b60:	f3f2c302 	vshll.i8	q14, d2, #8
     b64:	f3f22300 	vshll.i8	q9, d0, #8
     b68:	e319000f 	tst	r9, #15
     b6c:	128aa008 	addne	sl, sl, #8
     b70:	12499001 	subne	r9, r9, #1
     b74:	e15a0007 	cmp	sl, r7
     b78:	f7dbf10a 	pld	[fp, sl, lsl #2]
     b7c:	a04aa007 	subge	sl, sl, r7
     b80:	a2599010 	subsge	r9, r9, #16
     b84:	a7fb8105 	ldrbge	r8, [fp, r5, lsl #2]!
     b88:	f3dbc470 	vsri.16	q14, q8, #5
     b8c:	f3d5c472 	vsri.16	q14, q9, #11
     b90:	e3100004 	tst	r0, #4
     b94:	0a000000 	beq	b9c <pixman_composite_src_8888_0565_asm_neon+0x210>
     b98:	f442d75d 	vst1.16	{d29}, [r2 :64]!
     b9c:	e3100002 	tst	r0, #2
     ba0:	0a000001 	beq	bac <pixman_composite_src_8888_0565_asm_neon+0x220>
     ba4:	f4c2c48d 	vst1.16	{d28[2]}, [r2]!
     ba8:	f4c2c4cd 	vst1.16	{d28[3]}, [r2]!
     bac:	e3100001 	tst	r0, #1
     bb0:	0a000000 	beq	bb8 <pixman_composite_src_8888_0565_asm_neon+0x22c>
     bb4:	f4c2c44d 	vst1.16	{d28[1]}, [r2]!
     bb8:	e1a00007 	mov	r0, r7
     bbc:	e0822083 	add	r2, r2, r3, lsl #1
     bc0:	e0844105 	add	r4, r4, r5, lsl #2
     bc4:	e0422080 	sub	r2, r2, r0, lsl #1
     bc8:	e0444100 	sub	r4, r4, r0, lsl #2
     bcc:	e2511001 	subs	r1, r1, #1
     bd0:	e1a06002 	mov	r6, r2
     bd4:	aaffff7b 	bge	9c8 <pixman_composite_src_8888_0565_asm_neon+0x3c>
     bd8:	e8bd9ff0 	pop	{r4, r5, r6, r7, r8, r9, sl, fp, ip, pc}
     bdc:	e3100008 	tst	r0, #8
     be0:	0a000006 	beq	c00 <pixman_composite_src_8888_0565_asm_neon+0x274>
     be4:	f424000d 	vld4.8	{d0-d3}, [r4]!
     be8:	f3f20301 	vshll.i8	q8, d1, #8
     bec:	f3f2c302 	vshll.i8	q14, d2, #8
     bf0:	f3f22300 	vshll.i8	q9, d0, #8
     bf4:	f3dbc470 	vsri.16	q14, q8, #5
     bf8:	f3d5c472 	vsri.16	q14, q9, #11
     bfc:	f442ca4d 	vst1.16	{d28-d29}, [r2]!
     c00:	e3100007 	tst	r0, #7
     c04:	0a00001b 	beq	c78 <pixman_composite_src_8888_0565_asm_neon+0x2ec>
     c08:	e3100004 	tst	r0, #4
     c0c:	0a000000 	beq	c14 <pixman_composite_src_8888_0565_asm_neon+0x288>
     c10:	f4242a8d 	vld1.32	{d2-d3}, [r4]!
     c14:	e3100002 	tst	r0, #2
     c18:	0a000000 	beq	c20 <pixman_composite_src_8888_0565_asm_neon+0x294>
     c1c:	f424178d 	vld1.32	{d1}, [r4]!
     c20:	e3100001 	tst	r0, #1
     c24:	0a000000 	beq	c2c <pixman_composite_src_8888_0565_asm_neon+0x2a0>
     c28:	f4a4088d 	vld1.32	{d0[1]}, [r4]!
     c2c:	f3b20101 	vuzp.8	d0, d1
     c30:	f3b22103 	vuzp.8	d2, d3
     c34:	f3b21103 	vuzp.8	d1, d3
     c38:	f3b20102 	vuzp.8	d0, d2
     c3c:	f3f20301 	vshll.i8	q8, d1, #8
     c40:	f3f2c302 	vshll.i8	q14, d2, #8
     c44:	f3f22300 	vshll.i8	q9, d0, #8
     c48:	f3dbc470 	vsri.16	q14, q8, #5
     c4c:	f3d5c472 	vsri.16	q14, q9, #11
     c50:	e3100004 	tst	r0, #4
     c54:	0a000000 	beq	c5c <pixman_composite_src_8888_0565_asm_neon+0x2d0>
     c58:	f442d74d 	vst1.16	{d29}, [r2]!
     c5c:	e3100002 	tst	r0, #2
     c60:	0a000001 	beq	c6c <pixman_composite_src_8888_0565_asm_neon+0x2e0>
     c64:	f4c2c48d 	vst1.16	{d28[2]}, [r2]!
     c68:	f4c2c4cd 	vst1.16	{d28[3]}, [r2]!
     c6c:	e3100001 	tst	r0, #1
     c70:	0a000000 	beq	c78 <pixman_composite_src_8888_0565_asm_neon+0x2ec>
     c74:	f4c2c44d 	vst1.16	{d28[1]}, [r2]!
     c78:	e1a00007 	mov	r0, r7
     c7c:	e0822083 	add	r2, r2, r3, lsl #1
     c80:	e0844105 	add	r4, r4, r5, lsl #2
     c84:	e0422080 	sub	r2, r2, r0, lsl #1
     c88:	e0444100 	sub	r4, r4, r0, lsl #2
     c8c:	e2511001 	subs	r1, r1, #1
     c90:	e1a06002 	mov	r6, r2
     c94:	aaffffd0 	bge	bdc <pixman_composite_src_8888_0565_asm_neon+0x250>
     c98:	e8bd9ff0 	pop	{r4, r5, r6, r7, r8, r9, sl, fp, ip, pc}

00000c9c <pixman_composite_src_0565_8888_asm_neon>:
     c9c:	e92d5ff0 	push	{r4, r5, r6, r7, r8, r9, sl, fp, ip, lr}
     ca0:	e59d4028 	ldr	r4, [sp, #40]	; 0x28
     ca4:	e3a0a000 	mov	sl, #0
     ca8:	e59d502c 	ldr	r5, [sp, #44]	; 0x2c
     cac:	e1a06002 	mov	r6, r2
     cb0:	e1a0b004 	mov	fp, r4
     cb4:	e1a0c006 	mov	ip, r6
     cb8:	e1a0e007 	mov	lr, r7
     cbc:	e1a09201 	lsl	r9, r1, #4
     cc0:	e2499006 	sub	r9, r9, #6
     cc4:	e2511001 	subs	r1, r1, #1
     cc8:	e1a07000 	mov	r7, r0
     ccc:	ba0000bd 	blt	fc8 <pixman_composite_src_0565_8888_asm_neon+0x32c>
     cd0:	e3500010 	cmp	r0, #16
     cd4:	ba000088 	blt	efc <pixman_composite_src_0565_8888_asm_neon+0x260>
     cd8:	e316000f 	tst	r6, #15
     cdc:	0a00002a 	beq	d8c <pixman_composite_src_0565_8888_asm_neon+0xf0>
     ce0:	e3160004 	tst	r6, #4
     ce4:	0a000003 	beq	cf8 <pixman_composite_src_0565_8888_asm_neon+0x5c>
     ce8:	f4a4044d 	vld1.16	{d0[1]}, [r4]!
     cec:	e2866004 	add	r6, r6, #4
     cf0:	e28aa001 	add	sl, sl, #1
     cf4:	e2400001 	sub	r0, r0, #1
     cf8:	e3160008 	tst	r6, #8
     cfc:	0a000004 	beq	d14 <pixman_composite_src_0565_8888_asm_neon+0x78>
     d00:	f4a4048d 	vld1.16	{d0[2]}, [r4]!
     d04:	f4a404cd 	vld1.16	{d0[3]}, [r4]!
     d08:	e2866008 	add	r6, r6, #8
     d0c:	e28aa002 	add	sl, sl, #2
     d10:	e2400002 	sub	r0, r0, #2
     d14:	f424174d 	vld1.16	{d1}, [r4]!
     d18:	e2866010 	add	r6, r6, #16
     d1c:	e28aa004 	add	sl, sl, #4
     d20:	e2400004 	sub	r0, r0, #4
     d24:	f2c8e810 	vshrn.i16	d30, q0, #8
     d28:	f2cdd810 	vshrn.i16	d29, q0, #3
     d2c:	f3950550 	vsli.16	q0, q0, #5
     d30:	f3c7fe1f 	vmov.i8	d31, #255	; 0xff
     d34:	f3cbe43e 	vsri.8	d30, d30, #5
     d38:	f3cad43d 	vsri.8	d29, d29, #6
     d3c:	f2cec810 	vshrn.i16	d28, q0, #2
     d40:	e319000f 	tst	r9, #15
     d44:	128aa008 	addne	sl, sl, #8
     d48:	12499001 	subne	r9, r9, #1
     d4c:	e15a0007 	cmp	sl, r7
     d50:	f7dbf08a 	pld	[fp, sl, lsl #1]
     d54:	a04aa007 	subge	sl, sl, r7
     d58:	a2599010 	subsge	r9, r9, #16
     d5c:	a7fb8085 	ldrbge	r8, [fp, r5, lsl #1]!
     d60:	f3f2c1ae 	vzip.8	d28, d30
     d64:	f3f2d1af 	vzip.8	d29, d31
     d68:	f3f2e1af 	vzip.8	d30, d31
     d6c:	f3f2c1ad 	vzip.8	d28, d29
     d70:	e3120004 	tst	r2, #4
     d74:	0a000000 	beq	d7c <pixman_composite_src_0565_8888_asm_neon+0xe0>
     d78:	f4c2c88d 	vst1.32	{d28[1]}, [r2]!
     d7c:	e3120008 	tst	r2, #8
     d80:	0a000000 	beq	d88 <pixman_composite_src_0565_8888_asm_neon+0xec>
     d84:	f442d79d 	vst1.32	{d29}, [r2 :64]!
     d88:	f442eaad 	vst1.32	{d30-d31}, [r2 :128]!
     d8c:	f4240a4d 	vld1.16	{d0-d1}, [r4]!
     d90:	e28aa008 	add	sl, sl, #8
     d94:	f2c8e810 	vshrn.i16	d30, q0, #8
     d98:	f2cdd810 	vshrn.i16	d29, q0, #3
     d9c:	f3950550 	vsli.16	q0, q0, #5
     da0:	f3c7fe1f 	vmov.i8	d31, #255	; 0xff
     da4:	f3cbe43e 	vsri.8	d30, d30, #5
     da8:	f3cad43d 	vsri.8	d29, d29, #6
     dac:	f2cec810 	vshrn.i16	d28, q0, #2
     db0:	e319000f 	tst	r9, #15
     db4:	128aa008 	addne	sl, sl, #8
     db8:	12499001 	subne	r9, r9, #1
     dbc:	e15a0007 	cmp	sl, r7
     dc0:	f7dbf08a 	pld	[fp, sl, lsl #1]
     dc4:	a04aa007 	subge	sl, sl, r7
     dc8:	a2599010 	subsge	r9, r9, #16
     dcc:	a7fb8085 	ldrbge	r8, [fp, r5, lsl #1]!
     dd0:	e2500010 	subs	r0, r0, #16
     dd4:	ba000013 	blt	e28 <pixman_composite_src_0565_8888_asm_neon+0x18c>
     dd8:	f442c02d 	vst4.8	{d28-d31}, [r2 :128]!
     ddc:	f4240a4d 	vld1.16	{d0-d1}, [r4]!
     de0:	f2c8e810 	vshrn.i16	d30, q0, #8
     de4:	f2cdd810 	vshrn.i16	d29, q0, #3
     de8:	f3950550 	vsli.16	q0, q0, #5
     dec:	f3c7fe1f 	vmov.i8	d31, #255	; 0xff
     df0:	f3cbe43e 	vsri.8	d30, d30, #5
     df4:	f3cad43d 	vsri.8	d29, d29, #6
     df8:	f2cec810 	vshrn.i16	d28, q0, #2
     dfc:	e28aa008 	add	sl, sl, #8
     e00:	e319000f 	tst	r9, #15
     e04:	128aa008 	addne	sl, sl, #8
     e08:	12499001 	subne	r9, r9, #1
     e0c:	e15a0007 	cmp	sl, r7
     e10:	f7dbf08a 	pld	[fp, sl, lsl #1]
     e14:	a04aa007 	subge	sl, sl, r7
     e18:	a2599010 	subsge	r9, r9, #16
     e1c:	a7fb8085 	ldrbge	r8, [fp, r5, lsl #1]!
     e20:	e2500008 	subs	r0, r0, #8
     e24:	aaffffeb 	bge	dd8 <pixman_composite_src_0565_8888_asm_neon+0x13c>
     e28:	f442c02d 	vst4.8	{d28-d31}, [r2 :128]!
     e2c:	e3100007 	tst	r0, #7
     e30:	0a000028 	beq	ed8 <pixman_composite_src_0565_8888_asm_neon+0x23c>
     e34:	e3100004 	tst	r0, #4
     e38:	0a000001 	beq	e44 <pixman_composite_src_0565_8888_asm_neon+0x1a8>
     e3c:	f424174d 	vld1.16	{d1}, [r4]!
     e40:	e28aa004 	add	sl, sl, #4
     e44:	e3100002 	tst	r0, #2
     e48:	0a000002 	beq	e58 <pixman_composite_src_0565_8888_asm_neon+0x1bc>
     e4c:	f4a4048d 	vld1.16	{d0[2]}, [r4]!
     e50:	f4a404cd 	vld1.16	{d0[3]}, [r4]!
     e54:	e28aa002 	add	sl, sl, #2
     e58:	e3100001 	tst	r0, #1
     e5c:	0a000001 	beq	e68 <pixman_composite_src_0565_8888_asm_neon+0x1cc>
     e60:	f4a4044d 	vld1.16	{d0[1]}, [r4]!
     e64:	e28aa001 	add	sl, sl, #1
     e68:	f2c8e810 	vshrn.i16	d30, q0, #8
     e6c:	f2cdd810 	vshrn.i16	d29, q0, #3
     e70:	f3950550 	vsli.16	q0, q0, #5
     e74:	f3c7fe1f 	vmov.i8	d31, #255	; 0xff
     e78:	f3cbe43e 	vsri.8	d30, d30, #5
     e7c:	f3cad43d 	vsri.8	d29, d29, #6
     e80:	f2cec810 	vshrn.i16	d28, q0, #2
     e84:	e319000f 	tst	r9, #15
     e88:	128aa008 	addne	sl, sl, #8
     e8c:	12499001 	subne	r9, r9, #1
     e90:	e15a0007 	cmp	sl, r7
     e94:	f7dbf08a 	pld	[fp, sl, lsl #1]
     e98:	a04aa007 	subge	sl, sl, r7
     e9c:	a2599010 	subsge	r9, r9, #16
     ea0:	a7fb8085 	ldrbge	r8, [fp, r5, lsl #1]!
     ea4:	f3f2c1ae 	vzip.8	d28, d30
     ea8:	f3f2d1af 	vzip.8	d29, d31
     eac:	f3f2e1af 	vzip.8	d30, d31
     eb0:	f3f2c1ad 	vzip.8	d28, d29
     eb4:	e3100004 	tst	r0, #4
     eb8:	0a000000 	beq	ec0 <pixman_composite_src_0565_8888_asm_neon+0x224>
     ebc:	f442eaad 	vst1.32	{d30-d31}, [r2 :128]!
     ec0:	e3100002 	tst	r0, #2
     ec4:	0a000000 	beq	ecc <pixman_composite_src_0565_8888_asm_neon+0x230>
     ec8:	f442d79d 	vst1.32	{d29}, [r2 :64]!
     ecc:	e3100001 	tst	r0, #1
     ed0:	0a000000 	beq	ed8 <pixman_composite_src_0565_8888_asm_neon+0x23c>
     ed4:	f4c2c88d 	vst1.32	{d28[1]}, [r2]!
     ed8:	e1a00007 	mov	r0, r7
     edc:	e0822103 	add	r2, r2, r3, lsl #2
     ee0:	e0844085 	add	r4, r4, r5, lsl #1
     ee4:	e0422100 	sub	r2, r2, r0, lsl #2
     ee8:	e0444080 	sub	r4, r4, r0, lsl #1
     eec:	e2511001 	subs	r1, r1, #1
     ef0:	e1a06002 	mov	r6, r2
     ef4:	aaffff77 	bge	cd8 <pixman_composite_src_0565_8888_asm_neon+0x3c>
     ef8:	e8bd9ff0 	pop	{r4, r5, r6, r7, r8, r9, sl, fp, ip, pc}
     efc:	e3100008 	tst	r0, #8
     f00:	0a000008 	beq	f28 <pixman_composite_src_0565_8888_asm_neon+0x28c>
     f04:	f4240a4d 	vld1.16	{d0-d1}, [r4]!
     f08:	f2c8e810 	vshrn.i16	d30, q0, #8
     f0c:	f2cdd810 	vshrn.i16	d29, q0, #3
     f10:	f3950550 	vsli.16	q0, q0, #5
     f14:	f3c7fe1f 	vmov.i8	d31, #255	; 0xff
     f18:	f3cbe43e 	vsri.8	d30, d30, #5
     f1c:	f3cad43d 	vsri.8	d29, d29, #6
     f20:	f2cec810 	vshrn.i16	d28, q0, #2
     f24:	f442c00d 	vst4.8	{d28-d31}, [r2]!
     f28:	e3100007 	tst	r0, #7
     f2c:	0a00001d 	beq	fa8 <pixman_composite_src_0565_8888_asm_neon+0x30c>
     f30:	e3100004 	tst	r0, #4
     f34:	0a000000 	beq	f3c <pixman_composite_src_0565_8888_asm_neon+0x2a0>
     f38:	f424174d 	vld1.16	{d1}, [r4]!
     f3c:	e3100002 	tst	r0, #2
     f40:	0a000001 	beq	f4c <pixman_composite_src_0565_8888_asm_neon+0x2b0>
     f44:	f4a4048d 	vld1.16	{d0[2]}, [r4]!
     f48:	f4a404cd 	vld1.16	{d0[3]}, [r4]!
     f4c:	e3100001 	tst	r0, #1
     f50:	0a000000 	beq	f58 <pixman_composite_src_0565_8888_asm_neon+0x2bc>
     f54:	f4a4044d 	vld1.16	{d0[1]}, [r4]!
     f58:	f2c8e810 	vshrn.i16	d30, q0, #8
     f5c:	f2cdd810 	vshrn.i16	d29, q0, #3
     f60:	f3950550 	vsli.16	q0, q0, #5
     f64:	f3c7fe1f 	vmov.i8	d31, #255	; 0xff
     f68:	f3cbe43e 	vsri.8	d30, d30, #5
     f6c:	f3cad43d 	vsri.8	d29, d29, #6
     f70:	f2cec810 	vshrn.i16	d28, q0, #2
     f74:	f3f2c1ae 	vzip.8	d28, d30
     f78:	f3f2d1af 	vzip.8	d29, d31
     f7c:	f3f2e1af 	vzip.8	d30, d31
     f80:	f3f2c1ad 	vzip.8	d28, d29
     f84:	e3100004 	tst	r0, #4
     f88:	0a000000 	beq	f90 <pixman_composite_src_0565_8888_asm_neon+0x2f4>
     f8c:	f442ea8d 	vst1.32	{d30-d31}, [r2]!
     f90:	e3100002 	tst	r0, #2
     f94:	0a000000 	beq	f9c <pixman_composite_src_0565_8888_asm_neon+0x300>
     f98:	f442d78d 	vst1.32	{d29}, [r2]!
     f9c:	e3100001 	tst	r0, #1
     fa0:	0a000000 	beq	fa8 <pixman_composite_src_0565_8888_asm_neon+0x30c>
     fa4:	f4c2c88d 	vst1.32	{d28[1]}, [r2]!
     fa8:	e1a00007 	mov	r0, r7
     fac:	e0822103 	add	r2, r2, r3, lsl #2
     fb0:	e0844085 	add	r4, r4, r5, lsl #1
     fb4:	e0422100 	sub	r2, r2, r0, lsl #2
     fb8:	e0444080 	sub	r4, r4, r0, lsl #1
     fbc:	e2511001 	subs	r1, r1, #1
     fc0:	e1a06002 	mov	r6, r2
     fc4:	aaffffcc 	bge	efc <pixman_composite_src_0565_8888_asm_neon+0x260>
     fc8:	e8bd9ff0 	pop	{r4, r5, r6, r7, r8, r9, sl, fp, ip, pc}

00000fcc <pixman_composite_add_8_8_asm_neon>:
     fcc:	e92d5ff0 	push	{r4, r5, r6, r7, r8, r9, sl, fp, ip, lr}
     fd0:	e59d4028 	ldr	r4, [sp, #40]	; 0x28
     fd4:	e3a0a000 	mov	sl, #0
     fd8:	e59d502c 	ldr	r5, [sp, #44]	; 0x2c
     fdc:	e1a06002 	mov	r6, r2
     fe0:	e1a0b004 	mov	fp, r4
     fe4:	e1a0c006 	mov	ip, r6
     fe8:	e1a0e007 	mov	lr, r7
     fec:	e1a09201 	lsl	r9, r1, #4
     ff0:	e2499006 	sub	r9, r9, #6
     ff4:	e2511001 	subs	r1, r1, #1
     ff8:	e1a07000 	mov	r7, r0
     ffc:	ba0000f5 	blt	13d8 <pixman_composite_add_8_8_asm_neon+0x40c>
    1000:	e3500040 	cmp	r0, #64	; 0x40
    1004:	ba0000b1 	blt	12d0 <pixman_composite_add_8_8_asm_neon+0x304>
    1008:	e316000f 	tst	r6, #15
    100c:	0a000040 	beq	1114 <pixman_composite_add_8_8_asm_neon+0x148>
    1010:	e3160001 	tst	r6, #1
    1014:	0a000003 	beq	1028 <pixman_composite_add_8_8_asm_neon+0x5c>
    1018:	f4a4002d 	vld1.8	{d0[1]}, [r4]!
    101c:	f4a6402d 	vld1.8	{d4[1]}, [r6]!
    1020:	e28aa001 	add	sl, sl, #1
    1024:	e2400001 	sub	r0, r0, #1
    1028:	e3160002 	tst	r6, #2
    102c:	0a000005 	beq	1048 <pixman_composite_add_8_8_asm_neon+0x7c>
    1030:	f4a4004d 	vld1.8	{d0[2]}, [r4]!
    1034:	f4a4006d 	vld1.8	{d0[3]}, [r4]!
    1038:	f4a6404d 	vld1.8	{d4[2]}, [r6]!
    103c:	f4a6406d 	vld1.8	{d4[3]}, [r6]!
    1040:	e28aa002 	add	sl, sl, #2
    1044:	e2400002 	sub	r0, r0, #2
    1048:	e3160004 	tst	r6, #4
    104c:	0a000009 	beq	1078 <pixman_composite_add_8_8_asm_neon+0xac>
    1050:	f4a4008d 	vld1.8	{d0[4]}, [r4]!
    1054:	f4a400ad 	vld1.8	{d0[5]}, [r4]!
    1058:	f4a400cd 	vld1.8	{d0[6]}, [r4]!
    105c:	f4a400ed 	vld1.8	{d0[7]}, [r4]!
    1060:	f4a6408d 	vld1.8	{d4[4]}, [r6]!
    1064:	f4a640ad 	vld1.8	{d4[5]}, [r6]!
    1068:	f4a640cd 	vld1.8	{d4[6]}, [r6]!
    106c:	f4a640ed 	vld1.8	{d4[7]}, [r6]!
    1070:	e28aa004 	add	sl, sl, #4
    1074:	e2400004 	sub	r0, r0, #4
    1078:	e3160008 	tst	r6, #8
    107c:	0a000003 	beq	1090 <pixman_composite_add_8_8_asm_neon+0xc4>
    1080:	f424170d 	vld1.8	{d1}, [r4]!
    1084:	f426571d 	vld1.8	{d5}, [r6 :64]!
    1088:	e28aa008 	add	sl, sl, #8
    108c:	e2400008 	sub	r0, r0, #8
    1090:	f4242a0d 	vld1.8	{d2-d3}, [r4]!
    1094:	f4266a2d 	vld1.8	{d6-d7}, [r6 :128]!
    1098:	e28aa010 	add	sl, sl, #16
    109c:	e2400010 	sub	r0, r0, #16
    10a0:	f340c054 	vqadd.u8	q14, q0, q2
    10a4:	f342e056 	vqadd.u8	q15, q1, q3
    10a8:	e319000f 	tst	r9, #15
    10ac:	128aa020 	addne	sl, sl, #32
    10b0:	12499001 	subne	r9, r9, #1
    10b4:	e15a0007 	cmp	sl, r7
    10b8:	f7dbf00a 	pld	[fp, sl]
    10bc:	f7dcf00a 	pld	[ip, sl]
    10c0:	a04aa007 	subge	sl, sl, r7
    10c4:	a2599010 	subsge	r9, r9, #16
    10c8:	a7fb8005 	ldrbge	r8, [fp, r5]!
    10cc:	a7fc8003 	ldrbge	r8, [ip, r3]!
    10d0:	e3120001 	tst	r2, #1
    10d4:	0a000000 	beq	10dc <pixman_composite_add_8_8_asm_neon+0x110>
    10d8:	f4c2c02d 	vst1.8	{d28[1]}, [r2]!
    10dc:	e3120002 	tst	r2, #2
    10e0:	0a000001 	beq	10ec <pixman_composite_add_8_8_asm_neon+0x120>
    10e4:	f4c2c04d 	vst1.8	{d28[2]}, [r2]!
    10e8:	f4c2c06d 	vst1.8	{d28[3]}, [r2]!
    10ec:	e3120004 	tst	r2, #4
    10f0:	0a000003 	beq	1104 <pixman_composite_add_8_8_asm_neon+0x138>
    10f4:	f4c2c08d 	vst1.8	{d28[4]}, [r2]!
    10f8:	f4c2c0ad 	vst1.8	{d28[5]}, [r2]!
    10fc:	f4c2c0cd 	vst1.8	{d28[6]}, [r2]!
    1100:	f4c2c0ed 	vst1.8	{d28[7]}, [r2]!
    1104:	e3120008 	tst	r2, #8
    1108:	0a000000 	beq	1110 <pixman_composite_add_8_8_asm_neon+0x144>
    110c:	f442d71d 	vst1.8	{d29}, [r2 :64]!
    1110:	f442ea2d 	vst1.8	{d30-d31}, [r2 :128]!
    1114:	f426422d 	vld1.8	{d4-d7}, [r6 :128]!
    1118:	f424020d 	vld1.8	{d0-d3}, [r4]!
    111c:	e28aa020 	add	sl, sl, #32
    1120:	f340c054 	vqadd.u8	q14, q0, q2
    1124:	f342e056 	vqadd.u8	q15, q1, q3
    1128:	e319000f 	tst	r9, #15
    112c:	128aa020 	addne	sl, sl, #32
    1130:	12499001 	subne	r9, r9, #1
    1134:	e15a0007 	cmp	sl, r7
    1138:	f7dbf00a 	pld	[fp, sl]
    113c:	f7dcf00a 	pld	[ip, sl]
    1140:	a04aa007 	subge	sl, sl, r7
    1144:	a2599010 	subsge	r9, r9, #16
    1148:	a7fb8005 	ldrbge	r8, [fp, r5]!
    114c:	a7fc8003 	ldrbge	r8, [ip, r3]!
    1150:	e2500040 	subs	r0, r0, #64	; 0x40
    1154:	ba000011 	blt	11a0 <pixman_composite_add_8_8_asm_neon+0x1d4>
    1158:	f424020d 	vld1.8	{d0-d3}, [r4]!
    115c:	e28aa020 	add	sl, sl, #32
    1160:	e319000f 	tst	r9, #15
    1164:	f426422d 	vld1.8	{d4-d7}, [r6 :128]!
    1168:	128aa020 	addne	sl, sl, #32
    116c:	12499001 	subne	r9, r9, #1
    1170:	f442c22d 	vst1.8	{d28-d31}, [r2 :128]!
    1174:	e15a0007 	cmp	sl, r7
    1178:	f7dbf00a 	pld	[fp, sl]
    117c:	f7dcf00a 	pld	[ip, sl]
    1180:	a04aa007 	subge	sl, sl, r7
    1184:	a2599010 	subsge	r9, r9, #16
    1188:	f340c054 	vqadd.u8	q14, q0, q2
    118c:	a7fb8005 	ldrbge	r8, [fp, r5]!
    1190:	a7fc8003 	ldrbge	r8, [ip, r3]!
    1194:	f342e056 	vqadd.u8	q15, q1, q3
    1198:	e2500020 	subs	r0, r0, #32
    119c:	aaffffed 	bge	1158 <pixman_composite_add_8_8_asm_neon+0x18c>
    11a0:	f442c22d 	vst1.8	{d28-d31}, [r2 :128]!
    11a4:	e310001f 	tst	r0, #31
    11a8:	0a00003f 	beq	12ac <pixman_composite_add_8_8_asm_neon+0x2e0>
    11ac:	e3100010 	tst	r0, #16
    11b0:	0a000002 	beq	11c0 <pixman_composite_add_8_8_asm_neon+0x1f4>
    11b4:	f4242a0d 	vld1.8	{d2-d3}, [r4]!
    11b8:	f4266a2d 	vld1.8	{d6-d7}, [r6 :128]!
    11bc:	e28aa010 	add	sl, sl, #16
    11c0:	e3100008 	tst	r0, #8
    11c4:	0a000002 	beq	11d4 <pixman_composite_add_8_8_asm_neon+0x208>
    11c8:	f424170d 	vld1.8	{d1}, [r4]!
    11cc:	f426571d 	vld1.8	{d5}, [r6 :64]!
    11d0:	e28aa008 	add	sl, sl, #8
    11d4:	e3100004 	tst	r0, #4
    11d8:	0a000008 	beq	1200 <pixman_composite_add_8_8_asm_neon+0x234>
    11dc:	f4a4008d 	vld1.8	{d0[4]}, [r4]!
    11e0:	f4a400ad 	vld1.8	{d0[5]}, [r4]!
    11e4:	f4a400cd 	vld1.8	{d0[6]}, [r4]!
    11e8:	f4a400ed 	vld1.8	{d0[7]}, [r4]!
    11ec:	f4a6408d 	vld1.8	{d4[4]}, [r6]!
    11f0:	f4a640ad 	vld1.8	{d4[5]}, [r6]!
    11f4:	f4a640cd 	vld1.8	{d4[6]}, [r6]!
    11f8:	f4a640ed 	vld1.8	{d4[7]}, [r6]!
    11fc:	e28aa004 	add	sl, sl, #4
    1200:	e3100002 	tst	r0, #2
    1204:	0a000004 	beq	121c <pixman_composite_add_8_8_asm_neon+0x250>
    1208:	f4a4004d 	vld1.8	{d0[2]}, [r4]!
    120c:	f4a4006d 	vld1.8	{d0[3]}, [r4]!
    1210:	f4a6404d 	vld1.8	{d4[2]}, [r6]!
    1214:	f4a6406d 	vld1.8	{d4[3]}, [r6]!
    1218:	e28aa002 	add	sl, sl, #2
    121c:	e3100001 	tst	r0, #1
    1220:	0a000002 	beq	1230 <pixman_composite_add_8_8_asm_neon+0x264>
    1224:	f4a4002d 	vld1.8	{d0[1]}, [r4]!
    1228:	f4a6402d 	vld1.8	{d4[1]}, [r6]!
    122c:	e28aa001 	add	sl, sl, #1
    1230:	f340c054 	vqadd.u8	q14, q0, q2
    1234:	f342e056 	vqadd.u8	q15, q1, q3
    1238:	e319000f 	tst	r9, #15
    123c:	128aa020 	addne	sl, sl, #32
    1240:	12499001 	subne	r9, r9, #1
    1244:	e15a0007 	cmp	sl, r7
    1248:	f7dbf00a 	pld	[fp, sl]
    124c:	f7dcf00a 	pld	[ip, sl]
    1250:	a04aa007 	subge	sl, sl, r7
    1254:	a2599010 	subsge	r9, r9, #16
    1258:	a7fb8005 	ldrbge	r8, [fp, r5]!
    125c:	a7fc8003 	ldrbge	r8, [ip, r3]!
    1260:	e3100010 	tst	r0, #16
    1264:	0a000000 	beq	126c <pixman_composite_add_8_8_asm_neon+0x2a0>
    1268:	f442ea2d 	vst1.8	{d30-d31}, [r2 :128]!
    126c:	e3100008 	tst	r0, #8
    1270:	0a000000 	beq	1278 <pixman_composite_add_8_8_asm_neon+0x2ac>
    1274:	f442d71d 	vst1.8	{d29}, [r2 :64]!
    1278:	e3100004 	tst	r0, #4
    127c:	0a000003 	beq	1290 <pixman_composite_add_8_8_asm_neon+0x2c4>
    1280:	f4c2c08d 	vst1.8	{d28[4]}, [r2]!
    1284:	f4c2c0ad 	vst1.8	{d28[5]}, [r2]!
    1288:	f4c2c0cd 	vst1.8	{d28[6]}, [r2]!
    128c:	f4c2c0ed 	vst1.8	{d28[7]}, [r2]!
    1290:	e3100002 	tst	r0, #2
    1294:	0a000001 	beq	12a0 <pixman_composite_add_8_8_asm_neon+0x2d4>
    1298:	f4c2c04d 	vst1.8	{d28[2]}, [r2]!
    129c:	f4c2c06d 	vst1.8	{d28[3]}, [r2]!
    12a0:	e3100001 	tst	r0, #1
    12a4:	0a000000 	beq	12ac <pixman_composite_add_8_8_asm_neon+0x2e0>
    12a8:	f4c2c02d 	vst1.8	{d28[1]}, [r2]!
    12ac:	e1a00007 	mov	r0, r7
    12b0:	e0822003 	add	r2, r2, r3
    12b4:	e0844005 	add	r4, r4, r5
    12b8:	e0422000 	sub	r2, r2, r0
    12bc:	e0444000 	sub	r4, r4, r0
    12c0:	e2511001 	subs	r1, r1, #1
    12c4:	e1a06002 	mov	r6, r2
    12c8:	aaffff4e 	bge	1008 <pixman_composite_add_8_8_asm_neon+0x3c>
    12cc:	e8bd9ff0 	pop	{r4, r5, r6, r7, r8, r9, sl, fp, ip, pc}
    12d0:	e3100020 	tst	r0, #32
    12d4:	0a000004 	beq	12ec <pixman_composite_add_8_8_asm_neon+0x320>
    12d8:	f426420d 	vld1.8	{d4-d7}, [r6]!
    12dc:	f424020d 	vld1.8	{d0-d3}, [r4]!
    12e0:	f340c054 	vqadd.u8	q14, q0, q2
    12e4:	f342e056 	vqadd.u8	q15, q1, q3
    12e8:	f442c20d 	vst1.8	{d28-d31}, [r2]!
    12ec:	e310001f 	tst	r0, #31
    12f0:	0a000030 	beq	13b8 <pixman_composite_add_8_8_asm_neon+0x3ec>
    12f4:	e3100010 	tst	r0, #16
    12f8:	0a000001 	beq	1304 <pixman_composite_add_8_8_asm_neon+0x338>
    12fc:	f4242a0d 	vld1.8	{d2-d3}, [r4]!
    1300:	f4266a0d 	vld1.8	{d6-d7}, [r6]!
    1304:	e3100008 	tst	r0, #8
    1308:	0a000001 	beq	1314 <pixman_composite_add_8_8_asm_neon+0x348>
    130c:	f424170d 	vld1.8	{d1}, [r4]!
    1310:	f426570d 	vld1.8	{d5}, [r6]!
    1314:	e3100004 	tst	r0, #4
    1318:	0a000007 	beq	133c <pixman_composite_add_8_8_asm_neon+0x370>
    131c:	f4a4008d 	vld1.8	{d0[4]}, [r4]!
    1320:	f4a400ad 	vld1.8	{d0[5]}, [r4]!
    1324:	f4a400cd 	vld1.8	{d0[6]}, [r4]!
    1328:	f4a400ed 	vld1.8	{d0[7]}, [r4]!
    132c:	f4a6408d 	vld1.8	{d4[4]}, [r6]!
    1330:	f4a640ad 	vld1.8	{d4[5]}, [r6]!
    1334:	f4a640cd 	vld1.8	{d4[6]}, [r6]!
    1338:	f4a640ed 	vld1.8	{d4[7]}, [r6]!
    133c:	e3100002 	tst	r0, #2
    1340:	0a000003 	beq	1354 <pixman_composite_add_8_8_asm_neon+0x388>
    1344:	f4a4004d 	vld1.8	{d0[2]}, [r4]!
    1348:	f4a4006d 	vld1.8	{d0[3]}, [r4]!
    134c:	f4a6404d 	vld1.8	{d4[2]}, [r6]!
    1350:	f4a6406d 	vld1.8	{d4[3]}, [r6]!
    1354:	e3100001 	tst	r0, #1
    1358:	0a000001 	beq	1364 <pixman_composite_add_8_8_asm_neon+0x398>
    135c:	f4a4002d 	vld1.8	{d0[1]}, [r4]!
    1360:	f4a6402d 	vld1.8	{d4[1]}, [r6]!
    1364:	f340c054 	vqadd.u8	q14, q0, q2
    1368:	f342e056 	vqadd.u8	q15, q1, q3
    136c:	e3100010 	tst	r0, #16
    1370:	0a000000 	beq	1378 <pixman_composite_add_8_8_asm_neon+0x3ac>
    1374:	f442ea0d 	vst1.8	{d30-d31}, [r2]!
    1378:	e3100008 	tst	r0, #8
    137c:	0a000000 	beq	1384 <pixman_composite_add_8_8_asm_neon+0x3b8>
    1380:	f442d70d 	vst1.8	{d29}, [r2]!
    1384:	e3100004 	tst	r0, #4
    1388:	0a000003 	beq	139c <pixman_composite_add_8_8_asm_neon+0x3d0>
    138c:	f4c2c08d 	vst1.8	{d28[4]}, [r2]!
    1390:	f4c2c0ad 	vst1.8	{d28[5]}, [r2]!
    1394:	f4c2c0cd 	vst1.8	{d28[6]}, [r2]!
    1398:	f4c2c0ed 	vst1.8	{d28[7]}, [r2]!
    139c:	e3100002 	tst	r0, #2
    13a0:	0a000001 	beq	13ac <pixman_composite_add_8_8_asm_neon+0x3e0>
    13a4:	f4c2c04d 	vst1.8	{d28[2]}, [r2]!
    13a8:	f4c2c06d 	vst1.8	{d28[3]}, [r2]!
    13ac:	e3100001 	tst	r0, #1
    13b0:	0a000000 	beq	13b8 <pixman_composite_add_8_8_asm_neon+0x3ec>
    13b4:	f4c2c02d 	vst1.8	{d28[1]}, [r2]!
    13b8:	e1a00007 	mov	r0, r7
    13bc:	e0822003 	add	r2, r2, r3
    13c0:	e0844005 	add	r4, r4, r5
    13c4:	e0422000 	sub	r2, r2, r0
    13c8:	e0444000 	sub	r4, r4, r0
    13cc:	e2511001 	subs	r1, r1, #1
    13d0:	e1a06002 	mov	r6, r2
    13d4:	aaffffbd 	bge	12d0 <pixman_composite_add_8_8_asm_neon+0x304>
    13d8:	e8bd9ff0 	pop	{r4, r5, r6, r7, r8, r9, sl, fp, ip, pc}

000013dc <pixman_composite_add_8888_8888_asm_neon>:
    13dc:	e92d5ff0 	push	{r4, r5, r6, r7, r8, r9, sl, fp, ip, lr}
    13e0:	e59d4028 	ldr	r4, [sp, #40]	; 0x28
    13e4:	e3a0a000 	mov	sl, #0
    13e8:	e59d502c 	ldr	r5, [sp, #44]	; 0x2c
    13ec:	e1a06002 	mov	r6, r2
    13f0:	e1a0b004 	mov	fp, r4
    13f4:	e1a0c006 	mov	ip, r6
    13f8:	e1a0e007 	mov	lr, r7
    13fc:	e1a09201 	lsl	r9, r1, #4
    1400:	e2499006 	sub	r9, r9, #6
    1404:	e2511001 	subs	r1, r1, #1
    1408:	e1a07000 	mov	r7, r0
    140c:	ba0000a1 	blt	1698 <pixman_composite_add_8888_8888_asm_neon+0x2bc>
    1410:	e3500010 	cmp	r0, #16
    1414:	ba000077 	blt	15f8 <pixman_composite_add_8888_8888_asm_neon+0x21c>
    1418:	e316000f 	tst	r6, #15
    141c:	0a000022 	beq	14ac <pixman_composite_add_8888_8888_asm_neon+0xd0>
    1420:	e3160004 	tst	r6, #4
    1424:	0a000003 	beq	1438 <pixman_composite_add_8888_8888_asm_neon+0x5c>
    1428:	f4a4088d 	vld1.32	{d0[1]}, [r4]!
    142c:	f4a6488d 	vld1.32	{d4[1]}, [r6]!
    1430:	e28aa001 	add	sl, sl, #1
    1434:	e2400001 	sub	r0, r0, #1
    1438:	e3160008 	tst	r6, #8
    143c:	0a000003 	beq	1450 <pixman_composite_add_8888_8888_asm_neon+0x74>
    1440:	f424178d 	vld1.32	{d1}, [r4]!
    1444:	f426579d 	vld1.32	{d5}, [r6 :64]!
    1448:	e28aa002 	add	sl, sl, #2
    144c:	e2400002 	sub	r0, r0, #2
    1450:	f4242a8d 	vld1.32	{d2-d3}, [r4]!
    1454:	f4266aad 	vld1.32	{d6-d7}, [r6 :128]!
    1458:	e28aa004 	add	sl, sl, #4
    145c:	e2400004 	sub	r0, r0, #4
    1460:	f340c054 	vqadd.u8	q14, q0, q2
    1464:	f342e056 	vqadd.u8	q15, q1, q3
    1468:	e319000f 	tst	r9, #15
    146c:	128aa008 	addne	sl, sl, #8
    1470:	12499001 	subne	r9, r9, #1
    1474:	e15a0007 	cmp	sl, r7
    1478:	f7dbf10a 	pld	[fp, sl, lsl #2]
    147c:	f7dcf10a 	pld	[ip, sl, lsl #2]
    1480:	a04aa007 	subge	sl, sl, r7
    1484:	a2599010 	subsge	r9, r9, #16
    1488:	a7fb8105 	ldrbge	r8, [fp, r5, lsl #2]!
    148c:	a7fc8103 	ldrbge	r8, [ip, r3, lsl #2]!
    1490:	e3120004 	tst	r2, #4
    1494:	0a000000 	beq	149c <pixman_composite_add_8888_8888_asm_neon+0xc0>
    1498:	f4c2c88d 	vst1.32	{d28[1]}, [r2]!
    149c:	e3120008 	tst	r2, #8
    14a0:	0a000000 	beq	14a8 <pixman_composite_add_8888_8888_asm_neon+0xcc>
    14a4:	f442d79d 	vst1.32	{d29}, [r2 :64]!
    14a8:	f442eaad 	vst1.32	{d30-d31}, [r2 :128]!
    14ac:	f42642ad 	vld1.32	{d4-d7}, [r6 :128]!
    14b0:	f424028d 	vld1.32	{d0-d3}, [r4]!
    14b4:	e28aa008 	add	sl, sl, #8
    14b8:	f340c054 	vqadd.u8	q14, q0, q2
    14bc:	f342e056 	vqadd.u8	q15, q1, q3
    14c0:	e319000f 	tst	r9, #15
    14c4:	128aa008 	addne	sl, sl, #8
    14c8:	12499001 	subne	r9, r9, #1
    14cc:	e15a0007 	cmp	sl, r7
    14d0:	f7dbf10a 	pld	[fp, sl, lsl #2]
    14d4:	f7dcf10a 	pld	[ip, sl, lsl #2]
    14d8:	a04aa007 	subge	sl, sl, r7
    14dc:	a2599010 	subsge	r9, r9, #16
    14e0:	a7fb8105 	ldrbge	r8, [fp, r5, lsl #2]!
    14e4:	a7fc8103 	ldrbge	r8, [ip, r3, lsl #2]!
    14e8:	e2500010 	subs	r0, r0, #16
    14ec:	ba000011 	blt	1538 <pixman_composite_add_8888_8888_asm_neon+0x15c>
    14f0:	f424028d 	vld1.32	{d0-d3}, [r4]!
    14f4:	e28aa008 	add	sl, sl, #8
    14f8:	e319000f 	tst	r9, #15
    14fc:	f42642ad 	vld1.32	{d4-d7}, [r6 :128]!
    1500:	128aa008 	addne	sl, sl, #8
    1504:	12499001 	subne	r9, r9, #1
    1508:	f442c2ad 	vst1.32	{d28-d31}, [r2 :128]!
    150c:	e15a0007 	cmp	sl, r7
    1510:	f7dbf10a 	pld	[fp, sl, lsl #2]
    1514:	f7dcf10a 	pld	[ip, sl, lsl #2]
    1518:	a04aa007 	subge	sl, sl, r7
    151c:	a2599010 	subsge	r9, r9, #16
    1520:	f340c054 	vqadd.u8	q14, q0, q2
    1524:	a7fb8105 	ldrbge	r8, [fp, r5, lsl #2]!
    1528:	a7fc8103 	ldrbge	r8, [ip, r3, lsl #2]!
    152c:	f342e056 	vqadd.u8	q15, q1, q3
    1530:	e2500008 	subs	r0, r0, #8
    1534:	aaffffed 	bge	14f0 <pixman_composite_add_8888_8888_asm_neon+0x114>
    1538:	f442c2ad 	vst1.32	{d28-d31}, [r2 :128]!
    153c:	e3100007 	tst	r0, #7
    1540:	0a000023 	beq	15d4 <pixman_composite_add_8888_8888_asm_neon+0x1f8>
    1544:	e3100004 	tst	r0, #4
    1548:	0a000002 	beq	1558 <pixman_composite_add_8888_8888_asm_neon+0x17c>
    154c:	f4242a8d 	vld1.32	{d2-d3}, [r4]!
    1550:	f4266aad 	vld1.32	{d6-d7}, [r6 :128]!
    1554:	e28aa004 	add	sl, sl, #4
    1558:	e3100002 	tst	r0, #2
    155c:	0a000002 	beq	156c <pixman_composite_add_8888_8888_asm_neon+0x190>
    1560:	f424178d 	vld1.32	{d1}, [r4]!
    1564:	f426579d 	vld1.32	{d5}, [r6 :64]!
    1568:	e28aa002 	add	sl, sl, #2
    156c:	e3100001 	tst	r0, #1
    1570:	0a000002 	beq	1580 <pixman_composite_add_8888_8888_asm_neon+0x1a4>
    1574:	f4a4088d 	vld1.32	{d0[1]}, [r4]!
    1578:	f4a6488d 	vld1.32	{d4[1]}, [r6]!
    157c:	e28aa001 	add	sl, sl, #1
    1580:	f340c054 	vqadd.u8	q14, q0, q2
    1584:	f342e056 	vqadd.u8	q15, q1, q3
    1588:	e319000f 	tst	r9, #15
    158c:	128aa008 	addne	sl, sl, #8
    1590:	12499001 	subne	r9, r9, #1
    1594:	e15a0007 	cmp	sl, r7
    1598:	f7dbf10a 	pld	[fp, sl, lsl #2]
    159c:	f7dcf10a 	pld	[ip, sl, lsl #2]
    15a0:	a04aa007 	subge	sl, sl, r7
    15a4:	a2599010 	subsge	r9, r9, #16
    15a8:	a7fb8105 	ldrbge	r8, [fp, r5, lsl #2]!
    15ac:	a7fc8103 	ldrbge	r8, [ip, r3, lsl #2]!
    15b0:	e3100004 	tst	r0, #4
    15b4:	0a000000 	beq	15bc <pixman_composite_add_8888_8888_asm_neon+0x1e0>
    15b8:	f442eaad 	vst1.32	{d30-d31}, [r2 :128]!
    15bc:	e3100002 	tst	r0, #2
    15c0:	0a000000 	beq	15c8 <pixman_composite_add_8888_8888_asm_neon+0x1ec>
    15c4:	f442d79d 	vst1.32	{d29}, [r2 :64]!
    15c8:	e3100001 	tst	r0, #1
    15cc:	0a000000 	beq	15d4 <pixman_composite_add_8888_8888_asm_neon+0x1f8>
    15d0:	f4c2c88d 	vst1.32	{d28[1]}, [r2]!
    15d4:	e1a00007 	mov	r0, r7
    15d8:	e0822103 	add	r2, r2, r3, lsl #2
    15dc:	e0844105 	add	r4, r4, r5, lsl #2
    15e0:	e0422100 	sub	r2, r2, r0, lsl #2
    15e4:	e0444100 	sub	r4, r4, r0, lsl #2
    15e8:	e2511001 	subs	r1, r1, #1
    15ec:	e1a06002 	mov	r6, r2
    15f0:	aaffff88 	bge	1418 <pixman_composite_add_8888_8888_asm_neon+0x3c>
    15f4:	e8bd9ff0 	pop	{r4, r5, r6, r7, r8, r9, sl, fp, ip, pc}
    15f8:	e3100008 	tst	r0, #8
    15fc:	0a000004 	beq	1614 <pixman_composite_add_8888_8888_asm_neon+0x238>
    1600:	f426428d 	vld1.32	{d4-d7}, [r6]!
    1604:	f424028d 	vld1.32	{d0-d3}, [r4]!
    1608:	f340c054 	vqadd.u8	q14, q0, q2
    160c:	f342e056 	vqadd.u8	q15, q1, q3
    1610:	f442c28d 	vst1.32	{d28-d31}, [r2]!
    1614:	e3100007 	tst	r0, #7
    1618:	0a000016 	beq	1678 <pixman_composite_add_8888_8888_asm_neon+0x29c>
    161c:	e3100004 	tst	r0, #4
    1620:	0a000001 	beq	162c <pixman_composite_add_8888_8888_asm_neon+0x250>
    1624:	f4242a8d 	vld1.32	{d2-d3}, [r4]!
    1628:	f4266a8d 	vld1.32	{d6-d7}, [r6]!
    162c:	e3100002 	tst	r0, #2
    1630:	0a000001 	beq	163c <pixman_composite_add_8888_8888_asm_neon+0x260>
    1634:	f424178d 	vld1.32	{d1}, [r4]!
    1638:	f426578d 	vld1.32	{d5}, [r6]!
    163c:	e3100001 	tst	r0, #1
    1640:	0a000001 	beq	164c <pixman_composite_add_8888_8888_asm_neon+0x270>
    1644:	f4a4088d 	vld1.32	{d0[1]}, [r4]!
    1648:	f4a6488d 	vld1.32	{d4[1]}, [r6]!
    164c:	f340c054 	vqadd.u8	q14, q0, q2
    1650:	f342e056 	vqadd.u8	q15, q1, q3
    1654:	e3100004 	tst	r0, #4
    1658:	0a000000 	beq	1660 <pixman_composite_add_8888_8888_asm_neon+0x284>
    165c:	f442ea8d 	vst1.32	{d30-d31}, [r2]!
    1660:	e3100002 	tst	r0, #2
    1664:	0a000000 	beq	166c <pixman_composite_add_8888_8888_asm_neon+0x290>
    1668:	f442d78d 	vst1.32	{d29}, [r2]!
    166c:	e3100001 	tst	r0, #1
    1670:	0a000000 	beq	1678 <pixman_composite_add_8888_8888_asm_neon+0x29c>
    1674:	f4c2c88d 	vst1.32	{d28[1]}, [r2]!
    1678:	e1a00007 	mov	r0, r7
    167c:	e0822103 	add	r2, r2, r3, lsl #2
    1680:	e0844105 	add	r4, r4, r5, lsl #2
    1684:	e0422100 	sub	r2, r2, r0, lsl #2
    1688:	e0444100 	sub	r4, r4, r0, lsl #2
    168c:	e2511001 	subs	r1, r1, #1
    1690:	e1a06002 	mov	r6, r2
    1694:	aaffffd7 	bge	15f8 <pixman_composite_add_8888_8888_asm_neon+0x21c>
    1698:	e8bd9ff0 	pop	{r4, r5, r6, r7, r8, r9, sl, fp, ip, pc}

0000169c <pixman_composite_scanline_add_asm_neon>:
    169c:	e1a0c001 	mov	ip, r1
    16a0:	e3500008 	cmp	r0, #8
    16a4:	ba000041 	blt	17b0 <pixman_composite_scanline_add_asm_neon+0x114>
    16a8:	e31c000f 	tst	ip, #15
    16ac:	0a000015 	beq	1708 <pixman_composite_scanline_add_asm_neon+0x6c>
    16b0:	e31c0004 	tst	ip, #4
    16b4:	0a000002 	beq	16c4 <pixman_composite_scanline_add_asm_neon+0x28>
    16b8:	f4a2088d 	vld1.32	{d0[1]}, [r2]!
    16bc:	f4ac488d 	vld1.32	{d4[1]}, [ip]!
    16c0:	e2400001 	sub	r0, r0, #1
    16c4:	e31c0008 	tst	ip, #8
    16c8:	0a000002 	beq	16d8 <pixman_composite_scanline_add_asm_neon+0x3c>
    16cc:	f422178d 	vld1.32	{d1}, [r2]!
    16d0:	f42c579d 	vld1.32	{d5}, [ip :64]!
    16d4:	e2400002 	sub	r0, r0, #2
    16d8:	f4222a8d 	vld1.32	{d2-d3}, [r2]!
    16dc:	f42c6aad 	vld1.32	{d6-d7}, [ip :128]!
    16e0:	e2400004 	sub	r0, r0, #4
    16e4:	f340c054 	vqadd.u8	q14, q0, q2
    16e8:	f342e056 	vqadd.u8	q15, q1, q3
    16ec:	e3110004 	tst	r1, #4
    16f0:	0a000000 	beq	16f8 <pixman_composite_scanline_add_asm_neon+0x5c>
    16f4:	f4c1c88d 	vst1.32	{d28[1]}, [r1]!
    16f8:	e3110008 	tst	r1, #8
    16fc:	0a000000 	beq	1704 <pixman_composite_scanline_add_asm_neon+0x68>
    1700:	f441d79d 	vst1.32	{d29}, [r1 :64]!
    1704:	f441eaad 	vst1.32	{d30-d31}, [r1 :128]!
    1708:	e2500008 	subs	r0, r0, #8
    170c:	ba00000d 	blt	1748 <pixman_composite_scanline_add_asm_neon+0xac>
    1710:	f42c42ad 	vld1.32	{d4-d7}, [ip :128]!
    1714:	f422028d 	vld1.32	{d0-d3}, [r2]!
    1718:	f340c054 	vqadd.u8	q14, q0, q2
    171c:	f342e056 	vqadd.u8	q15, q1, q3
    1720:	e2500008 	subs	r0, r0, #8
    1724:	ba000006 	blt	1744 <pixman_composite_scanline_add_asm_neon+0xa8>
    1728:	f422028d 	vld1.32	{d0-d3}, [r2]!
    172c:	f42c42ad 	vld1.32	{d4-d7}, [ip :128]!
    1730:	f441c2ad 	vst1.32	{d28-d31}, [r1 :128]!
    1734:	f340c054 	vqadd.u8	q14, q0, q2
    1738:	f342e056 	vqadd.u8	q15, q1, q3
    173c:	e2500008 	subs	r0, r0, #8
    1740:	aafffff8 	bge	1728 <pixman_composite_scanline_add_asm_neon+0x8c>
    1744:	f441c2ad 	vst1.32	{d28-d31}, [r1 :128]!
    1748:	e3100007 	tst	r0, #7
    174c:	0a000016 	beq	17ac <pixman_composite_scanline_add_asm_neon+0x110>
    1750:	e3100004 	tst	r0, #4
    1754:	0a000001 	beq	1760 <pixman_composite_scanline_add_asm_neon+0xc4>
    1758:	f4222a8d 	vld1.32	{d2-d3}, [r2]!
    175c:	f42c6aad 	vld1.32	{d6-d7}, [ip :128]!
    1760:	e3100002 	tst	r0, #2
    1764:	0a000001 	beq	1770 <pixman_composite_scanline_add_asm_neon+0xd4>
    1768:	f422178d 	vld1.32	{d1}, [r2]!
    176c:	f42c579d 	vld1.32	{d5}, [ip :64]!
    1770:	e3100001 	tst	r0, #1
    1774:	0a000001 	beq	1780 <pixman_composite_scanline_add_asm_neon+0xe4>
    1778:	f4a2088d 	vld1.32	{d0[1]}, [r2]!
    177c:	f4ac488d 	vld1.32	{d4[1]}, [ip]!
    1780:	f340c054 	vqadd.u8	q14, q0, q2
    1784:	f342e056 	vqadd.u8	q15, q1, q3
    1788:	e3100004 	tst	r0, #4
    178c:	0a000000 	beq	1794 <pixman_composite_scanline_add_asm_neon+0xf8>
    1790:	f441eaad 	vst1.32	{d30-d31}, [r1 :128]!
    1794:	e3100002 	tst	r0, #2
    1798:	0a000000 	beq	17a0 <pixman_composite_scanline_add_asm_neon+0x104>
    179c:	f441d79d 	vst1.32	{d29}, [r1 :64]!
    17a0:	e3100001 	tst	r0, #1
    17a4:	0a000000 	beq	17ac <pixman_composite_scanline_add_asm_neon+0x110>
    17a8:	f4c1c88d 	vst1.32	{d28[1]}, [r1]!
    17ac:	e12fff1e 	bx	lr
			17ac: R_ARM_V4BX	*ABS*
    17b0:	e3100007 	tst	r0, #7
    17b4:	0a000016 	beq	1814 <pixman_composite_scanline_add_asm_neon+0x178>
    17b8:	e3100004 	tst	r0, #4
    17bc:	0a000001 	beq	17c8 <pixman_composite_scanline_add_asm_neon+0x12c>
    17c0:	f4222a8d 	vld1.32	{d2-d3}, [r2]!
    17c4:	f42c6a8d 	vld1.32	{d6-d7}, [ip]!
    17c8:	e3100002 	tst	r0, #2
    17cc:	0a000001 	beq	17d8 <pixman_composite_scanline_add_asm_neon+0x13c>
    17d0:	f422178d 	vld1.32	{d1}, [r2]!
    17d4:	f42c578d 	vld1.32	{d5}, [ip]!
    17d8:	e3100001 	tst	r0, #1
    17dc:	0a000001 	beq	17e8 <pixman_composite_scanline_add_asm_neon+0x14c>
    17e0:	f4a2088d 	vld1.32	{d0[1]}, [r2]!
    17e4:	f4ac488d 	vld1.32	{d4[1]}, [ip]!
    17e8:	f340c054 	vqadd.u8	q14, q0, q2
    17ec:	f342e056 	vqadd.u8	q15, q1, q3
    17f0:	e3100004 	tst	r0, #4
    17f4:	0a000000 	beq	17fc <pixman_composite_scanline_add_asm_neon+0x160>
    17f8:	f441ea8d 	vst1.32	{d30-d31}, [r1]!
    17fc:	e3100002 	tst	r0, #2
    1800:	0a000000 	beq	1808 <pixman_composite_scanline_add_asm_neon+0x16c>
    1804:	f441d78d 	vst1.32	{d29}, [r1]!
    1808:	e3100001 	tst	r0, #1
    180c:	0a000000 	beq	1814 <pixman_composite_scanline_add_asm_neon+0x178>
    1810:	f4c1c88d 	vst1.32	{d28[1]}, [r1]!
    1814:	e12fff1e 	bx	lr
			1814: R_ARM_V4BX	*ABS*

00001818 <pixman_composite_scanline_out_reverse_asm_neon>:
    1818:	e1a0c001 	mov	ip, r1
    181c:	e3500008 	cmp	r0, #8
    1820:	ba000085 	blt	1a3c <pixman_composite_scanline_out_reverse_asm_neon+0x224>
    1824:	e31c000f 	tst	ip, #15
    1828:	0a00002c 	beq	18e0 <pixman_composite_scanline_out_reverse_asm_neon+0xc8>
    182c:	e31c0004 	tst	ip, #4
    1830:	0a000002 	beq	1840 <pixman_composite_scanline_out_reverse_asm_neon+0x28>
    1834:	f4a2088d 	vld1.32	{d0[1]}, [r2]!
    1838:	f4ac488d 	vld1.32	{d4[1]}, [ip]!
    183c:	e2400001 	sub	r0, r0, #1
    1840:	e31c0008 	tst	ip, #8
    1844:	0a000002 	beq	1854 <pixman_composite_scanline_out_reverse_asm_neon+0x3c>
    1848:	f422178d 	vld1.32	{d1}, [r2]!
    184c:	f42c579d 	vld1.32	{d5}, [ip :64]!
    1850:	e2400002 	sub	r0, r0, #2
    1854:	f4222a8d 	vld1.32	{d2-d3}, [r2]!
    1858:	f42c6aad 	vld1.32	{d6-d7}, [ip :128]!
    185c:	e2400004 	sub	r0, r0, #4
    1860:	f3b20101 	vuzp.8	d0, d1
    1864:	f3b22103 	vuzp.8	d2, d3
    1868:	f3b21103 	vuzp.8	d1, d3
    186c:	f3b20102 	vuzp.8	d0, d2
    1870:	f3b24105 	vuzp.8	d4, d5
    1874:	f3b26107 	vuzp.8	d6, d7
    1878:	f3b25107 	vuzp.8	d5, d7
    187c:	f3b24106 	vuzp.8	d4, d6
    1880:	f3f08583 	vmvn	d24, d3
    1884:	f3c80c84 	vmull.u8	q8, d24, d4
    1888:	f3c82c85 	vmull.u8	q9, d24, d5
    188c:	f3c84c86 	vmull.u8	q10, d24, d6
    1890:	f3c86c87 	vmull.u8	q11, d24, d7
    1894:	f3d8c270 	vrshr.u16	q14, q8, #8
    1898:	f3d8e272 	vrshr.u16	q15, q9, #8
    189c:	f3d88274 	vrshr.u16	q12, q10, #8
    18a0:	f3d8a276 	vrshr.u16	q13, q11, #8
    18a4:	f3ccc4a0 	vraddhn.i16	d28, q14, q8
    18a8:	f3ced4a2 	vraddhn.i16	d29, q15, q9
    18ac:	f3c8e4a4 	vraddhn.i16	d30, q12, q10
    18b0:	f3caf4a6 	vraddhn.i16	d31, q13, q11
    18b4:	f3f2c1ae 	vzip.8	d28, d30
    18b8:	f3f2d1af 	vzip.8	d29, d31
    18bc:	f3f2e1af 	vzip.8	d30, d31
    18c0:	f3f2c1ad 	vzip.8	d28, d29
    18c4:	e3110004 	tst	r1, #4
    18c8:	0a000000 	beq	18d0 <pixman_composite_scanline_out_reverse_asm_neon+0xb8>
    18cc:	f4c1c88d 	vst1.32	{d28[1]}, [r1]!
    18d0:	e3110008 	tst	r1, #8
    18d4:	0a000000 	beq	18dc <pixman_composite_scanline_out_reverse_asm_neon+0xc4>
    18d8:	f441d79d 	vst1.32	{d29}, [r1 :64]!
    18dc:	f441eaad 	vst1.32	{d30-d31}, [r1 :128]!
    18e0:	e2500008 	subs	r0, r0, #8
    18e4:	ba000023 	blt	1978 <pixman_composite_scanline_out_reverse_asm_neon+0x160>
    18e8:	f42c402d 	vld4.8	{d4-d7}, [ip :128]!
    18ec:	f422000d 	vld4.8	{d0-d3}, [r2]!
    18f0:	f3f08583 	vmvn	d24, d3
    18f4:	f3c80c84 	vmull.u8	q8, d24, d4
    18f8:	f3c82c85 	vmull.u8	q9, d24, d5
    18fc:	f3c84c86 	vmull.u8	q10, d24, d6
    1900:	f3c86c87 	vmull.u8	q11, d24, d7
    1904:	e2500008 	subs	r0, r0, #8
    1908:	ba000011 	blt	1954 <pixman_composite_scanline_out_reverse_asm_neon+0x13c>
    190c:	f42c402d 	vld4.8	{d4-d7}, [ip :128]!
    1910:	f3d8c270 	vrshr.u16	q14, q8, #8
    1914:	f3d8e272 	vrshr.u16	q15, q9, #8
    1918:	f3d88274 	vrshr.u16	q12, q10, #8
    191c:	f3d8a276 	vrshr.u16	q13, q11, #8
    1920:	f3ccc4a0 	vraddhn.i16	d28, q14, q8
    1924:	f3ced4a2 	vraddhn.i16	d29, q15, q9
    1928:	f3c8e4a4 	vraddhn.i16	d30, q12, q10
    192c:	f3caf4a6 	vraddhn.i16	d31, q13, q11
    1930:	f422000d 	vld4.8	{d0-d3}, [r2]!
    1934:	f3f06583 	vmvn	d22, d3
    1938:	f441c02d 	vst4.8	{d28-d31}, [r1 :128]!
    193c:	f3c60c84 	vmull.u8	q8, d22, d4
    1940:	f3c62c85 	vmull.u8	q9, d22, d5
    1944:	f3c64c86 	vmull.u8	q10, d22, d6
    1948:	f3c66c87 	vmull.u8	q11, d22, d7
    194c:	e2500008 	subs	r0, r0, #8
    1950:	aaffffed 	bge	190c <pixman_composite_scanline_out_reverse_asm_neon+0xf4>
    1954:	f3d8c270 	vrshr.u16	q14, q8, #8
    1958:	f3d8e272 	vrshr.u16	q15, q9, #8
    195c:	f3d88274 	vrshr.u16	q12, q10, #8
    1960:	f3d8a276 	vrshr.u16	q13, q11, #8
    1964:	f3ccc4a0 	vraddhn.i16	d28, q14, q8
    1968:	f3ced4a2 	vraddhn.i16	d29, q15, q9
    196c:	f3c8e4a4 	vraddhn.i16	d30, q12, q10
    1970:	f3caf4a6 	vraddhn.i16	d31, q13, q11
    1974:	f441c02d 	vst4.8	{d28-d31}, [r1 :128]!
    1978:	e3100007 	tst	r0, #7
    197c:	0a00002d 	beq	1a38 <pixman_composite_scanline_out_reverse_asm_neon+0x220>
    1980:	e3100004 	tst	r0, #4
    1984:	0a000001 	beq	1990 <pixman_composite_scanline_out_reverse_asm_neon+0x178>
    1988:	f4222a8d 	vld1.32	{d2-d3}, [r2]!
    198c:	f42c6aad 	vld1.32	{d6-d7}, [ip :128]!
    1990:	e3100002 	tst	r0, #2
    1994:	0a000001 	beq	19a0 <pixman_composite_scanline_out_reverse_asm_neon+0x188>
    1998:	f422178d 	vld1.32	{d1}, [r2]!
    199c:	f42c579d 	vld1.32	{d5}, [ip :64]!
    19a0:	e3100001 	tst	r0, #1
    19a4:	0a000001 	beq	19b0 <pixman_composite_scanline_out_reverse_asm_neon+0x198>
    19a8:	f4a2088d 	vld1.32	{d0[1]}, [r2]!
    19ac:	f4ac488d 	vld1.32	{d4[1]}, [ip]!
    19b0:	f3b20101 	vuzp.8	d0, d1
    19b4:	f3b22103 	vuzp.8	d2, d3
    19b8:	f3b21103 	vuzp.8	d1, d3
    19bc:	f3b20102 	vuzp.8	d0, d2
    19c0:	f3b24105 	vuzp.8	d4, d5
    19c4:	f3b26107 	vuzp.8	d6, d7
    19c8:	f3b25107 	vuzp.8	d5, d7
    19cc:	f3b24106 	vuzp.8	d4, d6
    19d0:	f3f08583 	vmvn	d24, d3
    19d4:	f3c80c84 	vmull.u8	q8, d24, d4
    19d8:	f3c82c85 	vmull.u8	q9, d24, d5
    19dc:	f3c84c86 	vmull.u8	q10, d24, d6
    19e0:	f3c86c87 	vmull.u8	q11, d24, d7
    19e4:	f3d8c270 	vrshr.u16	q14, q8, #8
    19e8:	f3d8e272 	vrshr.u16	q15, q9, #8
    19ec:	f3d88274 	vrshr.u16	q12, q10, #8
    19f0:	f3d8a276 	vrshr.u16	q13, q11, #8
    19f4:	f3ccc4a0 	vraddhn.i16	d28, q14, q8
    19f8:	f3ced4a2 	vraddhn.i16	d29, q15, q9
    19fc:	f3c8e4a4 	vraddhn.i16	d30, q12, q10
    1a00:	f3caf4a6 	vraddhn.i16	d31, q13, q11
    1a04:	f3f2c1ae 	vzip.8	d28, d30
    1a08:	f3f2d1af 	vzip.8	d29, d31
    1a0c:	f3f2e1af 	vzip.8	d30, d31
    1a10:	f3f2c1ad 	vzip.8	d28, d29
    1a14:	e3100004 	tst	r0, #4
    1a18:	0a000000 	beq	1a20 <pixman_composite_scanline_out_reverse_asm_neon+0x208>
    1a1c:	f441eaad 	vst1.32	{d30-d31}, [r1 :128]!
    1a20:	e3100002 	tst	r0, #2
    1a24:	0a000000 	beq	1a2c <pixman_composite_scanline_out_reverse_asm_neon+0x214>
    1a28:	f441d79d 	vst1.32	{d29}, [r1 :64]!
    1a2c:	e3100001 	tst	r0, #1
    1a30:	0a000000 	beq	1a38 <pixman_composite_scanline_out_reverse_asm_neon+0x220>
    1a34:	f4c1c88d 	vst1.32	{d28[1]}, [r1]!
    1a38:	e12fff1e 	bx	lr
			1a38: R_ARM_V4BX	*ABS*
    1a3c:	e3100007 	tst	r0, #7
    1a40:	0a00002d 	beq	1afc <pixman_composite_scanline_out_reverse_asm_neon+0x2e4>
    1a44:	e3100004 	tst	r0, #4
    1a48:	0a000001 	beq	1a54 <pixman_composite_scanline_out_reverse_asm_neon+0x23c>
    1a4c:	f4222a8d 	vld1.32	{d2-d3}, [r2]!
    1a50:	f42c6a8d 	vld1.32	{d6-d7}, [ip]!
    1a54:	e3100002 	tst	r0, #2
    1a58:	0a000001 	beq	1a64 <pixman_composite_scanline_out_reverse_asm_neon+0x24c>
    1a5c:	f422178d 	vld1.32	{d1}, [r2]!
    1a60:	f42c578d 	vld1.32	{d5}, [ip]!
    1a64:	e3100001 	tst	r0, #1
    1a68:	0a000001 	beq	1a74 <pixman_composite_scanline_out_reverse_asm_neon+0x25c>
    1a6c:	f4a2088d 	vld1.32	{d0[1]}, [r2]!
    1a70:	f4ac488d 	vld1.32	{d4[1]}, [ip]!
    1a74:	f3b20101 	vuzp.8	d0, d1
    1a78:	f3b22103 	vuzp.8	d2, d3
    1a7c:	f3b21103 	vuzp.8	d1, d3
    1a80:	f3b20102 	vuzp.8	d0, d2
    1a84:	f3b24105 	vuzp.8	d4, d5
    1a88:	f3b26107 	vuzp.8	d6, d7
    1a8c:	f3b25107 	vuzp.8	d5, d7
    1a90:	f3b24106 	vuzp.8	d4, d6
    1a94:	f3f08583 	vmvn	d24, d3
    1a98:	f3c80c84 	vmull.u8	q8, d24, d4
    1a9c:	f3c82c85 	vmull.u8	q9, d24, d5
    1aa0:	f3c84c86 	vmull.u8	q10, d24, d6
    1aa4:	f3c86c87 	vmull.u8	q11, d24, d7
    1aa8:	f3d8c270 	vrshr.u16	q14, q8, #8
    1aac:	f3d8e272 	vrshr.u16	q15, q9, #8
    1ab0:	f3d88274 	vrshr.u16	q12, q10, #8
    1ab4:	f3d8a276 	vrshr.u16	q13, q11, #8
    1ab8:	f3ccc4a0 	vraddhn.i16	d28, q14, q8
    1abc:	f3ced4a2 	vraddhn.i16	d29, q15, q9
    1ac0:	f3c8e4a4 	vraddhn.i16	d30, q12, q10
    1ac4:	f3caf4a6 	vraddhn.i16	d31, q13, q11
    1ac8:	f3f2c1ae 	vzip.8	d28, d30
    1acc:	f3f2d1af 	vzip.8	d29, d31
    1ad0:	f3f2e1af 	vzip.8	d30, d31
    1ad4:	f3f2c1ad 	vzip.8	d28, d29
    1ad8:	e3100004 	tst	r0, #4
    1adc:	0a000000 	beq	1ae4 <pixman_composite_scanline_out_reverse_asm_neon+0x2cc>
    1ae0:	f441ea8d 	vst1.32	{d30-d31}, [r1]!
    1ae4:	e3100002 	tst	r0, #2
    1ae8:	0a000000 	beq	1af0 <pixman_composite_scanline_out_reverse_asm_neon+0x2d8>
    1aec:	f441d78d 	vst1.32	{d29}, [r1]!
    1af0:	e3100001 	tst	r0, #1
    1af4:	0a000000 	beq	1afc <pixman_composite_scanline_out_reverse_asm_neon+0x2e4>
    1af8:	f4c1c88d 	vst1.32	{d28[1]}, [r1]!
    1afc:	e12fff1e 	bx	lr
			1afc: R_ARM_V4BX	*ABS*

00001b00 <pixman_composite_over_8888_8888_asm_neon>:
    1b00:	e92d5ff0 	push	{r4, r5, r6, r7, r8, r9, sl, fp, ip, lr}
    1b04:	e59d4028 	ldr	r4, [sp, #40]	; 0x28
    1b08:	e3a0a000 	mov	sl, #0
    1b0c:	e59d502c 	ldr	r5, [sp, #44]	; 0x2c
    1b10:	e1a06002 	mov	r6, r2
    1b14:	e1a0b004 	mov	fp, r4
    1b18:	e1a0c006 	mov	ip, r6
    1b1c:	e1a0e007 	mov	lr, r7
    1b20:	e1a09201 	lsl	r9, r1, #4
    1b24:	e249900b 	sub	r9, r9, #11
    1b28:	e2511001 	subs	r1, r1, #1
    1b2c:	e1a07000 	mov	r7, r0
    1b30:	ba000113 	blt	1f84 <pixman_composite_over_8888_8888_asm_neon+0x484>
    1b34:	e3500010 	cmp	r0, #16
    1b38:	ba0000c3 	blt	1e4c <pixman_composite_over_8888_8888_asm_neon+0x34c>
    1b3c:	e316000f 	tst	r6, #15
    1b40:	0a00003b 	beq	1c34 <pixman_composite_over_8888_8888_asm_neon+0x134>
    1b44:	e3160004 	tst	r6, #4
    1b48:	0a000003 	beq	1b5c <pixman_composite_over_8888_8888_asm_neon+0x5c>
    1b4c:	f4a4088d 	vld1.32	{d0[1]}, [r4]!
    1b50:	f4a6488d 	vld1.32	{d4[1]}, [r6]!
    1b54:	e28aa001 	add	sl, sl, #1
    1b58:	e2400001 	sub	r0, r0, #1
    1b5c:	e3160008 	tst	r6, #8
    1b60:	0a000003 	beq	1b74 <pixman_composite_over_8888_8888_asm_neon+0x74>
    1b64:	f424178d 	vld1.32	{d1}, [r4]!
    1b68:	f426579d 	vld1.32	{d5}, [r6 :64]!
    1b6c:	e28aa002 	add	sl, sl, #2
    1b70:	e2400002 	sub	r0, r0, #2
    1b74:	f4242a8d 	vld1.32	{d2-d3}, [r4]!
    1b78:	f4266aad 	vld1.32	{d6-d7}, [r6 :128]!
    1b7c:	e28aa004 	add	sl, sl, #4
    1b80:	e2400004 	sub	r0, r0, #4
    1b84:	f3b20101 	vuzp.8	d0, d1
    1b88:	f3b22103 	vuzp.8	d2, d3
    1b8c:	f3b21103 	vuzp.8	d1, d3
    1b90:	f3b20102 	vuzp.8	d0, d2
    1b94:	f3b24105 	vuzp.8	d4, d5
    1b98:	f3b26107 	vuzp.8	d6, d7
    1b9c:	f3b25107 	vuzp.8	d5, d7
    1ba0:	f3b24106 	vuzp.8	d4, d6
    1ba4:	f3f08583 	vmvn	d24, d3
    1ba8:	f3c80c84 	vmull.u8	q8, d24, d4
    1bac:	f3c82c85 	vmull.u8	q9, d24, d5
    1bb0:	f3c84c86 	vmull.u8	q10, d24, d6
    1bb4:	f3c86c87 	vmull.u8	q11, d24, d7
    1bb8:	e319000f 	tst	r9, #15
    1bbc:	128aa008 	addne	sl, sl, #8
    1bc0:	12499001 	subne	r9, r9, #1
    1bc4:	e15a0007 	cmp	sl, r7
    1bc8:	f7dbf10a 	pld	[fp, sl, lsl #2]
    1bcc:	f7dcf10a 	pld	[ip, sl, lsl #2]
    1bd0:	a04aa007 	subge	sl, sl, r7
    1bd4:	a2599010 	subsge	r9, r9, #16
    1bd8:	a7fb8105 	ldrbge	r8, [fp, r5, lsl #2]!
    1bdc:	a7fc8103 	ldrbge	r8, [ip, r3, lsl #2]!
    1be0:	f3d8c270 	vrshr.u16	q14, q8, #8
    1be4:	f3d8e272 	vrshr.u16	q15, q9, #8
    1be8:	f3d88274 	vrshr.u16	q12, q10, #8
    1bec:	f3d8a276 	vrshr.u16	q13, q11, #8
    1bf0:	f3ccc4a0 	vraddhn.i16	d28, q14, q8
    1bf4:	f3ced4a2 	vraddhn.i16	d29, q15, q9
    1bf8:	f3c8e4a4 	vraddhn.i16	d30, q12, q10
    1bfc:	f3caf4a6 	vraddhn.i16	d31, q13, q11
    1c00:	f340c07c 	vqadd.u8	q14, q0, q14
    1c04:	f342e07e 	vqadd.u8	q15, q1, q15
    1c08:	f3f2c1ae 	vzip.8	d28, d30
    1c0c:	f3f2d1af 	vzip.8	d29, d31
    1c10:	f3f2e1af 	vzip.8	d30, d31
    1c14:	f3f2c1ad 	vzip.8	d28, d29
    1c18:	e3120004 	tst	r2, #4
    1c1c:	0a000000 	beq	1c24 <pixman_composite_over_8888_8888_asm_neon+0x124>
    1c20:	f4c2c88d 	vst1.32	{d28[1]}, [r2]!
    1c24:	e3120008 	tst	r2, #8
    1c28:	0a000000 	beq	1c30 <pixman_composite_over_8888_8888_asm_neon+0x130>
    1c2c:	f442d79d 	vst1.32	{d29}, [r2 :64]!
    1c30:	f442eaad 	vst1.32	{d30-d31}, [r2 :128]!
    1c34:	f426402d 	vld4.8	{d4-d7}, [r6 :128]!
    1c38:	f424000d 	vld4.8	{d0-d3}, [r4]!
    1c3c:	e28aa008 	add	sl, sl, #8
    1c40:	f3f08583 	vmvn	d24, d3
    1c44:	f3c80c84 	vmull.u8	q8, d24, d4
    1c48:	f3c82c85 	vmull.u8	q9, d24, d5
    1c4c:	f3c84c86 	vmull.u8	q10, d24, d6
    1c50:	f3c86c87 	vmull.u8	q11, d24, d7
    1c54:	e319000f 	tst	r9, #15
    1c58:	128aa008 	addne	sl, sl, #8
    1c5c:	12499001 	subne	r9, r9, #1
    1c60:	e15a0007 	cmp	sl, r7
    1c64:	f7dbf10a 	pld	[fp, sl, lsl #2]
    1c68:	f7dcf10a 	pld	[ip, sl, lsl #2]
    1c6c:	a04aa007 	subge	sl, sl, r7
    1c70:	a2599010 	subsge	r9, r9, #16
    1c74:	a7fb8105 	ldrbge	r8, [fp, r5, lsl #2]!
    1c78:	a7fc8103 	ldrbge	r8, [ip, r3, lsl #2]!
    1c7c:	e2500010 	subs	r0, r0, #16
    1c80:	ba00001e 	blt	1d00 <pixman_composite_over_8888_8888_asm_neon+0x200>
    1c84:	f426402d 	vld4.8	{d4-d7}, [r6 :128]!
    1c88:	f3d8c270 	vrshr.u16	q14, q8, #8
    1c8c:	e28aa008 	add	sl, sl, #8
    1c90:	e319000f 	tst	r9, #15
    1c94:	f3d8e272 	vrshr.u16	q15, q9, #8
    1c98:	f3d88274 	vrshr.u16	q12, q10, #8
    1c9c:	f3d8a276 	vrshr.u16	q13, q11, #8
    1ca0:	128aa008 	addne	sl, sl, #8
    1ca4:	12499001 	subne	r9, r9, #1
    1ca8:	f3ccc4a0 	vraddhn.i16	d28, q14, q8
    1cac:	f3ced4a2 	vraddhn.i16	d29, q15, q9
    1cb0:	e15a0007 	cmp	sl, r7
    1cb4:	f3c8e4a4 	vraddhn.i16	d30, q12, q10
    1cb8:	f3caf4a6 	vraddhn.i16	d31, q13, q11
    1cbc:	f340c07c 	vqadd.u8	q14, q0, q14
    1cc0:	f342e07e 	vqadd.u8	q15, q1, q15
    1cc4:	f424000d 	vld4.8	{d0-d3}, [r4]!
    1cc8:	f7dbf10a 	pld	[fp, sl, lsl #2]
    1ccc:	f3f06583 	vmvn	d22, d3
    1cd0:	f7dcf10a 	pld	[ip, sl, lsl #2]
    1cd4:	f442c02d 	vst4.8	{d28-d31}, [r2 :128]!
    1cd8:	a04aa007 	subge	sl, sl, r7
    1cdc:	f3c60c84 	vmull.u8	q8, d22, d4
    1ce0:	a2599010 	subsge	r9, r9, #16
    1ce4:	f3c62c85 	vmull.u8	q9, d22, d5
    1ce8:	a7fb8105 	ldrbge	r8, [fp, r5, lsl #2]!
    1cec:	f3c64c86 	vmull.u8	q10, d22, d6
    1cf0:	a7fc8103 	ldrbge	r8, [ip, r3, lsl #2]!
    1cf4:	f3c66c87 	vmull.u8	q11, d22, d7
    1cf8:	e2500008 	subs	r0, r0, #8
    1cfc:	aaffffe0 	bge	1c84 <pixman_composite_over_8888_8888_asm_neon+0x184>
    1d00:	f3d8c270 	vrshr.u16	q14, q8, #8
    1d04:	f3d8e272 	vrshr.u16	q15, q9, #8
    1d08:	f3d88274 	vrshr.u16	q12, q10, #8
    1d0c:	f3d8a276 	vrshr.u16	q13, q11, #8
    1d10:	f3ccc4a0 	vraddhn.i16	d28, q14, q8
    1d14:	f3ced4a2 	vraddhn.i16	d29, q15, q9
    1d18:	f3c8e4a4 	vraddhn.i16	d30, q12, q10
    1d1c:	f3caf4a6 	vraddhn.i16	d31, q13, q11
    1d20:	f340c07c 	vqadd.u8	q14, q0, q14
    1d24:	f342e07e 	vqadd.u8	q15, q1, q15
    1d28:	f442c02d 	vst4.8	{d28-d31}, [r2 :128]!
    1d2c:	e3100007 	tst	r0, #7
    1d30:	0a00003c 	beq	1e28 <pixman_composite_over_8888_8888_asm_neon+0x328>
    1d34:	e3100004 	tst	r0, #4
    1d38:	0a000002 	beq	1d48 <pixman_composite_over_8888_8888_asm_neon+0x248>
    1d3c:	f4242a8d 	vld1.32	{d2-d3}, [r4]!
    1d40:	f4266aad 	vld1.32	{d6-d7}, [r6 :128]!
    1d44:	e28aa004 	add	sl, sl, #4
    1d48:	e3100002 	tst	r0, #2
    1d4c:	0a000002 	beq	1d5c <pixman_composite_over_8888_8888_asm_neon+0x25c>
    1d50:	f424178d 	vld1.32	{d1}, [r4]!
    1d54:	f426579d 	vld1.32	{d5}, [r6 :64]!
    1d58:	e28aa002 	add	sl, sl, #2
    1d5c:	e3100001 	tst	r0, #1
    1d60:	0a000002 	beq	1d70 <pixman_composite_over_8888_8888_asm_neon+0x270>
    1d64:	f4a4088d 	vld1.32	{d0[1]}, [r4]!
    1d68:	f4a6488d 	vld1.32	{d4[1]}, [r6]!
    1d6c:	e28aa001 	add	sl, sl, #1
    1d70:	f3b20101 	vuzp.8	d0, d1
    1d74:	f3b22103 	vuzp.8	d2, d3
    1d78:	f3b21103 	vuzp.8	d1, d3
    1d7c:	f3b20102 	vuzp.8	d0, d2
    1d80:	f3b24105 	vuzp.8	d4, d5
    1d84:	f3b26107 	vuzp.8	d6, d7
    1d88:	f3b25107 	vuzp.8	d5, d7
    1d8c:	f3b24106 	vuzp.8	d4, d6
    1d90:	f3f08583 	vmvn	d24, d3
    1d94:	f3c80c84 	vmull.u8	q8, d24, d4
    1d98:	f3c82c85 	vmull.u8	q9, d24, d5
    1d9c:	f3c84c86 	vmull.u8	q10, d24, d6
    1da0:	f3c86c87 	vmull.u8	q11, d24, d7
    1da4:	e319000f 	tst	r9, #15
    1da8:	128aa008 	addne	sl, sl, #8
    1dac:	12499001 	subne	r9, r9, #1
    1db0:	e15a0007 	cmp	sl, r7
    1db4:	f7dbf10a 	pld	[fp, sl, lsl #2]
    1db8:	f7dcf10a 	pld	[ip, sl, lsl #2]
    1dbc:	a04aa007 	subge	sl, sl, r7
    1dc0:	a2599010 	subsge	r9, r9, #16
    1dc4:	a7fb8105 	ldrbge	r8, [fp, r5, lsl #2]!
    1dc8:	a7fc8103 	ldrbge	r8, [ip, r3, lsl #2]!
    1dcc:	f3d8c270 	vrshr.u16	q14, q8, #8
    1dd0:	f3d8e272 	vrshr.u16	q15, q9, #8
    1dd4:	f3d88274 	vrshr.u16	q12, q10, #8
    1dd8:	f3d8a276 	vrshr.u16	q13, q11, #8
    1ddc:	f3ccc4a0 	vraddhn.i16	d28, q14, q8
    1de0:	f3ced4a2 	vraddhn.i16	d29, q15, q9
    1de4:	f3c8e4a4 	vraddhn.i16	d30, q12, q10
    1de8:	f3caf4a6 	vraddhn.i16	d31, q13, q11
    1dec:	f340c07c 	vqadd.u8	q14, q0, q14
    1df0:	f342e07e 	vqadd.u8	q15, q1, q15
    1df4:	f3f2c1ae 	vzip.8	d28, d30
    1df8:	f3f2d1af 	vzip.8	d29, d31
    1dfc:	f3f2e1af 	vzip.8	d30, d31
    1e00:	f3f2c1ad 	vzip.8	d28, d29
    1e04:	e3100004 	tst	r0, #4
    1e08:	0a000000 	beq	1e10 <pixman_composite_over_8888_8888_asm_neon+0x310>
    1e0c:	f442eaad 	vst1.32	{d30-d31}, [r2 :128]!
    1e10:	e3100002 	tst	r0, #2
    1e14:	0a000000 	beq	1e1c <pixman_composite_over_8888_8888_asm_neon+0x31c>
    1e18:	f442d79d 	vst1.32	{d29}, [r2 :64]!
    1e1c:	e3100001 	tst	r0, #1
    1e20:	0a000000 	beq	1e28 <pixman_composite_over_8888_8888_asm_neon+0x328>
    1e24:	f4c2c88d 	vst1.32	{d28[1]}, [r2]!
    1e28:	e1a00007 	mov	r0, r7
    1e2c:	e0822103 	add	r2, r2, r3, lsl #2
    1e30:	e0844105 	add	r4, r4, r5, lsl #2
    1e34:	e0422100 	sub	r2, r2, r0, lsl #2
    1e38:	e0444100 	sub	r4, r4, r0, lsl #2
    1e3c:	e2511001 	subs	r1, r1, #1
    1e40:	e1a06002 	mov	r6, r2
    1e44:	aaffff3c 	bge	1b3c <pixman_composite_over_8888_8888_asm_neon+0x3c>
    1e48:	e8bd9ff0 	pop	{r4, r5, r6, r7, r8, r9, sl, fp, ip, pc}
    1e4c:	e3100008 	tst	r0, #8
    1e50:	0a000011 	beq	1e9c <pixman_composite_over_8888_8888_asm_neon+0x39c>
    1e54:	f426400d 	vld4.8	{d4-d7}, [r6]!
    1e58:	f424000d 	vld4.8	{d0-d3}, [r4]!
    1e5c:	f3f08583 	vmvn	d24, d3
    1e60:	f3c80c84 	vmull.u8	q8, d24, d4
    1e64:	f3c82c85 	vmull.u8	q9, d24, d5
    1e68:	f3c84c86 	vmull.u8	q10, d24, d6
    1e6c:	f3c86c87 	vmull.u8	q11, d24, d7
    1e70:	f3d8c270 	vrshr.u16	q14, q8, #8
    1e74:	f3d8e272 	vrshr.u16	q15, q9, #8
    1e78:	f3d88274 	vrshr.u16	q12, q10, #8
    1e7c:	f3d8a276 	vrshr.u16	q13, q11, #8
    1e80:	f3ccc4a0 	vraddhn.i16	d28, q14, q8
    1e84:	f3ced4a2 	vraddhn.i16	d29, q15, q9
    1e88:	f3c8e4a4 	vraddhn.i16	d30, q12, q10
    1e8c:	f3caf4a6 	vraddhn.i16	d31, q13, q11
    1e90:	f340c07c 	vqadd.u8	q14, q0, q14
    1e94:	f342e07e 	vqadd.u8	q15, q1, q15
    1e98:	f442c00d 	vst4.8	{d28-d31}, [r2]!
    1e9c:	e3100007 	tst	r0, #7
    1ea0:	0a00002f 	beq	1f64 <pixman_composite_over_8888_8888_asm_neon+0x464>
    1ea4:	e3100004 	tst	r0, #4
    1ea8:	0a000001 	beq	1eb4 <pixman_composite_over_8888_8888_asm_neon+0x3b4>
    1eac:	f4242a8d 	vld1.32	{d2-d3}, [r4]!
    1eb0:	f4266a8d 	vld1.32	{d6-d7}, [r6]!
    1eb4:	e3100002 	tst	r0, #2
    1eb8:	0a000001 	beq	1ec4 <pixman_composite_over_8888_8888_asm_neon+0x3c4>
    1ebc:	f424178d 	vld1.32	{d1}, [r4]!
    1ec0:	f426578d 	vld1.32	{d5}, [r6]!
    1ec4:	e3100001 	tst	r0, #1
    1ec8:	0a000001 	beq	1ed4 <pixman_composite_over_8888_8888_asm_neon+0x3d4>
    1ecc:	f4a4088d 	vld1.32	{d0[1]}, [r4]!
    1ed0:	f4a6488d 	vld1.32	{d4[1]}, [r6]!
    1ed4:	f3b20101 	vuzp.8	d0, d1
    1ed8:	f3b22103 	vuzp.8	d2, d3
    1edc:	f3b21103 	vuzp.8	d1, d3
    1ee0:	f3b20102 	vuzp.8	d0, d2
    1ee4:	f3b24105 	vuzp.8	d4, d5
    1ee8:	f3b26107 	vuzp.8	d6, d7
    1eec:	f3b25107 	vuzp.8	d5, d7
    1ef0:	f3b24106 	vuzp.8	d4, d6
    1ef4:	f3f08583 	vmvn	d24, d3
    1ef8:	f3c80c84 	vmull.u8	q8, d24, d4
    1efc:	f3c82c85 	vmull.u8	q9, d24, d5
    1f00:	f3c84c86 	vmull.u8	q10, d24, d6
    1f04:	f3c86c87 	vmull.u8	q11, d24, d7
    1f08:	f3d8c270 	vrshr.u16	q14, q8, #8
    1f0c:	f3d8e272 	vrshr.u16	q15, q9, #8
    1f10:	f3d88274 	vrshr.u16	q12, q10, #8
    1f14:	f3d8a276 	vrshr.u16	q13, q11, #8
    1f18:	f3ccc4a0 	vraddhn.i16	d28, q14, q8
    1f1c:	f3ced4a2 	vraddhn.i16	d29, q15, q9
    1f20:	f3c8e4a4 	vraddhn.i16	d30, q12, q10
    1f24:	f3caf4a6 	vraddhn.i16	d31, q13, q11
    1f28:	f340c07c 	vqadd.u8	q14, q0, q14
    1f2c:	f342e07e 	vqadd.u8	q15, q1, q15
    1f30:	f3f2c1ae 	vzip.8	d28, d30
    1f34:	f3f2d1af 	vzip.8	d29, d31
    1f38:	f3f2e1af 	vzip.8	d30, d31
    1f3c:	f3f2c1ad 	vzip.8	d28, d29
    1f40:	e3100004 	tst	r0, #4
    1f44:	0a000000 	beq	1f4c <pixman_composite_over_8888_8888_asm_neon+0x44c>
    1f48:	f442ea8d 	vst1.32	{d30-d31}, [r2]!
    1f4c:	e3100002 	tst	r0, #2
    1f50:	0a000000 	beq	1f58 <pixman_composite_over_8888_8888_asm_neon+0x458>
    1f54:	f442d78d 	vst1.32	{d29}, [r2]!
    1f58:	e3100001 	tst	r0, #1
    1f5c:	0a000000 	beq	1f64 <pixman_composite_over_8888_8888_asm_neon+0x464>
    1f60:	f4c2c88d 	vst1.32	{d28[1]}, [r2]!
    1f64:	e1a00007 	mov	r0, r7
    1f68:	e0822103 	add	r2, r2, r3, lsl #2
    1f6c:	e0844105 	add	r4, r4, r5, lsl #2
    1f70:	e0422100 	sub	r2, r2, r0, lsl #2
    1f74:	e0444100 	sub	r4, r4, r0, lsl #2
    1f78:	e2511001 	subs	r1, r1, #1
    1f7c:	e1a06002 	mov	r6, r2
    1f80:	aaffffb1 	bge	1e4c <pixman_composite_over_8888_8888_asm_neon+0x34c>
    1f84:	e8bd9ff0 	pop	{r4, r5, r6, r7, r8, r9, sl, fp, ip, pc}

00001f88 <pixman_composite_scanline_over_asm_neon>:
    1f88:	e1a0c001 	mov	ip, r1
    1f8c:	e3500008 	cmp	r0, #8
    1f90:	ba00008d 	blt	21cc <pixman_composite_scanline_over_asm_neon+0x244>
    1f94:	e31c000f 	tst	ip, #15
    1f98:	0a00002e 	beq	2058 <pixman_composite_scanline_over_asm_neon+0xd0>
    1f9c:	e31c0004 	tst	ip, #4
    1fa0:	0a000002 	beq	1fb0 <pixman_composite_scanline_over_asm_neon+0x28>
    1fa4:	f4a2088d 	vld1.32	{d0[1]}, [r2]!
    1fa8:	f4ac488d 	vld1.32	{d4[1]}, [ip]!
    1fac:	e2400001 	sub	r0, r0, #1
    1fb0:	e31c0008 	tst	ip, #8
    1fb4:	0a000002 	beq	1fc4 <pixman_composite_scanline_over_asm_neon+0x3c>
    1fb8:	f422178d 	vld1.32	{d1}, [r2]!
    1fbc:	f42c579d 	vld1.32	{d5}, [ip :64]!
    1fc0:	e2400002 	sub	r0, r0, #2
    1fc4:	f4222a8d 	vld1.32	{d2-d3}, [r2]!
    1fc8:	f42c6aad 	vld1.32	{d6-d7}, [ip :128]!
    1fcc:	e2400004 	sub	r0, r0, #4
    1fd0:	f3b20101 	vuzp.8	d0, d1
    1fd4:	f3b22103 	vuzp.8	d2, d3
    1fd8:	f3b21103 	vuzp.8	d1, d3
    1fdc:	f3b20102 	vuzp.8	d0, d2
    1fe0:	f3b24105 	vuzp.8	d4, d5
    1fe4:	f3b26107 	vuzp.8	d6, d7
    1fe8:	f3b25107 	vuzp.8	d5, d7
    1fec:	f3b24106 	vuzp.8	d4, d6
    1ff0:	f3f08583 	vmvn	d24, d3
    1ff4:	f3c80c84 	vmull.u8	q8, d24, d4
    1ff8:	f3c82c85 	vmull.u8	q9, d24, d5
    1ffc:	f3c84c86 	vmull.u8	q10, d24, d6
    2000:	f3c86c87 	vmull.u8	q11, d24, d7
    2004:	f3d8c270 	vrshr.u16	q14, q8, #8
    2008:	f3d8e272 	vrshr.u16	q15, q9, #8
    200c:	f3d88274 	vrshr.u16	q12, q10, #8
    2010:	f3d8a276 	vrshr.u16	q13, q11, #8
    2014:	f3ccc4a0 	vraddhn.i16	d28, q14, q8
    2018:	f3ced4a2 	vraddhn.i16	d29, q15, q9
    201c:	f3c8e4a4 	vraddhn.i16	d30, q12, q10
    2020:	f3caf4a6 	vraddhn.i16	d31, q13, q11
    2024:	f340c07c 	vqadd.u8	q14, q0, q14
    2028:	f342e07e 	vqadd.u8	q15, q1, q15
    202c:	f3f2c1ae 	vzip.8	d28, d30
    2030:	f3f2d1af 	vzip.8	d29, d31
    2034:	f3f2e1af 	vzip.8	d30, d31
    2038:	f3f2c1ad 	vzip.8	d28, d29
    203c:	e3110004 	tst	r1, #4
    2040:	0a000000 	beq	2048 <pixman_composite_scanline_over_asm_neon+0xc0>
    2044:	f4c1c88d 	vst1.32	{d28[1]}, [r1]!
    2048:	e3110008 	tst	r1, #8
    204c:	0a000000 	beq	2054 <pixman_composite_scanline_over_asm_neon+0xcc>
    2050:	f441d79d 	vst1.32	{d29}, [r1 :64]!
    2054:	f441eaad 	vst1.32	{d30-d31}, [r1 :128]!
    2058:	e2500008 	subs	r0, r0, #8
    205c:	ba000027 	blt	2100 <pixman_composite_scanline_over_asm_neon+0x178>
    2060:	f42c402d 	vld4.8	{d4-d7}, [ip :128]!
    2064:	f422000d 	vld4.8	{d0-d3}, [r2]!
    2068:	f3f08583 	vmvn	d24, d3
    206c:	f3c80c84 	vmull.u8	q8, d24, d4
    2070:	f3c82c85 	vmull.u8	q9, d24, d5
    2074:	f3c84c86 	vmull.u8	q10, d24, d6
    2078:	f3c86c87 	vmull.u8	q11, d24, d7
    207c:	e2500008 	subs	r0, r0, #8
    2080:	ba000013 	blt	20d4 <pixman_composite_scanline_over_asm_neon+0x14c>
    2084:	f42c402d 	vld4.8	{d4-d7}, [ip :128]!
    2088:	f3d8c270 	vrshr.u16	q14, q8, #8
    208c:	f3d8e272 	vrshr.u16	q15, q9, #8
    2090:	f3d88274 	vrshr.u16	q12, q10, #8
    2094:	f3d8a276 	vrshr.u16	q13, q11, #8
    2098:	f3ccc4a0 	vraddhn.i16	d28, q14, q8
    209c:	f3ced4a2 	vraddhn.i16	d29, q15, q9
    20a0:	f3c8e4a4 	vraddhn.i16	d30, q12, q10
    20a4:	f3caf4a6 	vraddhn.i16	d31, q13, q11
    20a8:	f340c07c 	vqadd.u8	q14, q0, q14
    20ac:	f342e07e 	vqadd.u8	q15, q1, q15
    20b0:	f422000d 	vld4.8	{d0-d3}, [r2]!
    20b4:	f3f06583 	vmvn	d22, d3
    20b8:	f441c02d 	vst4.8	{d28-d31}, [r1 :128]!
    20bc:	f3c60c84 	vmull.u8	q8, d22, d4
    20c0:	f3c62c85 	vmull.u8	q9, d22, d5
    20c4:	f3c64c86 	vmull.u8	q10, d22, d6
    20c8:	f3c66c87 	vmull.u8	q11, d22, d7
    20cc:	e2500008 	subs	r0, r0, #8
    20d0:	aaffffeb 	bge	2084 <pixman_composite_scanline_over_asm_neon+0xfc>
    20d4:	f3d8c270 	vrshr.u16	q14, q8, #8
    20d8:	f3d8e272 	vrshr.u16	q15, q9, #8
    20dc:	f3d88274 	vrshr.u16	q12, q10, #8
    20e0:	f3d8a276 	vrshr.u16	q13, q11, #8
    20e4:	f3ccc4a0 	vraddhn.i16	d28, q14, q8
    20e8:	f3ced4a2 	vraddhn.i16	d29, q15, q9
    20ec:	f3c8e4a4 	vraddhn.i16	d30, q12, q10
    20f0:	f3caf4a6 	vraddhn.i16	d31, q13, q11
    20f4:	f340c07c 	vqadd.u8	q14, q0, q14
    20f8:	f342e07e 	vqadd.u8	q15, q1, q15
    20fc:	f441c02d 	vst4.8	{d28-d31}, [r1 :128]!
    2100:	e3100007 	tst	r0, #7
    2104:	0a00002f 	beq	21c8 <pixman_composite_scanline_over_asm_neon+0x240>
    2108:	e3100004 	tst	r0, #4
    210c:	0a000001 	beq	2118 <pixman_composite_scanline_over_asm_neon+0x190>
    2110:	f4222a8d 	vld1.32	{d2-d3}, [r2]!
    2114:	f42c6aad 	vld1.32	{d6-d7}, [ip :128]!
    2118:	e3100002 	tst	r0, #2
    211c:	0a000001 	beq	2128 <pixman_composite_scanline_over_asm_neon+0x1a0>
    2120:	f422178d 	vld1.32	{d1}, [r2]!
    2124:	f42c579d 	vld1.32	{d5}, [ip :64]!
    2128:	e3100001 	tst	r0, #1
    212c:	0a000001 	beq	2138 <pixman_composite_scanline_over_asm_neon+0x1b0>
    2130:	f4a2088d 	vld1.32	{d0[1]}, [r2]!
    2134:	f4ac488d 	vld1.32	{d4[1]}, [ip]!
    2138:	f3b20101 	vuzp.8	d0, d1
    213c:	f3b22103 	vuzp.8	d2, d3
    2140:	f3b21103 	vuzp.8	d1, d3
    2144:	f3b20102 	vuzp.8	d0, d2
    2148:	f3b24105 	vuzp.8	d4, d5
    214c:	f3b26107 	vuzp.8	d6, d7
    2150:	f3b25107 	vuzp.8	d5, d7
    2154:	f3b24106 	vuzp.8	d4, d6
    2158:	f3f08583 	vmvn	d24, d3
    215c:	f3c80c84 	vmull.u8	q8, d24, d4
    2160:	f3c82c85 	vmull.u8	q9, d24, d5
    2164:	f3c84c86 	vmull.u8	q10, d24, d6
    2168:	f3c86c87 	vmull.u8	q11, d24, d7
    216c:	f3d8c270 	vrshr.u16	q14, q8, #8
    2170:	f3d8e272 	vrshr.u16	q15, q9, #8
    2174:	f3d88274 	vrshr.u16	q12, q10, #8
    2178:	f3d8a276 	vrshr.u16	q13, q11, #8
    217c:	f3ccc4a0 	vraddhn.i16	d28, q14, q8
    2180:	f3ced4a2 	vraddhn.i16	d29, q15, q9
    2184:	f3c8e4a4 	vraddhn.i16	d30, q12, q10
    2188:	f3caf4a6 	vraddhn.i16	d31, q13, q11
    218c:	f340c07c 	vqadd.u8	q14, q0, q14
    2190:	f342e07e 	vqadd.u8	q15, q1, q15
    2194:	f3f2c1ae 	vzip.8	d28, d30
    2198:	f3f2d1af 	vzip.8	d29, d31
    219c:	f3f2e1af 	vzip.8	d30, d31
    21a0:	f3f2c1ad 	vzip.8	d28, d29
    21a4:	e3100004 	tst	r0, #4
    21a8:	0a000000 	beq	21b0 <pixman_composite_scanline_over_asm_neon+0x228>
    21ac:	f441eaad 	vst1.32	{d30-d31}, [r1 :128]!
    21b0:	e3100002 	tst	r0, #2
    21b4:	0a000000 	beq	21bc <pixman_composite_scanline_over_asm_neon+0x234>
    21b8:	f441d79d 	vst1.32	{d29}, [r1 :64]!
    21bc:	e3100001 	tst	r0, #1
    21c0:	0a000000 	beq	21c8 <pixman_composite_scanline_over_asm_neon+0x240>
    21c4:	f4c1c88d 	vst1.32	{d28[1]}, [r1]!
    21c8:	e12fff1e 	bx	lr
			21c8: R_ARM_V4BX	*ABS*
    21cc:	e3100007 	tst	r0, #7
    21d0:	0a00002f 	beq	2294 <pixman_composite_scanline_over_asm_neon+0x30c>
    21d4:	e3100004 	tst	r0, #4
    21d8:	0a000001 	beq	21e4 <pixman_composite_scanline_over_asm_neon+0x25c>
    21dc:	f4222a8d 	vld1.32	{d2-d3}, [r2]!
    21e0:	f42c6a8d 	vld1.32	{d6-d7}, [ip]!
    21e4:	e3100002 	tst	r0, #2
    21e8:	0a000001 	beq	21f4 <pixman_composite_scanline_over_asm_neon+0x26c>
    21ec:	f422178d 	vld1.32	{d1}, [r2]!
    21f0:	f42c578d 	vld1.32	{d5}, [ip]!
    21f4:	e3100001 	tst	r0, #1
    21f8:	0a000001 	beq	2204 <pixman_composite_scanline_over_asm_neon+0x27c>
    21fc:	f4a2088d 	vld1.32	{d0[1]}, [r2]!
    2200:	f4ac488d 	vld1.32	{d4[1]}, [ip]!
    2204:	f3b20101 	vuzp.8	d0, d1
    2208:	f3b22103 	vuzp.8	d2, d3
    220c:	f3b21103 	vuzp.8	d1, d3
    2210:	f3b20102 	vuzp.8	d0, d2
    2214:	f3b24105 	vuzp.8	d4, d5
    2218:	f3b26107 	vuzp.8	d6, d7
    221c:	f3b25107 	vuzp.8	d5, d7
    2220:	f3b24106 	vuzp.8	d4, d6
    2224:	f3f08583 	vmvn	d24, d3
    2228:	f3c80c84 	vmull.u8	q8, d24, d4
    222c:	f3c82c85 	vmull.u8	q9, d24, d5
    2230:	f3c84c86 	vmull.u8	q10, d24, d6
    2234:	f3c86c87 	vmull.u8	q11, d24, d7
    2238:	f3d8c270 	vrshr.u16	q14, q8, #8
    223c:	f3d8e272 	vrshr.u16	q15, q9, #8
    2240:	f3d88274 	vrshr.u16	q12, q10, #8
    2244:	f3d8a276 	vrshr.u16	q13, q11, #8
    2248:	f3ccc4a0 	vraddhn.i16	d28, q14, q8
    224c:	f3ced4a2 	vraddhn.i16	d29, q15, q9
    2250:	f3c8e4a4 	vraddhn.i16	d30, q12, q10
    2254:	f3caf4a6 	vraddhn.i16	d31, q13, q11
    2258:	f340c07c 	vqadd.u8	q14, q0, q14
    225c:	f342e07e 	vqadd.u8	q15, q1, q15
    2260:	f3f2c1ae 	vzip.8	d28, d30
    2264:	f3f2d1af 	vzip.8	d29, d31
    2268:	f3f2e1af 	vzip.8	d30, d31
    226c:	f3f2c1ad 	vzip.8	d28, d29
    2270:	e3100004 	tst	r0, #4
    2274:	0a000000 	beq	227c <pixman_composite_scanline_over_asm_neon+0x2f4>
    2278:	f441ea8d 	vst1.32	{d30-d31}, [r1]!
    227c:	e3100002 	tst	r0, #2
    2280:	0a000000 	beq	2288 <pixman_composite_scanline_over_asm_neon+0x300>
    2284:	f441d78d 	vst1.32	{d29}, [r1]!
    2288:	e3100001 	tst	r0, #1
    228c:	0a000000 	beq	2294 <pixman_composite_scanline_over_asm_neon+0x30c>
    2290:	f4c1c88d 	vst1.32	{d28[1]}, [r1]!
    2294:	e12fff1e 	bx	lr
			2294: R_ARM_V4BX	*ABS*

00002298 <pixman_composite_over_n_8888_asm_neon>:
    2298:	e92d5ff0 	push	{r4, r5, r6, r7, r8, r9, sl, fp, ip, lr}
    229c:	e3a0a000 	mov	sl, #0
    22a0:	e1a06002 	mov	r6, r2
    22a4:	e1a0b004 	mov	fp, r4
    22a8:	e1a0c006 	mov	ip, r6
    22ac:	e1a0e007 	mov	lr, r7
    22b0:	e1a09201 	lsl	r9, r1, #4
    22b4:	e249900b 	sub	r9, r9, #11
    22b8:	e28d8028 	add	r8, sp, #40	; 0x28
    22bc:	f4a8380f 	vld1.32	{d3[0]}, [r8]
    22c0:	f3b10c03 	vdup.8	d0, d3[0]
    22c4:	f3b31c03 	vdup.8	d1, d3[1]
    22c8:	f3b52c03 	vdup.8	d2, d3[2]
    22cc:	f3b73c03 	vdup.8	d3, d3[3]
    22d0:	f3f08583 	vmvn	d24, d3
    22d4:	e2511001 	subs	r1, r1, #1
    22d8:	e1a07000 	mov	r7, r0
    22dc:	ba0000ee 	blt	269c <pixman_composite_over_n_8888_asm_neon+0x404>
    22e0:	e3500010 	cmp	r0, #16
    22e4:	ba0000a8 	blt	258c <pixman_composite_over_n_8888_asm_neon+0x2f4>
    22e8:	e316000f 	tst	r6, #15
    22ec:	0a000032 	beq	23bc <pixman_composite_over_n_8888_asm_neon+0x124>
    22f0:	e3160004 	tst	r6, #4
    22f4:	0a000002 	beq	2304 <pixman_composite_over_n_8888_asm_neon+0x6c>
    22f8:	f4a6488d 	vld1.32	{d4[1]}, [r6]!
    22fc:	e28aa001 	add	sl, sl, #1
    2300:	e2400001 	sub	r0, r0, #1
    2304:	e3160008 	tst	r6, #8
    2308:	0a000002 	beq	2318 <pixman_composite_over_n_8888_asm_neon+0x80>
    230c:	f426579d 	vld1.32	{d5}, [r6 :64]!
    2310:	e28aa002 	add	sl, sl, #2
    2314:	e2400002 	sub	r0, r0, #2
    2318:	f4266aad 	vld1.32	{d6-d7}, [r6 :128]!
    231c:	e28aa004 	add	sl, sl, #4
    2320:	e2400004 	sub	r0, r0, #4
    2324:	f3b24105 	vuzp.8	d4, d5
    2328:	f3b26107 	vuzp.8	d6, d7
    232c:	f3b25107 	vuzp.8	d5, d7
    2330:	f3b24106 	vuzp.8	d4, d6
    2334:	f3f08583 	vmvn	d24, d3
    2338:	f3c80c84 	vmull.u8	q8, d24, d4
    233c:	f3c82c85 	vmull.u8	q9, d24, d5
    2340:	f3c84c86 	vmull.u8	q10, d24, d6
    2344:	f3c86c87 	vmull.u8	q11, d24, d7
    2348:	e319000f 	tst	r9, #15
    234c:	128aa008 	addne	sl, sl, #8
    2350:	12499001 	subne	r9, r9, #1
    2354:	e15a0007 	cmp	sl, r7
    2358:	f7dcf10a 	pld	[ip, sl, lsl #2]
    235c:	a04aa007 	subge	sl, sl, r7
    2360:	a2599010 	subsge	r9, r9, #16
    2364:	a7fc8103 	ldrbge	r8, [ip, r3, lsl #2]!
    2368:	f3d8c270 	vrshr.u16	q14, q8, #8
    236c:	f3d8e272 	vrshr.u16	q15, q9, #8
    2370:	f3d88274 	vrshr.u16	q12, q10, #8
    2374:	f3d8a276 	vrshr.u16	q13, q11, #8
    2378:	f3ccc4a0 	vraddhn.i16	d28, q14, q8
    237c:	f3ced4a2 	vraddhn.i16	d29, q15, q9
    2380:	f3c8e4a4 	vraddhn.i16	d30, q12, q10
    2384:	f3caf4a6 	vraddhn.i16	d31, q13, q11
    2388:	f340c07c 	vqadd.u8	q14, q0, q14
    238c:	f342e07e 	vqadd.u8	q15, q1, q15
    2390:	f3f2c1ae 	vzip.8	d28, d30
    2394:	f3f2d1af 	vzip.8	d29, d31
    2398:	f3f2e1af 	vzip.8	d30, d31
    239c:	f3f2c1ad 	vzip.8	d28, d29
    23a0:	e3120004 	tst	r2, #4
    23a4:	0a000000 	beq	23ac <pixman_composite_over_n_8888_asm_neon+0x114>
    23a8:	f4c2c88d 	vst1.32	{d28[1]}, [r2]!
    23ac:	e3120008 	tst	r2, #8
    23b0:	0a000000 	beq	23b8 <pixman_composite_over_n_8888_asm_neon+0x120>
    23b4:	f442d79d 	vst1.32	{d29}, [r2 :64]!
    23b8:	f442eaad 	vst1.32	{d30-d31}, [r2 :128]!
    23bc:	f426402d 	vld4.8	{d4-d7}, [r6 :128]!
    23c0:	e28aa008 	add	sl, sl, #8
    23c4:	f3f08583 	vmvn	d24, d3
    23c8:	f3c80c84 	vmull.u8	q8, d24, d4
    23cc:	f3c82c85 	vmull.u8	q9, d24, d5
    23d0:	f3c84c86 	vmull.u8	q10, d24, d6
    23d4:	f3c86c87 	vmull.u8	q11, d24, d7
    23d8:	e319000f 	tst	r9, #15
    23dc:	128aa008 	addne	sl, sl, #8
    23e0:	12499001 	subne	r9, r9, #1
    23e4:	e15a0007 	cmp	sl, r7
    23e8:	f7dcf10a 	pld	[ip, sl, lsl #2]
    23ec:	a04aa007 	subge	sl, sl, r7
    23f0:	a2599010 	subsge	r9, r9, #16
    23f4:	a7fc8103 	ldrbge	r8, [ip, r3, lsl #2]!
    23f8:	e2500010 	subs	r0, r0, #16
    23fc:	ba00001a 	blt	246c <pixman_composite_over_n_8888_asm_neon+0x1d4>
    2400:	f3d8c270 	vrshr.u16	q14, q8, #8
    2404:	f3d8e272 	vrshr.u16	q15, q9, #8
    2408:	f3984274 	vrshr.u16	q2, q10, #8
    240c:	f3986276 	vrshr.u16	q3, q11, #8
    2410:	f3ccc4a0 	vraddhn.i16	d28, q14, q8
    2414:	f3ced4a2 	vraddhn.i16	d29, q15, q9
    2418:	f3c4e424 	vraddhn.i16	d30, q2, q10
    241c:	f3c6f426 	vraddhn.i16	d31, q3, q11
    2420:	f426402d 	vld4.8	{d4-d7}, [r6 :128]!
    2424:	f340c07c 	vqadd.u8	q14, q0, q14
    2428:	e28aa008 	add	sl, sl, #8
    242c:	e319000f 	tst	r9, #15
    2430:	128aa008 	addne	sl, sl, #8
    2434:	12499001 	subne	r9, r9, #1
    2438:	f342e07e 	vqadd.u8	q15, q1, q15
    243c:	e15a0007 	cmp	sl, r7
    2440:	f3c80c84 	vmull.u8	q8, d24, d4
    2444:	f7dcf10a 	pld	[ip, sl, lsl #2]
    2448:	f3c82c85 	vmull.u8	q9, d24, d5
    244c:	a04aa007 	subge	sl, sl, r7
    2450:	f3c84c86 	vmull.u8	q10, d24, d6
    2454:	a2599010 	subsge	r9, r9, #16
    2458:	f3c86c87 	vmull.u8	q11, d24, d7
    245c:	a7fc8103 	ldrbge	r8, [ip, r3, lsl #2]!
    2460:	f442c02d 	vst4.8	{d28-d31}, [r2 :128]!
    2464:	e2500008 	subs	r0, r0, #8
    2468:	aaffffe4 	bge	2400 <pixman_composite_over_n_8888_asm_neon+0x168>
    246c:	f3d8c270 	vrshr.u16	q14, q8, #8
    2470:	f3d8e272 	vrshr.u16	q15, q9, #8
    2474:	f3d88274 	vrshr.u16	q12, q10, #8
    2478:	f3d8a276 	vrshr.u16	q13, q11, #8
    247c:	f3ccc4a0 	vraddhn.i16	d28, q14, q8
    2480:	f3ced4a2 	vraddhn.i16	d29, q15, q9
    2484:	f3c8e4a4 	vraddhn.i16	d30, q12, q10
    2488:	f3caf4a6 	vraddhn.i16	d31, q13, q11
    248c:	f340c07c 	vqadd.u8	q14, q0, q14
    2490:	f342e07e 	vqadd.u8	q15, q1, q15
    2494:	f442c02d 	vst4.8	{d28-d31}, [r2 :128]!
    2498:	e3100007 	tst	r0, #7
    249c:	0a000033 	beq	2570 <pixman_composite_over_n_8888_asm_neon+0x2d8>
    24a0:	e3100004 	tst	r0, #4
    24a4:	0a000001 	beq	24b0 <pixman_composite_over_n_8888_asm_neon+0x218>
    24a8:	f4266aad 	vld1.32	{d6-d7}, [r6 :128]!
    24ac:	e28aa004 	add	sl, sl, #4
    24b0:	e3100002 	tst	r0, #2
    24b4:	0a000001 	beq	24c0 <pixman_composite_over_n_8888_asm_neon+0x228>
    24b8:	f426579d 	vld1.32	{d5}, [r6 :64]!
    24bc:	e28aa002 	add	sl, sl, #2
    24c0:	e3100001 	tst	r0, #1
    24c4:	0a000001 	beq	24d0 <pixman_composite_over_n_8888_asm_neon+0x238>
    24c8:	f4a6488d 	vld1.32	{d4[1]}, [r6]!
    24cc:	e28aa001 	add	sl, sl, #1
    24d0:	f3b24105 	vuzp.8	d4, d5
    24d4:	f3b26107 	vuzp.8	d6, d7
    24d8:	f3b25107 	vuzp.8	d5, d7
    24dc:	f3b24106 	vuzp.8	d4, d6
    24e0:	f3f08583 	vmvn	d24, d3
    24e4:	f3c80c84 	vmull.u8	q8, d24, d4
    24e8:	f3c82c85 	vmull.u8	q9, d24, d5
    24ec:	f3c84c86 	vmull.u8	q10, d24, d6
    24f0:	f3c86c87 	vmull.u8	q11, d24, d7
    24f4:	e319000f 	tst	r9, #15
    24f8:	128aa008 	addne	sl, sl, #8
    24fc:	12499001 	subne	r9, r9, #1
    2500:	e15a0007 	cmp	sl, r7
    2504:	f7dcf10a 	pld	[ip, sl, lsl #2]
    2508:	a04aa007 	subge	sl, sl, r7
    250c:	a2599010 	subsge	r9, r9, #16
    2510:	a7fc8103 	ldrbge	r8, [ip, r3, lsl #2]!
    2514:	f3d8c270 	vrshr.u16	q14, q8, #8
    2518:	f3d8e272 	vrshr.u16	q15, q9, #8
    251c:	f3d88274 	vrshr.u16	q12, q10, #8
    2520:	f3d8a276 	vrshr.u16	q13, q11, #8
    2524:	f3ccc4a0 	vraddhn.i16	d28, q14, q8
    2528:	f3ced4a2 	vraddhn.i16	d29, q15, q9
    252c:	f3c8e4a4 	vraddhn.i16	d30, q12, q10
    2530:	f3caf4a6 	vraddhn.i16	d31, q13, q11
    2534:	f340c07c 	vqadd.u8	q14, q0, q14
    2538:	f342e07e 	vqadd.u8	q15, q1, q15
    253c:	f3f2c1ae 	vzip.8	d28, d30
    2540:	f3f2d1af 	vzip.8	d29, d31
    2544:	f3f2e1af 	vzip.8	d30, d31
    2548:	f3f2c1ad 	vzip.8	d28, d29
    254c:	e3100004 	tst	r0, #4
    2550:	0a000000 	beq	2558 <pixman_composite_over_n_8888_asm_neon+0x2c0>
    2554:	f442eaad 	vst1.32	{d30-d31}, [r2 :128]!
    2558:	e3100002 	tst	r0, #2
    255c:	0a000000 	beq	2564 <pixman_composite_over_n_8888_asm_neon+0x2cc>
    2560:	f442d79d 	vst1.32	{d29}, [r2 :64]!
    2564:	e3100001 	tst	r0, #1
    2568:	0a000000 	beq	2570 <pixman_composite_over_n_8888_asm_neon+0x2d8>
    256c:	f4c2c88d 	vst1.32	{d28[1]}, [r2]!
    2570:	e1a00007 	mov	r0, r7
    2574:	e0822103 	add	r2, r2, r3, lsl #2
    2578:	e0422100 	sub	r2, r2, r0, lsl #2
    257c:	e2511001 	subs	r1, r1, #1
    2580:	e1a06002 	mov	r6, r2
    2584:	aaffff57 	bge	22e8 <pixman_composite_over_n_8888_asm_neon+0x50>
    2588:	e8bd9ff0 	pop	{r4, r5, r6, r7, r8, r9, sl, fp, ip, pc}
    258c:	e3100008 	tst	r0, #8
    2590:	0a000010 	beq	25d8 <pixman_composite_over_n_8888_asm_neon+0x340>
    2594:	f426400d 	vld4.8	{d4-d7}, [r6]!
    2598:	f3f08583 	vmvn	d24, d3
    259c:	f3c80c84 	vmull.u8	q8, d24, d4
    25a0:	f3c82c85 	vmull.u8	q9, d24, d5
    25a4:	f3c84c86 	vmull.u8	q10, d24, d6
    25a8:	f3c86c87 	vmull.u8	q11, d24, d7
    25ac:	f3d8c270 	vrshr.u16	q14, q8, #8
    25b0:	f3d8e272 	vrshr.u16	q15, q9, #8
    25b4:	f3d88274 	vrshr.u16	q12, q10, #8
    25b8:	f3d8a276 	vrshr.u16	q13, q11, #8
    25bc:	f3ccc4a0 	vraddhn.i16	d28, q14, q8
    25c0:	f3ced4a2 	vraddhn.i16	d29, q15, q9
    25c4:	f3c8e4a4 	vraddhn.i16	d30, q12, q10
    25c8:	f3caf4a6 	vraddhn.i16	d31, q13, q11
    25cc:	f340c07c 	vqadd.u8	q14, q0, q14
    25d0:	f342e07e 	vqadd.u8	q15, q1, q15
    25d4:	f442c00d 	vst4.8	{d28-d31}, [r2]!
    25d8:	e3100007 	tst	r0, #7
    25dc:	0a000028 	beq	2684 <pixman_composite_over_n_8888_asm_neon+0x3ec>
    25e0:	e3100004 	tst	r0, #4
    25e4:	0a000000 	beq	25ec <pixman_composite_over_n_8888_asm_neon+0x354>
    25e8:	f4266a8d 	vld1.32	{d6-d7}, [r6]!
    25ec:	e3100002 	tst	r0, #2
    25f0:	0a000000 	beq	25f8 <pixman_composite_over_n_8888_asm_neon+0x360>
    25f4:	f426578d 	vld1.32	{d5}, [r6]!
    25f8:	e3100001 	tst	r0, #1
    25fc:	0a000000 	beq	2604 <pixman_composite_over_n_8888_asm_neon+0x36c>
    2600:	f4a6488d 	vld1.32	{d4[1]}, [r6]!
    2604:	f3b24105 	vuzp.8	d4, d5
    2608:	f3b26107 	vuzp.8	d6, d7
    260c:	f3b25107 	vuzp.8	d5, d7
    2610:	f3b24106 	vuzp.8	d4, d6
    2614:	f3f08583 	vmvn	d24, d3
    2618:	f3c80c84 	vmull.u8	q8, d24, d4
    261c:	f3c82c85 	vmull.u8	q9, d24, d5
    2620:	f3c84c86 	vmull.u8	q10, d24, d6
    2624:	f3c86c87 	vmull.u8	q11, d24, d7
    2628:	f3d8c270 	vrshr.u16	q14, q8, #8
    262c:	f3d8e272 	vrshr.u16	q15, q9, #8
    2630:	f3d88274 	vrshr.u16	q12, q10, #8
    2634:	f3d8a276 	vrshr.u16	q13, q11, #8
    2638:	f3ccc4a0 	vraddhn.i16	d28, q14, q8
    263c:	f3ced4a2 	vraddhn.i16	d29, q15, q9
    2640:	f3c8e4a4 	vraddhn.i16	d30, q12, q10
    2644:	f3caf4a6 	vraddhn.i16	d31, q13, q11
    2648:	f340c07c 	vqadd.u8	q14, q0, q14
    264c:	f342e07e 	vqadd.u8	q15, q1, q15
    2650:	f3f2c1ae 	vzip.8	d28, d30
    2654:	f3f2d1af 	vzip.8	d29, d31
    2658:	f3f2e1af 	vzip.8	d30, d31
    265c:	f3f2c1ad 	vzip.8	d28, d29
    2660:	e3100004 	tst	r0, #4
    2664:	0a000000 	beq	266c <pixman_composite_over_n_8888_asm_neon+0x3d4>
    2668:	f442ea8d 	vst1.32	{d30-d31}, [r2]!
    266c:	e3100002 	tst	r0, #2
    2670:	0a000000 	beq	2678 <pixman_composite_over_n_8888_asm_neon+0x3e0>
    2674:	f442d78d 	vst1.32	{d29}, [r2]!
    2678:	e3100001 	tst	r0, #1
    267c:	0a000000 	beq	2684 <pixman_composite_over_n_8888_asm_neon+0x3ec>
    2680:	f4c2c88d 	vst1.32	{d28[1]}, [r2]!
    2684:	e1a00007 	mov	r0, r7
    2688:	e0822103 	add	r2, r2, r3, lsl #2
    268c:	e0422100 	sub	r2, r2, r0, lsl #2
    2690:	e2511001 	subs	r1, r1, #1
    2694:	e1a06002 	mov	r6, r2
    2698:	aaffffbb 	bge	258c <pixman_composite_over_n_8888_asm_neon+0x2f4>
    269c:	e8bd9ff0 	pop	{r4, r5, r6, r7, r8, r9, sl, fp, ip, pc}

000026a0 <pixman_composite_over_reverse_n_8888_asm_neon>:
    26a0:	e92d5ff0 	push	{r4, r5, r6, r7, r8, r9, sl, fp, ip, lr}
    26a4:	e3a0a000 	mov	sl, #0
    26a8:	e1a06002 	mov	r6, r2
    26ac:	e1a0b004 	mov	fp, r4
    26b0:	e1a0c006 	mov	ip, r6
    26b4:	e1a0e007 	mov	lr, r7
    26b8:	e1a09201 	lsl	r9, r1, #4
    26bc:	e249900b 	sub	r9, r9, #11
    26c0:	e28d8028 	add	r8, sp, #40	; 0x28
    26c4:	f4a8780f 	vld1.32	{d7[0]}, [r8]
    26c8:	f3b14c07 	vdup.8	d4, d7[0]
    26cc:	f3b35c07 	vdup.8	d5, d7[1]
    26d0:	f3b56c07 	vdup.8	d6, d7[2]
    26d4:	f3b77c07 	vdup.8	d7, d7[3]
    26d8:	e2511001 	subs	r1, r1, #1
    26dc:	e1a07000 	mov	r7, r0
    26e0:	ba0000ef 	blt	2aa4 <pixman_composite_over_reverse_n_8888_asm_neon+0x404>
    26e4:	e3500010 	cmp	r0, #16
    26e8:	ba0000a9 	blt	2994 <pixman_composite_over_reverse_n_8888_asm_neon+0x2f4>
    26ec:	e316000f 	tst	r6, #15
    26f0:	0a000032 	beq	27c0 <pixman_composite_over_reverse_n_8888_asm_neon+0x120>
    26f4:	e3160004 	tst	r6, #4
    26f8:	0a000002 	beq	2708 <pixman_composite_over_reverse_n_8888_asm_neon+0x68>
    26fc:	f4a6088d 	vld1.32	{d0[1]}, [r6]!
    2700:	e28aa001 	add	sl, sl, #1
    2704:	e2400001 	sub	r0, r0, #1
    2708:	e3160008 	tst	r6, #8
    270c:	0a000002 	beq	271c <pixman_composite_over_reverse_n_8888_asm_neon+0x7c>
    2710:	f426179d 	vld1.32	{d1}, [r6 :64]!
    2714:	e28aa002 	add	sl, sl, #2
    2718:	e2400002 	sub	r0, r0, #2
    271c:	f4262aad 	vld1.32	{d2-d3}, [r6 :128]!
    2720:	e28aa004 	add	sl, sl, #4
    2724:	e2400004 	sub	r0, r0, #4
    2728:	f3b20101 	vuzp.8	d0, d1
    272c:	f3b22103 	vuzp.8	d2, d3
    2730:	f3b21103 	vuzp.8	d1, d3
    2734:	f3b20102 	vuzp.8	d0, d2
    2738:	f3f08583 	vmvn	d24, d3
    273c:	f3c80c84 	vmull.u8	q8, d24, d4
    2740:	f3c82c85 	vmull.u8	q9, d24, d5
    2744:	f3c84c86 	vmull.u8	q10, d24, d6
    2748:	f3c86c87 	vmull.u8	q11, d24, d7
    274c:	e319000f 	tst	r9, #15
    2750:	128aa008 	addne	sl, sl, #8
    2754:	12499001 	subne	r9, r9, #1
    2758:	e15a0007 	cmp	sl, r7
    275c:	f7dcf10a 	pld	[ip, sl, lsl #2]
    2760:	a04aa007 	subge	sl, sl, r7
    2764:	a2599010 	subsge	r9, r9, #16
    2768:	a7fc8103 	ldrbge	r8, [ip, r3, lsl #2]!
    276c:	f3d8c270 	vrshr.u16	q14, q8, #8
    2770:	f3d8e272 	vrshr.u16	q15, q9, #8
    2774:	f3d88274 	vrshr.u16	q12, q10, #8
    2778:	f3d8a276 	vrshr.u16	q13, q11, #8
    277c:	f3ccc4a0 	vraddhn.i16	d28, q14, q8
    2780:	f3ced4a2 	vraddhn.i16	d29, q15, q9
    2784:	f3c8e4a4 	vraddhn.i16	d30, q12, q10
    2788:	f3caf4a6 	vraddhn.i16	d31, q13, q11
    278c:	f340c07c 	vqadd.u8	q14, q0, q14
    2790:	f342e07e 	vqadd.u8	q15, q1, q15
    2794:	f3f2c1ae 	vzip.8	d28, d30
    2798:	f3f2d1af 	vzip.8	d29, d31
    279c:	f3f2e1af 	vzip.8	d30, d31
    27a0:	f3f2c1ad 	vzip.8	d28, d29
    27a4:	e3120004 	tst	r2, #4
    27a8:	0a000000 	beq	27b0 <pixman_composite_over_reverse_n_8888_asm_neon+0x110>
    27ac:	f4c2c88d 	vst1.32	{d28[1]}, [r2]!
    27b0:	e3120008 	tst	r2, #8
    27b4:	0a000000 	beq	27bc <pixman_composite_over_reverse_n_8888_asm_neon+0x11c>
    27b8:	f442d79d 	vst1.32	{d29}, [r2 :64]!
    27bc:	f442eaad 	vst1.32	{d30-d31}, [r2 :128]!
    27c0:	f426002d 	vld4.8	{d0-d3}, [r6 :128]!
    27c4:	e28aa008 	add	sl, sl, #8
    27c8:	f3f08583 	vmvn	d24, d3
    27cc:	f3c80c84 	vmull.u8	q8, d24, d4
    27d0:	f3c82c85 	vmull.u8	q9, d24, d5
    27d4:	f3c84c86 	vmull.u8	q10, d24, d6
    27d8:	f3c86c87 	vmull.u8	q11, d24, d7
    27dc:	e319000f 	tst	r9, #15
    27e0:	128aa008 	addne	sl, sl, #8
    27e4:	12499001 	subne	r9, r9, #1
    27e8:	e15a0007 	cmp	sl, r7
    27ec:	f7dcf10a 	pld	[ip, sl, lsl #2]
    27f0:	a04aa007 	subge	sl, sl, r7
    27f4:	a2599010 	subsge	r9, r9, #16
    27f8:	a7fc8103 	ldrbge	r8, [ip, r3, lsl #2]!
    27fc:	e2500010 	subs	r0, r0, #16
    2800:	ba00001b 	blt	2874 <pixman_composite_over_reverse_n_8888_asm_neon+0x1d4>
    2804:	f3d8c270 	vrshr.u16	q14, q8, #8
    2808:	e28aa008 	add	sl, sl, #8
    280c:	e319000f 	tst	r9, #15
    2810:	f3d8e272 	vrshr.u16	q15, q9, #8
    2814:	f3d88274 	vrshr.u16	q12, q10, #8
    2818:	f3d8a276 	vrshr.u16	q13, q11, #8
    281c:	128aa008 	addne	sl, sl, #8
    2820:	12499001 	subne	r9, r9, #1
    2824:	f3ccc4a0 	vraddhn.i16	d28, q14, q8
    2828:	f3ced4a2 	vraddhn.i16	d29, q15, q9
    282c:	e15a0007 	cmp	sl, r7
    2830:	f3c8e4a4 	vraddhn.i16	d30, q12, q10
    2834:	f3caf4a6 	vraddhn.i16	d31, q13, q11
    2838:	f340c07c 	vqadd.u8	q14, q0, q14
    283c:	f342e07e 	vqadd.u8	q15, q1, q15
    2840:	f426002d 	vld4.8	{d0-d3}, [r6 :128]!
    2844:	f3f06583 	vmvn	d22, d3
    2848:	f7dcf10a 	pld	[ip, sl, lsl #2]
    284c:	f442c02d 	vst4.8	{d28-d31}, [r2 :128]!
    2850:	a04aa007 	subge	sl, sl, r7
    2854:	f3c60c84 	vmull.u8	q8, d22, d4
    2858:	a2599010 	subsge	r9, r9, #16
    285c:	f3c62c85 	vmull.u8	q9, d22, d5
    2860:	f3c64c86 	vmull.u8	q10, d22, d6
    2864:	a7fc8103 	ldrbge	r8, [ip, r3, lsl #2]!
    2868:	f3c66c87 	vmull.u8	q11, d22, d7
    286c:	e2500008 	subs	r0, r0, #8
    2870:	aaffffe3 	bge	2804 <pixman_composite_over_reverse_n_8888_asm_neon+0x164>
    2874:	f3d8c270 	vrshr.u16	q14, q8, #8
    2878:	f3d8e272 	vrshr.u16	q15, q9, #8
    287c:	f3d88274 	vrshr.u16	q12, q10, #8
    2880:	f3d8a276 	vrshr.u16	q13, q11, #8
    2884:	f3ccc4a0 	vraddhn.i16	d28, q14, q8
    2888:	f3ced4a2 	vraddhn.i16	d29, q15, q9
    288c:	f3c8e4a4 	vraddhn.i16	d30, q12, q10
    2890:	f3caf4a6 	vraddhn.i16	d31, q13, q11
    2894:	f340c07c 	vqadd.u8	q14, q0, q14
    2898:	f342e07e 	vqadd.u8	q15, q1, q15
    289c:	f442c02d 	vst4.8	{d28-d31}, [r2 :128]!
    28a0:	e3100007 	tst	r0, #7
    28a4:	0a000033 	beq	2978 <pixman_composite_over_reverse_n_8888_asm_neon+0x2d8>
    28a8:	e3100004 	tst	r0, #4
    28ac:	0a000001 	beq	28b8 <pixman_composite_over_reverse_n_8888_asm_neon+0x218>
    28b0:	f4262aad 	vld1.32	{d2-d3}, [r6 :128]!
    28b4:	e28aa004 	add	sl, sl, #4
    28b8:	e3100002 	tst	r0, #2
    28bc:	0a000001 	beq	28c8 <pixman_composite_over_reverse_n_8888_asm_neon+0x228>
    28c0:	f426179d 	vld1.32	{d1}, [r6 :64]!
    28c4:	e28aa002 	add	sl, sl, #2
    28c8:	e3100001 	tst	r0, #1
    28cc:	0a000001 	beq	28d8 <pixman_composite_over_reverse_n_8888_asm_neon+0x238>
    28d0:	f4a6088d 	vld1.32	{d0[1]}, [r6]!
    28d4:	e28aa001 	add	sl, sl, #1
    28d8:	f3b20101 	vuzp.8	d0, d1
    28dc:	f3b22103 	vuzp.8	d2, d3
    28e0:	f3b21103 	vuzp.8	d1, d3
    28e4:	f3b20102 	vuzp.8	d0, d2
    28e8:	f3f08583 	vmvn	d24, d3
    28ec:	f3c80c84 	vmull.u8	q8, d24, d4
    28f0:	f3c82c85 	vmull.u8	q9, d24, d5
    28f4:	f3c84c86 	vmull.u8	q10, d24, d6
    28f8:	f3c86c87 	vmull.u8	q11, d24, d7
    28fc:	e319000f 	tst	r9, #15
    2900:	128aa008 	addne	sl, sl, #8
    2904:	12499001 	subne	r9, r9, #1
    2908:	e15a0007 	cmp	sl, r7
    290c:	f7dcf10a 	pld	[ip, sl, lsl #2]
    2910:	a04aa007 	subge	sl, sl, r7
    2914:	a2599010 	subsge	r9, r9, #16
    2918:	a7fc8103 	ldrbge	r8, [ip, r3, lsl #2]!
    291c:	f3d8c270 	vrshr.u16	q14, q8, #8
    2920:	f3d8e272 	vrshr.u16	q15, q9, #8
    2924:	f3d88274 	vrshr.u16	q12, q10, #8
    2928:	f3d8a276 	vrshr.u16	q13, q11, #8
    292c:	f3ccc4a0 	vraddhn.i16	d28, q14, q8
    2930:	f3ced4a2 	vraddhn.i16	d29, q15, q9
    2934:	f3c8e4a4 	vraddhn.i16	d30, q12, q10
    2938:	f3caf4a6 	vraddhn.i16	d31, q13, q11
    293c:	f340c07c 	vqadd.u8	q14, q0, q14
    2940:	f342e07e 	vqadd.u8	q15, q1, q15
    2944:	f3f2c1ae 	vzip.8	d28, d30
    2948:	f3f2d1af 	vzip.8	d29, d31
    294c:	f3f2e1af 	vzip.8	d30, d31
    2950:	f3f2c1ad 	vzip.8	d28, d29
    2954:	e3100004 	tst	r0, #4
    2958:	0a000000 	beq	2960 <pixman_composite_over_reverse_n_8888_asm_neon+0x2c0>
    295c:	f442eaad 	vst1.32	{d30-d31}, [r2 :128]!
    2960:	e3100002 	tst	r0, #2
    2964:	0a000000 	beq	296c <pixman_composite_over_reverse_n_8888_asm_neon+0x2cc>
    2968:	f442d79d 	vst1.32	{d29}, [r2 :64]!
    296c:	e3100001 	tst	r0, #1
    2970:	0a000000 	beq	2978 <pixman_composite_over_reverse_n_8888_asm_neon+0x2d8>
    2974:	f4c2c88d 	vst1.32	{d28[1]}, [r2]!
    2978:	e1a00007 	mov	r0, r7
    297c:	e0822103 	add	r2, r2, r3, lsl #2
    2980:	e0422100 	sub	r2, r2, r0, lsl #2
    2984:	e2511001 	subs	r1, r1, #1
    2988:	e1a06002 	mov	r6, r2
    298c:	aaffff56 	bge	26ec <pixman_composite_over_reverse_n_8888_asm_neon+0x4c>
    2990:	e8bd9ff0 	pop	{r4, r5, r6, r7, r8, r9, sl, fp, ip, pc}
    2994:	e3100008 	tst	r0, #8
    2998:	0a000010 	beq	29e0 <pixman_composite_over_reverse_n_8888_asm_neon+0x340>
    299c:	f426000d 	vld4.8	{d0-d3}, [r6]!
    29a0:	f3f08583 	vmvn	d24, d3
    29a4:	f3c80c84 	vmull.u8	q8, d24, d4
    29a8:	f3c82c85 	vmull.u8	q9, d24, d5
    29ac:	f3c84c86 	vmull.u8	q10, d24, d6
    29b0:	f3c86c87 	vmull.u8	q11, d24, d7
    29b4:	f3d8c270 	vrshr.u16	q14, q8, #8
    29b8:	f3d8e272 	vrshr.u16	q15, q9, #8
    29bc:	f3d88274 	vrshr.u16	q12, q10, #8
    29c0:	f3d8a276 	vrshr.u16	q13, q11, #8
    29c4:	f3ccc4a0 	vraddhn.i16	d28, q14, q8
    29c8:	f3ced4a2 	vraddhn.i16	d29, q15, q9
    29cc:	f3c8e4a4 	vraddhn.i16	d30, q12, q10
    29d0:	f3caf4a6 	vraddhn.i16	d31, q13, q11
    29d4:	f340c07c 	vqadd.u8	q14, q0, q14
    29d8:	f342e07e 	vqadd.u8	q15, q1, q15
    29dc:	f442c00d 	vst4.8	{d28-d31}, [r2]!
    29e0:	e3100007 	tst	r0, #7
    29e4:	0a000028 	beq	2a8c <pixman_composite_over_reverse_n_8888_asm_neon+0x3ec>
    29e8:	e3100004 	tst	r0, #4
    29ec:	0a000000 	beq	29f4 <pixman_composite_over_reverse_n_8888_asm_neon+0x354>
    29f0:	f4262a8d 	vld1.32	{d2-d3}, [r6]!
    29f4:	e3100002 	tst	r0, #2
    29f8:	0a000000 	beq	2a00 <pixman_composite_over_reverse_n_8888_asm_neon+0x360>
    29fc:	f426178d 	vld1.32	{d1}, [r6]!
    2a00:	e3100001 	tst	r0, #1
    2a04:	0a000000 	beq	2a0c <pixman_composite_over_reverse_n_8888_asm_neon+0x36c>
    2a08:	f4a6088d 	vld1.32	{d0[1]}, [r6]!
    2a0c:	f3b20101 	vuzp.8	d0, d1
    2a10:	f3b22103 	vuzp.8	d2, d3
    2a14:	f3b21103 	vuzp.8	d1, d3
    2a18:	f3b20102 	vuzp.8	d0, d2
    2a1c:	f3f08583 	vmvn	d24, d3
    2a20:	f3c80c84 	vmull.u8	q8, d24, d4
    2a24:	f3c82c85 	vmull.u8	q9, d24, d5
    2a28:	f3c84c86 	vmull.u8	q10, d24, d6
    2a2c:	f3c86c87 	vmull.u8	q11, d24, d7
    2a30:	f3d8c270 	vrshr.u16	q14, q8, #8
    2a34:	f3d8e272 	vrshr.u16	q15, q9, #8
    2a38:	f3d88274 	vrshr.u16	q12, q10, #8
    2a3c:	f3d8a276 	vrshr.u16	q13, q11, #8
    2a40:	f3ccc4a0 	vraddhn.i16	d28, q14, q8
    2a44:	f3ced4a2 	vraddhn.i16	d29, q15, q9
    2a48:	f3c8e4a4 	vraddhn.i16	d30, q12, q10
    2a4c:	f3caf4a6 	vraddhn.i16	d31, q13, q11
    2a50:	f340c07c 	vqadd.u8	q14, q0, q14
    2a54:	f342e07e 	vqadd.u8	q15, q1, q15
    2a58:	f3f2c1ae 	vzip.8	d28, d30
    2a5c:	f3f2d1af 	vzip.8	d29, d31
    2a60:	f3f2e1af 	vzip.8	d30, d31
    2a64:	f3f2c1ad 	vzip.8	d28, d29
    2a68:	e3100004 	tst	r0, #4
    2a6c:	0a000000 	beq	2a74 <pixman_composite_over_reverse_n_8888_asm_neon+0x3d4>
    2a70:	f442ea8d 	vst1.32	{d30-d31}, [r2]!
    2a74:	e3100002 	tst	r0, #2
    2a78:	0a000000 	beq	2a80 <pixman_composite_over_reverse_n_8888_asm_neon+0x3e0>
    2a7c:	f442d78d 	vst1.32	{d29}, [r2]!
    2a80:	e3100001 	tst	r0, #1
    2a84:	0a000000 	beq	2a8c <pixman_composite_over_reverse_n_8888_asm_neon+0x3ec>
    2a88:	f4c2c88d 	vst1.32	{d28[1]}, [r2]!
    2a8c:	e1a00007 	mov	r0, r7
    2a90:	e0822103 	add	r2, r2, r3, lsl #2
    2a94:	e0422100 	sub	r2, r2, r0, lsl #2
    2a98:	e2511001 	subs	r1, r1, #1
    2a9c:	e1a06002 	mov	r6, r2
    2aa0:	aaffffbb 	bge	2994 <pixman_composite_over_reverse_n_8888_asm_neon+0x2f4>
    2aa4:	e8bd9ff0 	pop	{r4, r5, r6, r7, r8, r9, sl, fp, ip, pc}

00002aa8 <pixman_composite_over_8888_8_0565_asm_neon>:
    2aa8:	e92d5ff0 	push	{r4, r5, r6, r7, r8, r9, sl, fp, ip, lr}
    2aac:	e59d4028 	ldr	r4, [sp, #40]	; 0x28
    2ab0:	e59d7030 	ldr	r7, [sp, #48]	; 0x30
    2ab4:	e3a0a000 	mov	sl, #0
    2ab8:	e59d502c 	ldr	r5, [sp, #44]	; 0x2c
    2abc:	e59d8034 	ldr	r8, [sp, #52]	; 0x34
    2ac0:	e1a06002 	mov	r6, r2
    2ac4:	e1a0b004 	mov	fp, r4
    2ac8:	e1a0c006 	mov	ip, r6
    2acc:	e1a0e007 	mov	lr, r7
    2ad0:	e1a09201 	lsl	r9, r1, #4
    2ad4:	e249900b 	sub	r9, r9, #11
    2ad8:	ed2d8b10 	vpush	{d8-d15}
    2adc:	e92d0003 	push	{r0, r1}
    2ae0:	e2511001 	subs	r1, r1, #1
    2ae4:	e58d1004 	str	r1, [sp, #4]
    2ae8:	ba0001a9 	blt	3194 <pixman_composite_over_8888_8_0565_asm_neon+0x6ec>
    2aec:	e3500010 	cmp	r0, #16
    2af0:	ba00012c 	blt	2fa8 <pixman_composite_over_8888_8_0565_asm_neon+0x500>
    2af4:	e316000f 	tst	r6, #15
    2af8:	0a000057 	beq	2c5c <pixman_composite_over_8888_8_0565_asm_neon+0x1b4>
    2afc:	e3160002 	tst	r6, #2
    2b00:	0a000004 	beq	2b18 <pixman_composite_over_8888_8_0565_asm_neon+0x70>
    2b04:	f4a4888d 	vld1.32	{d8[1]}, [r4]!
    2b08:	f4e7802d 	vld1.8	{d24[1]}, [r7]!
    2b0c:	f4a6444d 	vld1.16	{d4[1]}, [r6]!
    2b10:	e28aa001 	add	sl, sl, #1
    2b14:	e2400001 	sub	r0, r0, #1
    2b18:	e3160004 	tst	r6, #4
    2b1c:	0a000006 	beq	2b3c <pixman_composite_over_8888_8_0565_asm_neon+0x94>
    2b20:	f424978d 	vld1.32	{d9}, [r4]!
    2b24:	f4e7804d 	vld1.8	{d24[2]}, [r7]!
    2b28:	f4e7806d 	vld1.8	{d24[3]}, [r7]!
    2b2c:	f4a6448d 	vld1.16	{d4[2]}, [r6]!
    2b30:	f4a644cd 	vld1.16	{d4[3]}, [r6]!
    2b34:	e28aa002 	add	sl, sl, #2
    2b38:	e2400002 	sub	r0, r0, #2
    2b3c:	e3160008 	tst	r6, #8
    2b40:	0a000007 	beq	2b64 <pixman_composite_over_8888_8_0565_asm_neon+0xbc>
    2b44:	f424aa8d 	vld1.32	{d10-d11}, [r4]!
    2b48:	f4e7808d 	vld1.8	{d24[4]}, [r7]!
    2b4c:	f4e780ad 	vld1.8	{d24[5]}, [r7]!
    2b50:	f4e780cd 	vld1.8	{d24[6]}, [r7]!
    2b54:	f4e780ed 	vld1.8	{d24[7]}, [r7]!
    2b58:	f426575d 	vld1.16	{d5}, [r6 :64]!
    2b5c:	e28aa004 	add	sl, sl, #4
    2b60:	e2400004 	sub	r0, r0, #4
    2b64:	f3b28109 	vuzp.8	d8, d9
    2b68:	f3b2a10b 	vuzp.8	d10, d11
    2b6c:	f3b2910b 	vuzp.8	d9, d11
    2b70:	f3b2810a 	vuzp.8	d8, d10
    2b74:	f3880c88 	vmull.u8	q0, d24, d8
    2b78:	f3882c89 	vmull.u8	q1, d24, d9
    2b7c:	f388cc8a 	vmull.u8	q6, d24, d10
    2b80:	f388ec8b 	vmull.u8	q7, d24, d11
    2b84:	f2886814 	vshrn.i16	d6, q2, #8
    2b88:	f28d7814 	vshrn.i16	d7, q2, #3
    2b8c:	f3954554 	vsli.16	q2, q2, #5
    2b90:	f3d80250 	vrshr.u16	q8, q0, #8
    2b94:	f3d82252 	vrshr.u16	q9, q1, #8
    2b98:	f3d8425c 	vrshr.u16	q10, q6, #8
    2b9c:	f3d8625e 	vrshr.u16	q11, q7, #8
    2ba0:	f3800420 	vraddhn.i16	d0, q0, q8
    2ba4:	f3821422 	vraddhn.i16	d1, q1, q9
    2ba8:	f38c2424 	vraddhn.i16	d2, q6, q10
    2bac:	f38e3426 	vraddhn.i16	d3, q7, q11
    2bb0:	f38b6416 	vsri.8	d6, d6, #5
    2bb4:	f38a7417 	vsri.8	d7, d7, #6
    2bb8:	f3b03583 	vmvn	d3, d3
    2bbc:	f2cee814 	vshrn.i16	d30, q2, #2
    2bc0:	f3c30c06 	vmull.u8	q8, d3, d6
    2bc4:	f3c32c07 	vmull.u8	q9, d3, d7
    2bc8:	f3c34c2e 	vmull.u8	q10, d3, d30
    2bcc:	e59d1000 	ldr	r1, [sp]
    2bd0:	e319000f 	tst	r9, #15
    2bd4:	128aa008 	addne	sl, sl, #8
    2bd8:	12499001 	subne	r9, r9, #1
    2bdc:	e15a0001 	cmp	sl, r1
    2be0:	f7dbf10a 	pld	[fp, sl, lsl #2]
    2be4:	f7dcf08a 	pld	[ip, sl, lsl #1]
    2be8:	f7def00a 	pld	[lr, sl]
    2bec:	a04aa001 	subge	sl, sl, r1
    2bf0:	a2599010 	subsge	r9, r9, #16
    2bf4:	a7fb1105 	ldrbge	r1, [fp, r5, lsl #2]!
    2bf8:	a7fc1083 	ldrbge	r1, [ip, r3, lsl #1]!
    2bfc:	a7fe1008 	ldrbge	r1, [lr, r8]!
    2c00:	f3d8a270 	vrshr.u16	q13, q8, #8
    2c04:	f3d86272 	vrshr.u16	q11, q9, #8
    2c08:	f3d8e274 	vrshr.u16	q15, q10, #8
    2c0c:	f3c004aa 	vraddhn.i16	d16, q8, q13
    2c10:	f3c2b4a6 	vraddhn.i16	d27, q9, q11
    2c14:	f3c4a4ae 	vraddhn.i16	d26, q10, q15
    2c18:	f3420030 	vqadd.u8	d16, d2, d16
    2c1c:	f340207a 	vqadd.u8	q9, q0, q13
    2c20:	f3f2c320 	vshll.i8	q14, d16, #8
    2c24:	f3f20323 	vshll.i8	q8, d19, #8
    2c28:	f3f22322 	vshll.i8	q9, d18, #8
    2c2c:	f3dbc470 	vsri.16	q14, q8, #5
    2c30:	f3d5c472 	vsri.16	q14, q9, #11
    2c34:	e3120002 	tst	r2, #2
    2c38:	0a000000 	beq	2c40 <pixman_composite_over_8888_8_0565_asm_neon+0x198>
    2c3c:	f4c2c44d 	vst1.16	{d28[1]}, [r2]!
    2c40:	e3120004 	tst	r2, #4
    2c44:	0a000001 	beq	2c50 <pixman_composite_over_8888_8_0565_asm_neon+0x1a8>
    2c48:	f4c2c48d 	vst1.16	{d28[2]}, [r2]!
    2c4c:	f4c2c4cd 	vst1.16	{d28[3]}, [r2]!
    2c50:	e3120008 	tst	r2, #8
    2c54:	0a000000 	beq	2c5c <pixman_composite_over_8888_8_0565_asm_neon+0x1b4>
    2c58:	f442d75d 	vst1.16	{d29}, [r2 :64]!
    2c5c:	f4264a6d 	vld1.16	{d4-d5}, [r6 :128]!
    2c60:	f424800d 	vld4.8	{d8-d11}, [r4]!
    2c64:	f467870d 	vld1.8	{d24}, [r7]!
    2c68:	e28aa008 	add	sl, sl, #8
    2c6c:	f3880c88 	vmull.u8	q0, d24, d8
    2c70:	f3882c89 	vmull.u8	q1, d24, d9
    2c74:	f388cc8a 	vmull.u8	q6, d24, d10
    2c78:	f388ec8b 	vmull.u8	q7, d24, d11
    2c7c:	f2886814 	vshrn.i16	d6, q2, #8
    2c80:	f28d7814 	vshrn.i16	d7, q2, #3
    2c84:	f3954554 	vsli.16	q2, q2, #5
    2c88:	f3d80250 	vrshr.u16	q8, q0, #8
    2c8c:	f3d82252 	vrshr.u16	q9, q1, #8
    2c90:	f3d8425c 	vrshr.u16	q10, q6, #8
    2c94:	f3d8625e 	vrshr.u16	q11, q7, #8
    2c98:	f3800420 	vraddhn.i16	d0, q0, q8
    2c9c:	f3821422 	vraddhn.i16	d1, q1, q9
    2ca0:	f38c2424 	vraddhn.i16	d2, q6, q10
    2ca4:	f38e3426 	vraddhn.i16	d3, q7, q11
    2ca8:	f38b6416 	vsri.8	d6, d6, #5
    2cac:	f38a7417 	vsri.8	d7, d7, #6
    2cb0:	f3b03583 	vmvn	d3, d3
    2cb4:	f2cee814 	vshrn.i16	d30, q2, #2
    2cb8:	f3c30c06 	vmull.u8	q8, d3, d6
    2cbc:	f3c32c07 	vmull.u8	q9, d3, d7
    2cc0:	f3c34c2e 	vmull.u8	q10, d3, d30
    2cc4:	e59d1000 	ldr	r1, [sp]
    2cc8:	e319000f 	tst	r9, #15
    2ccc:	128aa008 	addne	sl, sl, #8
    2cd0:	12499001 	subne	r9, r9, #1
    2cd4:	e15a0001 	cmp	sl, r1
    2cd8:	f7dbf10a 	pld	[fp, sl, lsl #2]
    2cdc:	f7dcf08a 	pld	[ip, sl, lsl #1]
    2ce0:	f7def00a 	pld	[lr, sl]
    2ce4:	a04aa001 	subge	sl, sl, r1
    2ce8:	a2599010 	subsge	r9, r9, #16
    2cec:	a7fb1105 	ldrbge	r1, [fp, r5, lsl #2]!
    2cf0:	a7fc1083 	ldrbge	r1, [ip, r3, lsl #1]!
    2cf4:	a7fe1008 	ldrbge	r1, [lr, r8]!
    2cf8:	e2500010 	subs	r0, r0, #16
    2cfc:	ba000036 	blt	2ddc <pixman_composite_over_8888_8_0565_asm_neon+0x334>
    2d00:	f4264a6d 	vld1.16	{d4-d5}, [r6 :128]!
    2d04:	f2886814 	vshrn.i16	d6, q2, #8
    2d08:	f467870d 	vld1.8	{d24}, [r7]!
    2d0c:	f28d7814 	vshrn.i16	d7, q2, #3
    2d10:	f424800d 	vld4.8	{d8-d11}, [r4]!
    2d14:	f388cc8a 	vmull.u8	q6, d24, d10
    2d18:	f3d8a270 	vrshr.u16	q13, q8, #8
    2d1c:	f3d86272 	vrshr.u16	q11, q9, #8
    2d20:	f3d8e274 	vrshr.u16	q15, q10, #8
    2d24:	f3c004aa 	vraddhn.i16	d16, q8, q13
    2d28:	f3c2b4a6 	vraddhn.i16	d27, q9, q11
    2d2c:	f3c4a4ae 	vraddhn.i16	d26, q10, q15
    2d30:	f3420030 	vqadd.u8	d16, d2, d16
    2d34:	f3882c89 	vmull.u8	q1, d24, d9
    2d38:	f340207a 	vqadd.u8	q9, q0, q13
    2d3c:	f3f2c320 	vshll.i8	q14, d16, #8
    2d40:	f3880c88 	vmull.u8	q0, d24, d8
    2d44:	f3f20323 	vshll.i8	q8, d19, #8
    2d48:	f3f22322 	vshll.i8	q9, d18, #8
    2d4c:	f3dbc470 	vsri.16	q14, q8, #5
    2d50:	f388ec8b 	vmull.u8	q7, d24, d11
    2d54:	f3d5c472 	vsri.16	q14, q9, #11
    2d58:	e59d1000 	ldr	r1, [sp]
    2d5c:	e28aa008 	add	sl, sl, #8
    2d60:	e319000f 	tst	r9, #15
    2d64:	128aa008 	addne	sl, sl, #8
    2d68:	12499001 	subne	r9, r9, #1
    2d6c:	e15a0001 	cmp	sl, r1
    2d70:	f7dbf10a 	pld	[fp, sl, lsl #2]
    2d74:	f7dcf08a 	pld	[ip, sl, lsl #1]
    2d78:	f7def00a 	pld	[lr, sl]
    2d7c:	a04aa001 	subge	sl, sl, r1
    2d80:	a2599010 	subsge	r9, r9, #16
    2d84:	a7fb1105 	ldrbge	r1, [fp, r5, lsl #2]!
    2d88:	a7fc1083 	ldrbge	r1, [ip, r3, lsl #1]!
    2d8c:	a7fe1008 	ldrbge	r1, [lr, r8]!
    2d90:	f3954554 	vsli.16	q2, q2, #5
    2d94:	f3d80250 	vrshr.u16	q8, q0, #8
    2d98:	f3d82252 	vrshr.u16	q9, q1, #8
    2d9c:	f3d8425c 	vrshr.u16	q10, q6, #8
    2da0:	f3d8625e 	vrshr.u16	q11, q7, #8
    2da4:	f3800420 	vraddhn.i16	d0, q0, q8
    2da8:	f3821422 	vraddhn.i16	d1, q1, q9
    2dac:	f38c2424 	vraddhn.i16	d2, q6, q10
    2db0:	f38e3426 	vraddhn.i16	d3, q7, q11
    2db4:	f38b6416 	vsri.8	d6, d6, #5
    2db8:	f38a7417 	vsri.8	d7, d7, #6
    2dbc:	f3b03583 	vmvn	d3, d3
    2dc0:	f2cee814 	vshrn.i16	d30, q2, #2
    2dc4:	f442ca6d 	vst1.16	{d28-d29}, [r2 :128]!
    2dc8:	f3c30c06 	vmull.u8	q8, d3, d6
    2dcc:	f3c32c07 	vmull.u8	q9, d3, d7
    2dd0:	f3c34c2e 	vmull.u8	q10, d3, d30
    2dd4:	e2500008 	subs	r0, r0, #8
    2dd8:	aaffffc8 	bge	2d00 <pixman_composite_over_8888_8_0565_asm_neon+0x258>
    2ddc:	f3d8a270 	vrshr.u16	q13, q8, #8
    2de0:	f3d86272 	vrshr.u16	q11, q9, #8
    2de4:	f3d8e274 	vrshr.u16	q15, q10, #8
    2de8:	f3c004aa 	vraddhn.i16	d16, q8, q13
    2dec:	f3c2b4a6 	vraddhn.i16	d27, q9, q11
    2df0:	f3c4a4ae 	vraddhn.i16	d26, q10, q15
    2df4:	f3420030 	vqadd.u8	d16, d2, d16
    2df8:	f340207a 	vqadd.u8	q9, q0, q13
    2dfc:	f3f2c320 	vshll.i8	q14, d16, #8
    2e00:	f3f20323 	vshll.i8	q8, d19, #8
    2e04:	f3f22322 	vshll.i8	q9, d18, #8
    2e08:	f3dbc470 	vsri.16	q14, q8, #5
    2e0c:	f3d5c472 	vsri.16	q14, q9, #11
    2e10:	f442ca6d 	vst1.16	{d28-d29}, [r2 :128]!
    2e14:	e3100007 	tst	r0, #7
    2e18:	0a000054 	beq	2f70 <pixman_composite_over_8888_8_0565_asm_neon+0x4c8>
    2e1c:	e3100004 	tst	r0, #4
    2e20:	0a000006 	beq	2e40 <pixman_composite_over_8888_8_0565_asm_neon+0x398>
    2e24:	f424aa8d 	vld1.32	{d10-d11}, [r4]!
    2e28:	f4e7808d 	vld1.8	{d24[4]}, [r7]!
    2e2c:	f4e780ad 	vld1.8	{d24[5]}, [r7]!
    2e30:	f4e780cd 	vld1.8	{d24[6]}, [r7]!
    2e34:	f4e780ed 	vld1.8	{d24[7]}, [r7]!
    2e38:	f426575d 	vld1.16	{d5}, [r6 :64]!
    2e3c:	e28aa004 	add	sl, sl, #4
    2e40:	e3100002 	tst	r0, #2
    2e44:	0a000005 	beq	2e60 <pixman_composite_over_8888_8_0565_asm_neon+0x3b8>
    2e48:	f424978d 	vld1.32	{d9}, [r4]!
    2e4c:	f4e7804d 	vld1.8	{d24[2]}, [r7]!
    2e50:	f4e7806d 	vld1.8	{d24[3]}, [r7]!
    2e54:	f4a6448d 	vld1.16	{d4[2]}, [r6]!
    2e58:	f4a644cd 	vld1.16	{d4[3]}, [r6]!
    2e5c:	e28aa002 	add	sl, sl, #2
    2e60:	e3100001 	tst	r0, #1
    2e64:	0a000003 	beq	2e78 <pixman_composite_over_8888_8_0565_asm_neon+0x3d0>
    2e68:	f4a4888d 	vld1.32	{d8[1]}, [r4]!
    2e6c:	f4e7802d 	vld1.8	{d24[1]}, [r7]!
    2e70:	f4a6444d 	vld1.16	{d4[1]}, [r6]!
    2e74:	e28aa001 	add	sl, sl, #1
    2e78:	f3b28109 	vuzp.8	d8, d9
    2e7c:	f3b2a10b 	vuzp.8	d10, d11
    2e80:	f3b2910b 	vuzp.8	d9, d11
    2e84:	f3b2810a 	vuzp.8	d8, d10
    2e88:	f3880c88 	vmull.u8	q0, d24, d8
    2e8c:	f3882c89 	vmull.u8	q1, d24, d9
    2e90:	f388cc8a 	vmull.u8	q6, d24, d10
    2e94:	f388ec8b 	vmull.u8	q7, d24, d11
    2e98:	f2886814 	vshrn.i16	d6, q2, #8
    2e9c:	f28d7814 	vshrn.i16	d7, q2, #3
    2ea0:	f3954554 	vsli.16	q2, q2, #5
    2ea4:	f3d80250 	vrshr.u16	q8, q0, #8
    2ea8:	f3d82252 	vrshr.u16	q9, q1, #8
    2eac:	f3d8425c 	vrshr.u16	q10, q6, #8
    2eb0:	f3d8625e 	vrshr.u16	q11, q7, #8
    2eb4:	f3800420 	vraddhn.i16	d0, q0, q8
    2eb8:	f3821422 	vraddhn.i16	d1, q1, q9
    2ebc:	f38c2424 	vraddhn.i16	d2, q6, q10
    2ec0:	f38e3426 	vraddhn.i16	d3, q7, q11
    2ec4:	f38b6416 	vsri.8	d6, d6, #5
    2ec8:	f38a7417 	vsri.8	d7, d7, #6
    2ecc:	f3b03583 	vmvn	d3, d3
    2ed0:	f2cee814 	vshrn.i16	d30, q2, #2
    2ed4:	f3c30c06 	vmull.u8	q8, d3, d6
    2ed8:	f3c32c07 	vmull.u8	q9, d3, d7
    2edc:	f3c34c2e 	vmull.u8	q10, d3, d30
    2ee0:	e59d1000 	ldr	r1, [sp]
    2ee4:	e319000f 	tst	r9, #15
    2ee8:	128aa008 	addne	sl, sl, #8
    2eec:	12499001 	subne	r9, r9, #1
    2ef0:	e15a0001 	cmp	sl, r1
    2ef4:	f7dbf10a 	pld	[fp, sl, lsl #2]
    2ef8:	f7dcf08a 	pld	[ip, sl, lsl #1]
    2efc:	f7def00a 	pld	[lr, sl]
    2f00:	a04aa001 	subge	sl, sl, r1
    2f04:	a2599010 	subsge	r9, r9, #16
    2f08:	a7fb1105 	ldrbge	r1, [fp, r5, lsl #2]!
    2f0c:	a7fc1083 	ldrbge	r1, [ip, r3, lsl #1]!
    2f10:	a7fe1008 	ldrbge	r1, [lr, r8]!
    2f14:	f3d8a270 	vrshr.u16	q13, q8, #8
    2f18:	f3d86272 	vrshr.u16	q11, q9, #8
    2f1c:	f3d8e274 	vrshr.u16	q15, q10, #8
    2f20:	f3c004aa 	vraddhn.i16	d16, q8, q13
    2f24:	f3c2b4a6 	vraddhn.i16	d27, q9, q11
    2f28:	f3c4a4ae 	vraddhn.i16	d26, q10, q15
    2f2c:	f3420030 	vqadd.u8	d16, d2, d16
    2f30:	f340207a 	vqadd.u8	q9, q0, q13
    2f34:	f3f2c320 	vshll.i8	q14, d16, #8
    2f38:	f3f20323 	vshll.i8	q8, d19, #8
    2f3c:	f3f22322 	vshll.i8	q9, d18, #8
    2f40:	f3dbc470 	vsri.16	q14, q8, #5
    2f44:	f3d5c472 	vsri.16	q14, q9, #11
    2f48:	e3100004 	tst	r0, #4
    2f4c:	0a000000 	beq	2f54 <pixman_composite_over_8888_8_0565_asm_neon+0x4ac>
    2f50:	f442d75d 	vst1.16	{d29}, [r2 :64]!
    2f54:	e3100002 	tst	r0, #2
    2f58:	0a000001 	beq	2f64 <pixman_composite_over_8888_8_0565_asm_neon+0x4bc>
    2f5c:	f4c2c48d 	vst1.16	{d28[2]}, [r2]!
    2f60:	f4c2c4cd 	vst1.16	{d28[3]}, [r2]!
    2f64:	e3100001 	tst	r0, #1
    2f68:	0a000000 	beq	2f70 <pixman_composite_over_8888_8_0565_asm_neon+0x4c8>
    2f6c:	f4c2c44d 	vst1.16	{d28[1]}, [r2]!
    2f70:	e1cd00d0 	ldrd	r0, [sp]
    2f74:	e0822083 	add	r2, r2, r3, lsl #1
    2f78:	e0844105 	add	r4, r4, r5, lsl #2
    2f7c:	e0877008 	add	r7, r7, r8
    2f80:	e0422080 	sub	r2, r2, r0, lsl #1
    2f84:	e0444100 	sub	r4, r4, r0, lsl #2
    2f88:	e0477000 	sub	r7, r7, r0
    2f8c:	e2511001 	subs	r1, r1, #1
    2f90:	e1a06002 	mov	r6, r2
    2f94:	e58d1004 	str	r1, [sp, #4]
    2f98:	aafffed5 	bge	2af4 <pixman_composite_over_8888_8_0565_asm_neon+0x4c>
    2f9c:	e8bd0003 	pop	{r0, r1}
    2fa0:	ecbd8b10 	vpop	{d8-d15}
    2fa4:	e8bd9ff0 	pop	{r4, r5, r6, r7, r8, r9, sl, fp, ip, pc}
    2fa8:	e3100008 	tst	r0, #8
    2fac:	0a000026 	beq	304c <pixman_composite_over_8888_8_0565_asm_neon+0x5a4>
    2fb0:	f4264a4d 	vld1.16	{d4-d5}, [r6]!
    2fb4:	f424800d 	vld4.8	{d8-d11}, [r4]!
    2fb8:	f467870d 	vld1.8	{d24}, [r7]!
    2fbc:	f3880c88 	vmull.u8	q0, d24, d8
    2fc0:	f3882c89 	vmull.u8	q1, d24, d9
    2fc4:	f388cc8a 	vmull.u8	q6, d24, d10
    2fc8:	f388ec8b 	vmull.u8	q7, d24, d11
    2fcc:	f2886814 	vshrn.i16	d6, q2, #8
    2fd0:	f28d7814 	vshrn.i16	d7, q2, #3
    2fd4:	f3954554 	vsli.16	q2, q2, #5
    2fd8:	f3d80250 	vrshr.u16	q8, q0, #8
    2fdc:	f3d82252 	vrshr.u16	q9, q1, #8
    2fe0:	f3d8425c 	vrshr.u16	q10, q6, #8
    2fe4:	f3d8625e 	vrshr.u16	q11, q7, #8
    2fe8:	f3800420 	vraddhn.i16	d0, q0, q8
    2fec:	f3821422 	vraddhn.i16	d1, q1, q9
    2ff0:	f38c2424 	vraddhn.i16	d2, q6, q10
    2ff4:	f38e3426 	vraddhn.i16	d3, q7, q11
    2ff8:	f38b6416 	vsri.8	d6, d6, #5
    2ffc:	f38a7417 	vsri.8	d7, d7, #6
    3000:	f3b03583 	vmvn	d3, d3
    3004:	f2cee814 	vshrn.i16	d30, q2, #2
    3008:	f3c30c06 	vmull.u8	q8, d3, d6
    300c:	f3c32c07 	vmull.u8	q9, d3, d7
    3010:	f3c34c2e 	vmull.u8	q10, d3, d30
    3014:	f3d8a270 	vrshr.u16	q13, q8, #8
    3018:	f3d86272 	vrshr.u16	q11, q9, #8
    301c:	f3d8e274 	vrshr.u16	q15, q10, #8
    3020:	f3c004aa 	vraddhn.i16	d16, q8, q13
    3024:	f3c2b4a6 	vraddhn.i16	d27, q9, q11
    3028:	f3c4a4ae 	vraddhn.i16	d26, q10, q15
    302c:	f3420030 	vqadd.u8	d16, d2, d16
    3030:	f340207a 	vqadd.u8	q9, q0, q13
    3034:	f3f2c320 	vshll.i8	q14, d16, #8
    3038:	f3f20323 	vshll.i8	q8, d19, #8
    303c:	f3f22322 	vshll.i8	q9, d18, #8
    3040:	f3dbc470 	vsri.16	q14, q8, #5
    3044:	f3d5c472 	vsri.16	q14, q9, #11
    3048:	f442ca4d 	vst1.16	{d28-d29}, [r2]!
    304c:	e3100007 	tst	r0, #7
    3050:	0a000044 	beq	3168 <pixman_composite_over_8888_8_0565_asm_neon+0x6c0>
    3054:	e3100004 	tst	r0, #4
    3058:	0a000005 	beq	3074 <pixman_composite_over_8888_8_0565_asm_neon+0x5cc>
    305c:	f424aa8d 	vld1.32	{d10-d11}, [r4]!
    3060:	f4e7808d 	vld1.8	{d24[4]}, [r7]!
    3064:	f4e780ad 	vld1.8	{d24[5]}, [r7]!
    3068:	f4e780cd 	vld1.8	{d24[6]}, [r7]!
    306c:	f4e780ed 	vld1.8	{d24[7]}, [r7]!
    3070:	f426574d 	vld1.16	{d5}, [r6]!
    3074:	e3100002 	tst	r0, #2
    3078:	0a000004 	beq	3090 <pixman_composite_over_8888_8_0565_asm_neon+0x5e8>
    307c:	f424978d 	vld1.32	{d9}, [r4]!
    3080:	f4e7804d 	vld1.8	{d24[2]}, [r7]!
    3084:	f4e7806d 	vld1.8	{d24[3]}, [r7]!
    3088:	f4a6448d 	vld1.16	{d4[2]}, [r6]!
    308c:	f4a644cd 	vld1.16	{d4[3]}, [r6]!
    3090:	e3100001 	tst	r0, #1
    3094:	0a000002 	beq	30a4 <pixman_composite_over_8888_8_0565_asm_neon+0x5fc>
    3098:	f4a4888d 	vld1.32	{d8[1]}, [r4]!
    309c:	f4e7802d 	vld1.8	{d24[1]}, [r7]!
    30a0:	f4a6444d 	vld1.16	{d4[1]}, [r6]!
    30a4:	f3b28109 	vuzp.8	d8, d9
    30a8:	f3b2a10b 	vuzp.8	d10, d11
    30ac:	f3b2910b 	vuzp.8	d9, d11
    30b0:	f3b2810a 	vuzp.8	d8, d10
    30b4:	f3880c88 	vmull.u8	q0, d24, d8
    30b8:	f3882c89 	vmull.u8	q1, d24, d9
    30bc:	f388cc8a 	vmull.u8	q6, d24, d10
    30c0:	f388ec8b 	vmull.u8	q7, d24, d11
    30c4:	f2886814 	vshrn.i16	d6, q2, #8
    30c8:	f28d7814 	vshrn.i16	d7, q2, #3
    30cc:	f3954554 	vsli.16	q2, q2, #5
    30d0:	f3d80250 	vrshr.u16	q8, q0, #8
    30d4:	f3d82252 	vrshr.u16	q9, q1, #8
    30d8:	f3d8425c 	vrshr.u16	q10, q6, #8
    30dc:	f3d8625e 	vrshr.u16	q11, q7, #8
    30e0:	f3800420 	vraddhn.i16	d0, q0, q8
    30e4:	f3821422 	vraddhn.i16	d1, q1, q9
    30e8:	f38c2424 	vraddhn.i16	d2, q6, q10
    30ec:	f38e3426 	vraddhn.i16	d3, q7, q11
    30f0:	f38b6416 	vsri.8	d6, d6, #5
    30f4:	f38a7417 	vsri.8	d7, d7, #6
    30f8:	f3b03583 	vmvn	d3, d3
    30fc:	f2cee814 	vshrn.i16	d30, q2, #2
    3100:	f3c30c06 	vmull.u8	q8, d3, d6
    3104:	f3c32c07 	vmull.u8	q9, d3, d7
    3108:	f3c34c2e 	vmull.u8	q10, d3, d30
    310c:	f3d8a270 	vrshr.u16	q13, q8, #8
    3110:	f3d86272 	vrshr.u16	q11, q9, #8
    3114:	f3d8e274 	vrshr.u16	q15, q10, #8
    3118:	f3c004aa 	vraddhn.i16	d16, q8, q13
    311c:	f3c2b4a6 	vraddhn.i16	d27, q9, q11
    3120:	f3c4a4ae 	vraddhn.i16	d26, q10, q15
    3124:	f3420030 	vqadd.u8	d16, d2, d16
    3128:	f340207a 	vqadd.u8	q9, q0, q13
    312c:	f3f2c320 	vshll.i8	q14, d16, #8
    3130:	f3f20323 	vshll.i8	q8, d19, #8
    3134:	f3f22322 	vshll.i8	q9, d18, #8
    3138:	f3dbc470 	vsri.16	q14, q8, #5
    313c:	f3d5c472 	vsri.16	q14, q9, #11
    3140:	e3100004 	tst	r0, #4
    3144:	0a000000 	beq	314c <pixman_composite_over_8888_8_0565_asm_neon+0x6a4>
    3148:	f442d74d 	vst1.16	{d29}, [r2]!
    314c:	e3100002 	tst	r0, #2
    3150:	0a000001 	beq	315c <pixman_composite_over_8888_8_0565_asm_neon+0x6b4>
    3154:	f4c2c48d 	vst1.16	{d28[2]}, [r2]!
    3158:	f4c2c4cd 	vst1.16	{d28[3]}, [r2]!
    315c:	e3100001 	tst	r0, #1
    3160:	0a000000 	beq	3168 <pixman_composite_over_8888_8_0565_asm_neon+0x6c0>
    3164:	f4c2c44d 	vst1.16	{d28[1]}, [r2]!
    3168:	e1cd00d0 	ldrd	r0, [sp]
    316c:	e0822083 	add	r2, r2, r3, lsl #1
    3170:	e0844105 	add	r4, r4, r5, lsl #2
    3174:	e0877008 	add	r7, r7, r8
    3178:	e0422080 	sub	r2, r2, r0, lsl #1
    317c:	e0444100 	sub	r4, r4, r0, lsl #2
    3180:	e0477000 	sub	r7, r7, r0
    3184:	e2511001 	subs	r1, r1, #1
    3188:	e1a06002 	mov	r6, r2
    318c:	e58d1004 	str	r1, [sp, #4]
    3190:	aaffff84 	bge	2fa8 <pixman_composite_over_8888_8_0565_asm_neon+0x500>
    3194:	e8bd0003 	pop	{r0, r1}
    3198:	ecbd8b10 	vpop	{d8-d15}
    319c:	e8bd9ff0 	pop	{r4, r5, r6, r7, r8, r9, sl, fp, ip, pc}

000031a0 <pixman_composite_over_n_8_0565_asm_neon>:
    31a0:	e92d5ff0 	push	{r4, r5, r6, r7, r8, r9, sl, fp, ip, lr}
    31a4:	e59d7030 	ldr	r7, [sp, #48]	; 0x30
    31a8:	e3a0a000 	mov	sl, #0
    31ac:	e59d8034 	ldr	r8, [sp, #52]	; 0x34
    31b0:	e1a06002 	mov	r6, r2
    31b4:	e1a0b004 	mov	fp, r4
    31b8:	e1a0c006 	mov	ip, r6
    31bc:	e1a0e007 	mov	lr, r7
    31c0:	e1a09201 	lsl	r9, r1, #4
    31c4:	e249900b 	sub	r9, r9, #11
    31c8:	e28d5028 	add	r5, sp, #40	; 0x28
    31cc:	ed2d8b10 	vpush	{d8-d15}
    31d0:	f4a5b80f 	vld1.32	{d11[0]}, [r5]
    31d4:	f3b18c0b 	vdup.8	d8, d11[0]
    31d8:	f3b39c0b 	vdup.8	d9, d11[1]
    31dc:	f3b5ac0b 	vdup.8	d10, d11[2]
    31e0:	f3b7bc0b 	vdup.8	d11, d11[3]
    31e4:	e2511001 	subs	r1, r1, #1
    31e8:	e1a04000 	mov	r4, r0
    31ec:	ba00017e 	blt	37ec <pixman_composite_over_n_8_0565_asm_neon+0x64c>
    31f0:	e3500010 	cmp	r0, #16
    31f4:	ba00010c 	blt	362c <pixman_composite_over_n_8_0565_asm_neon+0x48c>
    31f8:	e316000f 	tst	r6, #15
    31fc:	0a00004d 	beq	3338 <pixman_composite_over_n_8_0565_asm_neon+0x198>
    3200:	e3160002 	tst	r6, #2
    3204:	0a000003 	beq	3218 <pixman_composite_over_n_8_0565_asm_neon+0x78>
    3208:	f4e7802d 	vld1.8	{d24[1]}, [r7]!
    320c:	f4a6444d 	vld1.16	{d4[1]}, [r6]!
    3210:	e28aa001 	add	sl, sl, #1
    3214:	e2400001 	sub	r0, r0, #1
    3218:	e3160004 	tst	r6, #4
    321c:	0a000005 	beq	3238 <pixman_composite_over_n_8_0565_asm_neon+0x98>
    3220:	f4e7804d 	vld1.8	{d24[2]}, [r7]!
    3224:	f4e7806d 	vld1.8	{d24[3]}, [r7]!
    3228:	f4a6448d 	vld1.16	{d4[2]}, [r6]!
    322c:	f4a644cd 	vld1.16	{d4[3]}, [r6]!
    3230:	e28aa002 	add	sl, sl, #2
    3234:	e2400002 	sub	r0, r0, #2
    3238:	e3160008 	tst	r6, #8
    323c:	0a000006 	beq	325c <pixman_composite_over_n_8_0565_asm_neon+0xbc>
    3240:	f4e7808d 	vld1.8	{d24[4]}, [r7]!
    3244:	f4e780ad 	vld1.8	{d24[5]}, [r7]!
    3248:	f4e780cd 	vld1.8	{d24[6]}, [r7]!
    324c:	f4e780ed 	vld1.8	{d24[7]}, [r7]!
    3250:	f426575d 	vld1.16	{d5}, [r6 :64]!
    3254:	e28aa004 	add	sl, sl, #4
    3258:	e2400004 	sub	r0, r0, #4
    325c:	f3880c88 	vmull.u8	q0, d24, d8
    3260:	f3882c89 	vmull.u8	q1, d24, d9
    3264:	f388cc8a 	vmull.u8	q6, d24, d10
    3268:	f388ec8b 	vmull.u8	q7, d24, d11
    326c:	f2886814 	vshrn.i16	d6, q2, #8
    3270:	f28d7814 	vshrn.i16	d7, q2, #3
    3274:	f3954554 	vsli.16	q2, q2, #5
    3278:	f3d80250 	vrshr.u16	q8, q0, #8
    327c:	f3d82252 	vrshr.u16	q9, q1, #8
    3280:	f3d8425c 	vrshr.u16	q10, q6, #8
    3284:	f3d8625e 	vrshr.u16	q11, q7, #8
    3288:	f3800420 	vraddhn.i16	d0, q0, q8
    328c:	f3821422 	vraddhn.i16	d1, q1, q9
    3290:	f38c2424 	vraddhn.i16	d2, q6, q10
    3294:	f38e3426 	vraddhn.i16	d3, q7, q11
    3298:	f38b6416 	vsri.8	d6, d6, #5
    329c:	f38a7417 	vsri.8	d7, d7, #6
    32a0:	f3b03583 	vmvn	d3, d3
    32a4:	f2cee814 	vshrn.i16	d30, q2, #2
    32a8:	f3c30c06 	vmull.u8	q8, d3, d6
    32ac:	f3c32c07 	vmull.u8	q9, d3, d7
    32b0:	f3c34c2e 	vmull.u8	q10, d3, d30
    32b4:	e319000f 	tst	r9, #15
    32b8:	128aa008 	addne	sl, sl, #8
    32bc:	12499001 	subne	r9, r9, #1
    32c0:	e15a0004 	cmp	sl, r4
    32c4:	f7dcf08a 	pld	[ip, sl, lsl #1]
    32c8:	f7def00a 	pld	[lr, sl]
    32cc:	a04aa004 	subge	sl, sl, r4
    32d0:	a2599010 	subsge	r9, r9, #16
    32d4:	a7fc5083 	ldrbge	r5, [ip, r3, lsl #1]!
    32d8:	a7fe5008 	ldrbge	r5, [lr, r8]!
    32dc:	f3d8a270 	vrshr.u16	q13, q8, #8
    32e0:	f3d86272 	vrshr.u16	q11, q9, #8
    32e4:	f3d8e274 	vrshr.u16	q15, q10, #8
    32e8:	f3c004aa 	vraddhn.i16	d16, q8, q13
    32ec:	f3c2b4a6 	vraddhn.i16	d27, q9, q11
    32f0:	f3c4a4ae 	vraddhn.i16	d26, q10, q15
    32f4:	f3420030 	vqadd.u8	d16, d2, d16
    32f8:	f340207a 	vqadd.u8	q9, q0, q13
    32fc:	f3f2c320 	vshll.i8	q14, d16, #8
    3300:	f3f20323 	vshll.i8	q8, d19, #8
    3304:	f3f22322 	vshll.i8	q9, d18, #8
    3308:	f3dbc470 	vsri.16	q14, q8, #5
    330c:	f3d5c472 	vsri.16	q14, q9, #11
    3310:	e3120002 	tst	r2, #2
    3314:	0a000000 	beq	331c <pixman_composite_over_n_8_0565_asm_neon+0x17c>
    3318:	f4c2c44d 	vst1.16	{d28[1]}, [r2]!
    331c:	e3120004 	tst	r2, #4
    3320:	0a000001 	beq	332c <pixman_composite_over_n_8_0565_asm_neon+0x18c>
    3324:	f4c2c48d 	vst1.16	{d28[2]}, [r2]!
    3328:	f4c2c4cd 	vst1.16	{d28[3]}, [r2]!
    332c:	e3120008 	tst	r2, #8
    3330:	0a000000 	beq	3338 <pixman_composite_over_n_8_0565_asm_neon+0x198>
    3334:	f442d75d 	vst1.16	{d29}, [r2 :64]!
    3338:	f4264a6d 	vld1.16	{d4-d5}, [r6 :128]!
    333c:	f467870d 	vld1.8	{d24}, [r7]!
    3340:	e28aa008 	add	sl, sl, #8
    3344:	f3880c88 	vmull.u8	q0, d24, d8
    3348:	f3882c89 	vmull.u8	q1, d24, d9
    334c:	f388cc8a 	vmull.u8	q6, d24, d10
    3350:	f388ec8b 	vmull.u8	q7, d24, d11
    3354:	f2886814 	vshrn.i16	d6, q2, #8
    3358:	f28d7814 	vshrn.i16	d7, q2, #3
    335c:	f3954554 	vsli.16	q2, q2, #5
    3360:	f3d80250 	vrshr.u16	q8, q0, #8
    3364:	f3d82252 	vrshr.u16	q9, q1, #8
    3368:	f3d8425c 	vrshr.u16	q10, q6, #8
    336c:	f3d8625e 	vrshr.u16	q11, q7, #8
    3370:	f3800420 	vraddhn.i16	d0, q0, q8
    3374:	f3821422 	vraddhn.i16	d1, q1, q9
    3378:	f38c2424 	vraddhn.i16	d2, q6, q10
    337c:	f38e3426 	vraddhn.i16	d3, q7, q11
    3380:	f38b6416 	vsri.8	d6, d6, #5
    3384:	f38a7417 	vsri.8	d7, d7, #6
    3388:	f3b03583 	vmvn	d3, d3
    338c:	f2cee814 	vshrn.i16	d30, q2, #2
    3390:	f3c30c06 	vmull.u8	q8, d3, d6
    3394:	f3c32c07 	vmull.u8	q9, d3, d7
    3398:	f3c34c2e 	vmull.u8	q10, d3, d30
    339c:	e319000f 	tst	r9, #15
    33a0:	128aa008 	addne	sl, sl, #8
    33a4:	12499001 	subne	r9, r9, #1
    33a8:	e15a0004 	cmp	sl, r4
    33ac:	f7dcf08a 	pld	[ip, sl, lsl #1]
    33b0:	f7def00a 	pld	[lr, sl]
    33b4:	a04aa004 	subge	sl, sl, r4
    33b8:	a2599010 	subsge	r9, r9, #16
    33bc:	a7fc5083 	ldrbge	r5, [ip, r3, lsl #1]!
    33c0:	a7fe5008 	ldrbge	r5, [lr, r8]!
    33c4:	e2500010 	subs	r0, r0, #16
    33c8:	ba000032 	blt	3498 <pixman_composite_over_n_8_0565_asm_neon+0x2f8>
    33cc:	f4264a6d 	vld1.16	{d4-d5}, [r6 :128]!
    33d0:	f2886814 	vshrn.i16	d6, q2, #8
    33d4:	f467870d 	vld1.8	{d24}, [r7]!
    33d8:	f28d7814 	vshrn.i16	d7, q2, #3
    33dc:	f388cc8a 	vmull.u8	q6, d24, d10
    33e0:	f3d8a270 	vrshr.u16	q13, q8, #8
    33e4:	f3d86272 	vrshr.u16	q11, q9, #8
    33e8:	f3d8e274 	vrshr.u16	q15, q10, #8
    33ec:	f3c004aa 	vraddhn.i16	d16, q8, q13
    33f0:	f3c2b4a6 	vraddhn.i16	d27, q9, q11
    33f4:	f3c4a4ae 	vraddhn.i16	d26, q10, q15
    33f8:	f3420030 	vqadd.u8	d16, d2, d16
    33fc:	f3882c89 	vmull.u8	q1, d24, d9
    3400:	f340207a 	vqadd.u8	q9, q0, q13
    3404:	f3f2c320 	vshll.i8	q14, d16, #8
    3408:	f3880c88 	vmull.u8	q0, d24, d8
    340c:	f3f20323 	vshll.i8	q8, d19, #8
    3410:	f3f22322 	vshll.i8	q9, d18, #8
    3414:	f3dbc470 	vsri.16	q14, q8, #5
    3418:	f388ec8b 	vmull.u8	q7, d24, d11
    341c:	f3d5c472 	vsri.16	q14, q9, #11
    3420:	e28aa008 	add	sl, sl, #8
    3424:	e319000f 	tst	r9, #15
    3428:	128aa008 	addne	sl, sl, #8
    342c:	12499001 	subne	r9, r9, #1
    3430:	e15a0004 	cmp	sl, r4
    3434:	f7dcf08a 	pld	[ip, sl, lsl #1]
    3438:	f7def00a 	pld	[lr, sl]
    343c:	a04aa004 	subge	sl, sl, r4
    3440:	a2599010 	subsge	r9, r9, #16
    3444:	a7fc5083 	ldrbge	r5, [ip, r3, lsl #1]!
    3448:	a7fe5008 	ldrbge	r5, [lr, r8]!
    344c:	f3954554 	vsli.16	q2, q2, #5
    3450:	f3d80250 	vrshr.u16	q8, q0, #8
    3454:	f3d82252 	vrshr.u16	q9, q1, #8
    3458:	f3d8425c 	vrshr.u16	q10, q6, #8
    345c:	f3d8625e 	vrshr.u16	q11, q7, #8
    3460:	f3800420 	vraddhn.i16	d0, q0, q8
    3464:	f3821422 	vraddhn.i16	d1, q1, q9
    3468:	f38c2424 	vraddhn.i16	d2, q6, q10
    346c:	f38e3426 	vraddhn.i16	d3, q7, q11
    3470:	f38b6416 	vsri.8	d6, d6, #5
    3474:	f38a7417 	vsri.8	d7, d7, #6
    3478:	f3b03583 	vmvn	d3, d3
    347c:	f2cee814 	vshrn.i16	d30, q2, #2
    3480:	f442ca6d 	vst1.16	{d28-d29}, [r2 :128]!
    3484:	f3c30c06 	vmull.u8	q8, d3, d6
    3488:	f3c32c07 	vmull.u8	q9, d3, d7
    348c:	f3c34c2e 	vmull.u8	q10, d3, d30
    3490:	e2500008 	subs	r0, r0, #8
    3494:	aaffffcc 	bge	33cc <pixman_composite_over_n_8_0565_asm_neon+0x22c>
    3498:	f3d8a270 	vrshr.u16	q13, q8, #8
    349c:	f3d86272 	vrshr.u16	q11, q9, #8
    34a0:	f3d8e274 	vrshr.u16	q15, q10, #8
    34a4:	f3c004aa 	vraddhn.i16	d16, q8, q13
    34a8:	f3c2b4a6 	vraddhn.i16	d27, q9, q11
    34ac:	f3c4a4ae 	vraddhn.i16	d26, q10, q15
    34b0:	f3420030 	vqadd.u8	d16, d2, d16
    34b4:	f340207a 	vqadd.u8	q9, q0, q13
    34b8:	f3f2c320 	vshll.i8	q14, d16, #8
    34bc:	f3f20323 	vshll.i8	q8, d19, #8
    34c0:	f3f22322 	vshll.i8	q9, d18, #8
    34c4:	f3dbc470 	vsri.16	q14, q8, #5
    34c8:	f3d5c472 	vsri.16	q14, q9, #11
    34cc:	f442ca6d 	vst1.16	{d28-d29}, [r2 :128]!
    34d0:	e3100007 	tst	r0, #7
    34d4:	0a00004a 	beq	3604 <pixman_composite_over_n_8_0565_asm_neon+0x464>
    34d8:	e3100004 	tst	r0, #4
    34dc:	0a000005 	beq	34f8 <pixman_composite_over_n_8_0565_asm_neon+0x358>
    34e0:	f4e7808d 	vld1.8	{d24[4]}, [r7]!
    34e4:	f4e780ad 	vld1.8	{d24[5]}, [r7]!
    34e8:	f4e780cd 	vld1.8	{d24[6]}, [r7]!
    34ec:	f4e780ed 	vld1.8	{d24[7]}, [r7]!
    34f0:	f426575d 	vld1.16	{d5}, [r6 :64]!
    34f4:	e28aa004 	add	sl, sl, #4
    34f8:	e3100002 	tst	r0, #2
    34fc:	0a000004 	beq	3514 <pixman_composite_over_n_8_0565_asm_neon+0x374>
    3500:	f4e7804d 	vld1.8	{d24[2]}, [r7]!
    3504:	f4e7806d 	vld1.8	{d24[3]}, [r7]!
    3508:	f4a6448d 	vld1.16	{d4[2]}, [r6]!
    350c:	f4a644cd 	vld1.16	{d4[3]}, [r6]!
    3510:	e28aa002 	add	sl, sl, #2
    3514:	e3100001 	tst	r0, #1
    3518:	0a000002 	beq	3528 <pixman_composite_over_n_8_0565_asm_neon+0x388>
    351c:	f4e7802d 	vld1.8	{d24[1]}, [r7]!
    3520:	f4a6444d 	vld1.16	{d4[1]}, [r6]!
    3524:	e28aa001 	add	sl, sl, #1
    3528:	f3880c88 	vmull.u8	q0, d24, d8
    352c:	f3882c89 	vmull.u8	q1, d24, d9
    3530:	f388cc8a 	vmull.u8	q6, d24, d10
    3534:	f388ec8b 	vmull.u8	q7, d24, d11
    3538:	f2886814 	vshrn.i16	d6, q2, #8
    353c:	f28d7814 	vshrn.i16	d7, q2, #3
    3540:	f3954554 	vsli.16	q2, q2, #5
    3544:	f3d80250 	vrshr.u16	q8, q0, #8
    3548:	f3d82252 	vrshr.u16	q9, q1, #8
    354c:	f3d8425c 	vrshr.u16	q10, q6, #8
    3550:	f3d8625e 	vrshr.u16	q11, q7, #8
    3554:	f3800420 	vraddhn.i16	d0, q0, q8
    3558:	f3821422 	vraddhn.i16	d1, q1, q9
    355c:	f38c2424 	vraddhn.i16	d2, q6, q10
    3560:	f38e3426 	vraddhn.i16	d3, q7, q11
    3564:	f38b6416 	vsri.8	d6, d6, #5
    3568:	f38a7417 	vsri.8	d7, d7, #6
    356c:	f3b03583 	vmvn	d3, d3
    3570:	f2cee814 	vshrn.i16	d30, q2, #2
    3574:	f3c30c06 	vmull.u8	q8, d3, d6
    3578:	f3c32c07 	vmull.u8	q9, d3, d7
    357c:	f3c34c2e 	vmull.u8	q10, d3, d30
    3580:	e319000f 	tst	r9, #15
    3584:	128aa008 	addne	sl, sl, #8
    3588:	12499001 	subne	r9, r9, #1
    358c:	e15a0004 	cmp	sl, r4
    3590:	f7dcf08a 	pld	[ip, sl, lsl #1]
    3594:	f7def00a 	pld	[lr, sl]
    3598:	a04aa004 	subge	sl, sl, r4
    359c:	a2599010 	subsge	r9, r9, #16
    35a0:	a7fc5083 	ldrbge	r5, [ip, r3, lsl #1]!
    35a4:	a7fe5008 	ldrbge	r5, [lr, r8]!
    35a8:	f3d8a270 	vrshr.u16	q13, q8, #8
    35ac:	f3d86272 	vrshr.u16	q11, q9, #8
    35b0:	f3d8e274 	vrshr.u16	q15, q10, #8
    35b4:	f3c004aa 	vraddhn.i16	d16, q8, q13
    35b8:	f3c2b4a6 	vraddhn.i16	d27, q9, q11
    35bc:	f3c4a4ae 	vraddhn.i16	d26, q10, q15
    35c0:	f3420030 	vqadd.u8	d16, d2, d16
    35c4:	f340207a 	vqadd.u8	q9, q0, q13
    35c8:	f3f2c320 	vshll.i8	q14, d16, #8
    35cc:	f3f20323 	vshll.i8	q8, d19, #8
    35d0:	f3f22322 	vshll.i8	q9, d18, #8
    35d4:	f3dbc470 	vsri.16	q14, q8, #5
    35d8:	f3d5c472 	vsri.16	q14, q9, #11
    35dc:	e3100004 	tst	r0, #4
    35e0:	0a000000 	beq	35e8 <pixman_composite_over_n_8_0565_asm_neon+0x448>
    35e4:	f442d75d 	vst1.16	{d29}, [r2 :64]!
    35e8:	e3100002 	tst	r0, #2
    35ec:	0a000001 	beq	35f8 <pixman_composite_over_n_8_0565_asm_neon+0x458>
    35f0:	f4c2c48d 	vst1.16	{d28[2]}, [r2]!
    35f4:	f4c2c4cd 	vst1.16	{d28[3]}, [r2]!
    35f8:	e3100001 	tst	r0, #1
    35fc:	0a000000 	beq	3604 <pixman_composite_over_n_8_0565_asm_neon+0x464>
    3600:	f4c2c44d 	vst1.16	{d28[1]}, [r2]!
    3604:	e1a00004 	mov	r0, r4
    3608:	e0822083 	add	r2, r2, r3, lsl #1
    360c:	e0877008 	add	r7, r7, r8
    3610:	e0422080 	sub	r2, r2, r0, lsl #1
    3614:	e0477000 	sub	r7, r7, r0
    3618:	e2511001 	subs	r1, r1, #1
    361c:	e1a06002 	mov	r6, r2
    3620:	aafffef4 	bge	31f8 <pixman_composite_over_n_8_0565_asm_neon+0x58>
    3624:	ecbd8b10 	vpop	{d8-d15}
    3628:	e8bd9ff0 	pop	{r4, r5, r6, r7, r8, r9, sl, fp, ip, pc}
    362c:	e3100008 	tst	r0, #8
    3630:	0a000025 	beq	36cc <pixman_composite_over_n_8_0565_asm_neon+0x52c>
    3634:	f4264a4d 	vld1.16	{d4-d5}, [r6]!
    3638:	f467870d 	vld1.8	{d24}, [r7]!
    363c:	f3880c88 	vmull.u8	q0, d24, d8
    3640:	f3882c89 	vmull.u8	q1, d24, d9
    3644:	f388cc8a 	vmull.u8	q6, d24, d10
    3648:	f388ec8b 	vmull.u8	q7, d24, d11
    364c:	f2886814 	vshrn.i16	d6, q2, #8
    3650:	f28d7814 	vshrn.i16	d7, q2, #3
    3654:	f3954554 	vsli.16	q2, q2, #5
    3658:	f3d80250 	vrshr.u16	q8, q0, #8
    365c:	f3d82252 	vrshr.u16	q9, q1, #8
    3660:	f3d8425c 	vrshr.u16	q10, q6, #8
    3664:	f3d8625e 	vrshr.u16	q11, q7, #8
    3668:	f3800420 	vraddhn.i16	d0, q0, q8
    366c:	f3821422 	vraddhn.i16	d1, q1, q9
    3670:	f38c2424 	vraddhn.i16	d2, q6, q10
    3674:	f38e3426 	vraddhn.i16	d3, q7, q11
    3678:	f38b6416 	vsri.8	d6, d6, #5
    367c:	f38a7417 	vsri.8	d7, d7, #6
    3680:	f3b03583 	vmvn	d3, d3
    3684:	f2cee814 	vshrn.i16	d30, q2, #2
    3688:	f3c30c06 	vmull.u8	q8, d3, d6
    368c:	f3c32c07 	vmull.u8	q9, d3, d7
    3690:	f3c34c2e 	vmull.u8	q10, d3, d30
    3694:	f3d8a270 	vrshr.u16	q13, q8, #8
    3698:	f3d86272 	vrshr.u16	q11, q9, #8
    369c:	f3d8e274 	vrshr.u16	q15, q10, #8
    36a0:	f3c004aa 	vraddhn.i16	d16, q8, q13
    36a4:	f3c2b4a6 	vraddhn.i16	d27, q9, q11
    36a8:	f3c4a4ae 	vraddhn.i16	d26, q10, q15
    36ac:	f3420030 	vqadd.u8	d16, d2, d16
    36b0:	f340207a 	vqadd.u8	q9, q0, q13
    36b4:	f3f2c320 	vshll.i8	q14, d16, #8
    36b8:	f3f20323 	vshll.i8	q8, d19, #8
    36bc:	f3f22322 	vshll.i8	q9, d18, #8
    36c0:	f3dbc470 	vsri.16	q14, q8, #5
    36c4:	f3d5c472 	vsri.16	q14, q9, #11
    36c8:	f442ca4d 	vst1.16	{d28-d29}, [r2]!
    36cc:	e3100007 	tst	r0, #7
    36d0:	0a00003d 	beq	37cc <pixman_composite_over_n_8_0565_asm_neon+0x62c>
    36d4:	e3100004 	tst	r0, #4
    36d8:	0a000004 	beq	36f0 <pixman_composite_over_n_8_0565_asm_neon+0x550>
    36dc:	f4e7808d 	vld1.8	{d24[4]}, [r7]!
    36e0:	f4e780ad 	vld1.8	{d24[5]}, [r7]!
    36e4:	f4e780cd 	vld1.8	{d24[6]}, [r7]!
    36e8:	f4e780ed 	vld1.8	{d24[7]}, [r7]!
    36ec:	f426574d 	vld1.16	{d5}, [r6]!
    36f0:	e3100002 	tst	r0, #2
    36f4:	0a000003 	beq	3708 <pixman_composite_over_n_8_0565_asm_neon+0x568>
    36f8:	f4e7804d 	vld1.8	{d24[2]}, [r7]!
    36fc:	f4e7806d 	vld1.8	{d24[3]}, [r7]!
    3700:	f4a6448d 	vld1.16	{d4[2]}, [r6]!
    3704:	f4a644cd 	vld1.16	{d4[3]}, [r6]!
    3708:	e3100001 	tst	r0, #1
    370c:	0a000001 	beq	3718 <pixman_composite_over_n_8_0565_asm_neon+0x578>
    3710:	f4e7802d 	vld1.8	{d24[1]}, [r7]!
    3714:	f4a6444d 	vld1.16	{d4[1]}, [r6]!
    3718:	f3880c88 	vmull.u8	q0, d24, d8
    371c:	f3882c89 	vmull.u8	q1, d24, d9
    3720:	f388cc8a 	vmull.u8	q6, d24, d10
    3724:	f388ec8b 	vmull.u8	q7, d24, d11
    3728:	f2886814 	vshrn.i16	d6, q2, #8
    372c:	f28d7814 	vshrn.i16	d7, q2, #3
    3730:	f3954554 	vsli.16	q2, q2, #5
    3734:	f3d80250 	vrshr.u16	q8, q0, #8
    3738:	f3d82252 	vrshr.u16	q9, q1, #8
    373c:	f3d8425c 	vrshr.u16	q10, q6, #8
    3740:	f3d8625e 	vrshr.u16	q11, q7, #8
    3744:	f3800420 	vraddhn.i16	d0, q0, q8
    3748:	f3821422 	vraddhn.i16	d1, q1, q9
    374c:	f38c2424 	vraddhn.i16	d2, q6, q10
    3750:	f38e3426 	vraddhn.i16	d3, q7, q11
    3754:	f38b6416 	vsri.8	d6, d6, #5
    3758:	f38a7417 	vsri.8	d7, d7, #6
    375c:	f3b03583 	vmvn	d3, d3
    3760:	f2cee814 	vshrn.i16	d30, q2, #2
    3764:	f3c30c06 	vmull.u8	q8, d3, d6
    3768:	f3c32c07 	vmull.u8	q9, d3, d7
    376c:	f3c34c2e 	vmull.u8	q10, d3, d30
    3770:	f3d8a270 	vrshr.u16	q13, q8, #8
    3774:	f3d86272 	vrshr.u16	q11, q9, #8
    3778:	f3d8e274 	vrshr.u16	q15, q10, #8
    377c:	f3c004aa 	vraddhn.i16	d16, q8, q13
    3780:	f3c2b4a6 	vraddhn.i16	d27, q9, q11
    3784:	f3c4a4ae 	vraddhn.i16	d26, q10, q15
    3788:	f3420030 	vqadd.u8	d16, d2, d16
    378c:	f340207a 	vqadd.u8	q9, q0, q13
    3790:	f3f2c320 	vshll.i8	q14, d16, #8
    3794:	f3f20323 	vshll.i8	q8, d19, #8
    3798:	f3f22322 	vshll.i8	q9, d18, #8
    379c:	f3dbc470 	vsri.16	q14, q8, #5
    37a0:	f3d5c472 	vsri.16	q14, q9, #11
    37a4:	e3100004 	tst	r0, #4
    37a8:	0a000000 	beq	37b0 <pixman_composite_over_n_8_0565_asm_neon+0x610>
    37ac:	f442d74d 	vst1.16	{d29}, [r2]!
    37b0:	e3100002 	tst	r0, #2
    37b4:	0a000001 	beq	37c0 <pixman_composite_over_n_8_0565_asm_neon+0x620>
    37b8:	f4c2c48d 	vst1.16	{d28[2]}, [r2]!
    37bc:	f4c2c4cd 	vst1.16	{d28[3]}, [r2]!
    37c0:	e3100001 	tst	r0, #1
    37c4:	0a000000 	beq	37cc <pixman_composite_over_n_8_0565_asm_neon+0x62c>
    37c8:	f4c2c44d 	vst1.16	{d28[1]}, [r2]!
    37cc:	e1a00004 	mov	r0, r4
    37d0:	e0822083 	add	r2, r2, r3, lsl #1
    37d4:	e0877008 	add	r7, r7, r8
    37d8:	e0422080 	sub	r2, r2, r0, lsl #1
    37dc:	e0477000 	sub	r7, r7, r0
    37e0:	e2511001 	subs	r1, r1, #1
    37e4:	e1a06002 	mov	r6, r2
    37e8:	aaffff8f 	bge	362c <pixman_composite_over_n_8_0565_asm_neon+0x48c>
    37ec:	ecbd8b10 	vpop	{d8-d15}
    37f0:	e8bd9ff0 	pop	{r4, r5, r6, r7, r8, r9, sl, fp, ip, pc}

000037f4 <pixman_composite_over_8888_n_0565_asm_neon>:
    37f4:	e92d5ff0 	push	{r4, r5, r6, r7, r8, r9, sl, fp, ip, lr}
    37f8:	e59d4028 	ldr	r4, [sp, #40]	; 0x28
    37fc:	e3a0a000 	mov	sl, #0
    3800:	e59d502c 	ldr	r5, [sp, #44]	; 0x2c
    3804:	e1a06002 	mov	r6, r2
    3808:	e1a0b004 	mov	fp, r4
    380c:	e1a0c006 	mov	ip, r6
    3810:	e1a0e007 	mov	lr, r7
    3814:	e1a09201 	lsl	r9, r1, #4
    3818:	e249900b 	sub	r9, r9, #11
    381c:	e28d8030 	add	r8, sp, #48	; 0x30
    3820:	ed2d8b10 	vpush	{d8-d15}
    3824:	f4e8880f 	vld1.32	{d24[0]}, [r8]
    3828:	f3f78c28 	vdup.8	d24, d24[3]
    382c:	e2511001 	subs	r1, r1, #1
    3830:	e1a07000 	mov	r7, r0
    3834:	ba00017e 	blt	3e34 <pixman_composite_over_8888_n_0565_asm_neon+0x640>
    3838:	e3500010 	cmp	r0, #16
    383c:	ba00010c 	blt	3c74 <pixman_composite_over_8888_n_0565_asm_neon+0x480>
    3840:	e316000f 	tst	r6, #15
    3844:	0a00004d 	beq	3980 <pixman_composite_over_8888_n_0565_asm_neon+0x18c>
    3848:	e3160002 	tst	r6, #2
    384c:	0a000003 	beq	3860 <pixman_composite_over_8888_n_0565_asm_neon+0x6c>
    3850:	f4a4888d 	vld1.32	{d8[1]}, [r4]!
    3854:	f4a6444d 	vld1.16	{d4[1]}, [r6]!
    3858:	e28aa001 	add	sl, sl, #1
    385c:	e2400001 	sub	r0, r0, #1
    3860:	e3160004 	tst	r6, #4
    3864:	0a000004 	beq	387c <pixman_composite_over_8888_n_0565_asm_neon+0x88>
    3868:	f424978d 	vld1.32	{d9}, [r4]!
    386c:	f4a6448d 	vld1.16	{d4[2]}, [r6]!
    3870:	f4a644cd 	vld1.16	{d4[3]}, [r6]!
    3874:	e28aa002 	add	sl, sl, #2
    3878:	e2400002 	sub	r0, r0, #2
    387c:	e3160008 	tst	r6, #8
    3880:	0a000003 	beq	3894 <pixman_composite_over_8888_n_0565_asm_neon+0xa0>
    3884:	f424aa8d 	vld1.32	{d10-d11}, [r4]!
    3888:	f426575d 	vld1.16	{d5}, [r6 :64]!
    388c:	e28aa004 	add	sl, sl, #4
    3890:	e2400004 	sub	r0, r0, #4
    3894:	f3b28109 	vuzp.8	d8, d9
    3898:	f3b2a10b 	vuzp.8	d10, d11
    389c:	f3b2910b 	vuzp.8	d9, d11
    38a0:	f3b2810a 	vuzp.8	d8, d10
    38a4:	f3880c88 	vmull.u8	q0, d24, d8
    38a8:	f3882c89 	vmull.u8	q1, d24, d9
    38ac:	f388cc8a 	vmull.u8	q6, d24, d10
    38b0:	f388ec8b 	vmull.u8	q7, d24, d11
    38b4:	f2886814 	vshrn.i16	d6, q2, #8
    38b8:	f28d7814 	vshrn.i16	d7, q2, #3
    38bc:	f3954554 	vsli.16	q2, q2, #5
    38c0:	f3d80250 	vrshr.u16	q8, q0, #8
    38c4:	f3d82252 	vrshr.u16	q9, q1, #8
    38c8:	f3d8425c 	vrshr.u16	q10, q6, #8
    38cc:	f3d8625e 	vrshr.u16	q11, q7, #8
    38d0:	f3800420 	vraddhn.i16	d0, q0, q8
    38d4:	f3821422 	vraddhn.i16	d1, q1, q9
    38d8:	f38c2424 	vraddhn.i16	d2, q6, q10
    38dc:	f38e3426 	vraddhn.i16	d3, q7, q11
    38e0:	f38b6416 	vsri.8	d6, d6, #5
    38e4:	f38a7417 	vsri.8	d7, d7, #6
    38e8:	f3b03583 	vmvn	d3, d3
    38ec:	f2cee814 	vshrn.i16	d30, q2, #2
    38f0:	f3c30c06 	vmull.u8	q8, d3, d6
    38f4:	f3c32c07 	vmull.u8	q9, d3, d7
    38f8:	f3c34c2e 	vmull.u8	q10, d3, d30
    38fc:	e319000f 	tst	r9, #15
    3900:	128aa008 	addne	sl, sl, #8
    3904:	12499001 	subne	r9, r9, #1
    3908:	e15a0007 	cmp	sl, r7
    390c:	f7dbf10a 	pld	[fp, sl, lsl #2]
    3910:	f7dcf08a 	pld	[ip, sl, lsl #1]
    3914:	a04aa007 	subge	sl, sl, r7
    3918:	a2599010 	subsge	r9, r9, #16
    391c:	a7fb8105 	ldrbge	r8, [fp, r5, lsl #2]!
    3920:	a7fc8083 	ldrbge	r8, [ip, r3, lsl #1]!
    3924:	f3d8a270 	vrshr.u16	q13, q8, #8
    3928:	f3d86272 	vrshr.u16	q11, q9, #8
    392c:	f3d8e274 	vrshr.u16	q15, q10, #8
    3930:	f3c004aa 	vraddhn.i16	d16, q8, q13
    3934:	f3c2b4a6 	vraddhn.i16	d27, q9, q11
    3938:	f3c4a4ae 	vraddhn.i16	d26, q10, q15
    393c:	f3420030 	vqadd.u8	d16, d2, d16
    3940:	f340207a 	vqadd.u8	q9, q0, q13
    3944:	f3f2c320 	vshll.i8	q14, d16, #8
    3948:	f3f20323 	vshll.i8	q8, d19, #8
    394c:	f3f22322 	vshll.i8	q9, d18, #8
    3950:	f3dbc470 	vsri.16	q14, q8, #5
    3954:	f3d5c472 	vsri.16	q14, q9, #11
    3958:	e3120002 	tst	r2, #2
    395c:	0a000000 	beq	3964 <pixman_composite_over_8888_n_0565_asm_neon+0x170>
    3960:	f4c2c44d 	vst1.16	{d28[1]}, [r2]!
    3964:	e3120004 	tst	r2, #4
    3968:	0a000001 	beq	3974 <pixman_composite_over_8888_n_0565_asm_neon+0x180>
    396c:	f4c2c48d 	vst1.16	{d28[2]}, [r2]!
    3970:	f4c2c4cd 	vst1.16	{d28[3]}, [r2]!
    3974:	e3120008 	tst	r2, #8
    3978:	0a000000 	beq	3980 <pixman_composite_over_8888_n_0565_asm_neon+0x18c>
    397c:	f442d75d 	vst1.16	{d29}, [r2 :64]!
    3980:	f4264a6d 	vld1.16	{d4-d5}, [r6 :128]!
    3984:	f424800d 	vld4.8	{d8-d11}, [r4]!
    3988:	e28aa008 	add	sl, sl, #8
    398c:	f3880c88 	vmull.u8	q0, d24, d8
    3990:	f3882c89 	vmull.u8	q1, d24, d9
    3994:	f388cc8a 	vmull.u8	q6, d24, d10
    3998:	f388ec8b 	vmull.u8	q7, d24, d11
    399c:	f2886814 	vshrn.i16	d6, q2, #8
    39a0:	f28d7814 	vshrn.i16	d7, q2, #3
    39a4:	f3954554 	vsli.16	q2, q2, #5
    39a8:	f3d80250 	vrshr.u16	q8, q0, #8
    39ac:	f3d82252 	vrshr.u16	q9, q1, #8
    39b0:	f3d8425c 	vrshr.u16	q10, q6, #8
    39b4:	f3d8625e 	vrshr.u16	q11, q7, #8
    39b8:	f3800420 	vraddhn.i16	d0, q0, q8
    39bc:	f3821422 	vraddhn.i16	d1, q1, q9
    39c0:	f38c2424 	vraddhn.i16	d2, q6, q10
    39c4:	f38e3426 	vraddhn.i16	d3, q7, q11
    39c8:	f38b6416 	vsri.8	d6, d6, #5
    39cc:	f38a7417 	vsri.8	d7, d7, #6
    39d0:	f3b03583 	vmvn	d3, d3
    39d4:	f2cee814 	vshrn.i16	d30, q2, #2
    39d8:	f3c30c06 	vmull.u8	q8, d3, d6
    39dc:	f3c32c07 	vmull.u8	q9, d3, d7
    39e0:	f3c34c2e 	vmull.u8	q10, d3, d30
    39e4:	e319000f 	tst	r9, #15
    39e8:	128aa008 	addne	sl, sl, #8
    39ec:	12499001 	subne	r9, r9, #1
    39f0:	e15a0007 	cmp	sl, r7
    39f4:	f7dbf10a 	pld	[fp, sl, lsl #2]
    39f8:	f7dcf08a 	pld	[ip, sl, lsl #1]
    39fc:	a04aa007 	subge	sl, sl, r7
    3a00:	a2599010 	subsge	r9, r9, #16
    3a04:	a7fb8105 	ldrbge	r8, [fp, r5, lsl #2]!
    3a08:	a7fc8083 	ldrbge	r8, [ip, r3, lsl #1]!
    3a0c:	e2500010 	subs	r0, r0, #16
    3a10:	ba000032 	blt	3ae0 <pixman_composite_over_8888_n_0565_asm_neon+0x2ec>
    3a14:	f4264a6d 	vld1.16	{d4-d5}, [r6 :128]!
    3a18:	f2886814 	vshrn.i16	d6, q2, #8
    3a1c:	f28d7814 	vshrn.i16	d7, q2, #3
    3a20:	f424800d 	vld4.8	{d8-d11}, [r4]!
    3a24:	f388cc8a 	vmull.u8	q6, d24, d10
    3a28:	f3d8a270 	vrshr.u16	q13, q8, #8
    3a2c:	f3d86272 	vrshr.u16	q11, q9, #8
    3a30:	f3d8e274 	vrshr.u16	q15, q10, #8
    3a34:	f3c004aa 	vraddhn.i16	d16, q8, q13
    3a38:	f3c2b4a6 	vraddhn.i16	d27, q9, q11
    3a3c:	f3c4a4ae 	vraddhn.i16	d26, q10, q15
    3a40:	f3420030 	vqadd.u8	d16, d2, d16
    3a44:	f3882c89 	vmull.u8	q1, d24, d9
    3a48:	f340207a 	vqadd.u8	q9, q0, q13
    3a4c:	f3f2c320 	vshll.i8	q14, d16, #8
    3a50:	f3880c88 	vmull.u8	q0, d24, d8
    3a54:	f3f20323 	vshll.i8	q8, d19, #8
    3a58:	f3f22322 	vshll.i8	q9, d18, #8
    3a5c:	f3dbc470 	vsri.16	q14, q8, #5
    3a60:	f388ec8b 	vmull.u8	q7, d24, d11
    3a64:	f3d5c472 	vsri.16	q14, q9, #11
    3a68:	e28aa008 	add	sl, sl, #8
    3a6c:	e319000f 	tst	r9, #15
    3a70:	128aa008 	addne	sl, sl, #8
    3a74:	12499001 	subne	r9, r9, #1
    3a78:	e15a0007 	cmp	sl, r7
    3a7c:	f7dbf10a 	pld	[fp, sl, lsl #2]
    3a80:	f7dcf08a 	pld	[ip, sl, lsl #1]
    3a84:	a04aa007 	subge	sl, sl, r7
    3a88:	a2599010 	subsge	r9, r9, #16
    3a8c:	a7fb8105 	ldrbge	r8, [fp, r5, lsl #2]!
    3a90:	a7fc8083 	ldrbge	r8, [ip, r3, lsl #1]!
    3a94:	f3954554 	vsli.16	q2, q2, #5
    3a98:	f3d80250 	vrshr.u16	q8, q0, #8
    3a9c:	f3d82252 	vrshr.u16	q9, q1, #8
    3aa0:	f3d8425c 	vrshr.u16	q10, q6, #8
    3aa4:	f3d8625e 	vrshr.u16	q11, q7, #8
    3aa8:	f3800420 	vraddhn.i16	d0, q0, q8
    3aac:	f3821422 	vraddhn.i16	d1, q1, q9
    3ab0:	f38c2424 	vraddhn.i16	d2, q6, q10
    3ab4:	f38e3426 	vraddhn.i16	d3, q7, q11
    3ab8:	f38b6416 	vsri.8	d6, d6, #5
    3abc:	f38a7417 	vsri.8	d7, d7, #6
    3ac0:	f3b03583 	vmvn	d3, d3
    3ac4:	f2cee814 	vshrn.i16	d30, q2, #2
    3ac8:	f442ca6d 	vst1.16	{d28-d29}, [r2 :128]!
    3acc:	f3c30c06 	vmull.u8	q8, d3, d6
    3ad0:	f3c32c07 	vmull.u8	q9, d3, d7
    3ad4:	f3c34c2e 	vmull.u8	q10, d3, d30
    3ad8:	e2500008 	subs	r0, r0, #8
    3adc:	aaffffcc 	bge	3a14 <pixman_composite_over_8888_n_0565_asm_neon+0x220>
    3ae0:	f3d8a270 	vrshr.u16	q13, q8, #8
    3ae4:	f3d86272 	vrshr.u16	q11, q9, #8
    3ae8:	f3d8e274 	vrshr.u16	q15, q10, #8
    3aec:	f3c004aa 	vraddhn.i16	d16, q8, q13
    3af0:	f3c2b4a6 	vraddhn.i16	d27, q9, q11
    3af4:	f3c4a4ae 	vraddhn.i16	d26, q10, q15
    3af8:	f3420030 	vqadd.u8	d16, d2, d16
    3afc:	f340207a 	vqadd.u8	q9, q0, q13
    3b00:	f3f2c320 	vshll.i8	q14, d16, #8
    3b04:	f3f20323 	vshll.i8	q8, d19, #8
    3b08:	f3f22322 	vshll.i8	q9, d18, #8
    3b0c:	f3dbc470 	vsri.16	q14, q8, #5
    3b10:	f3d5c472 	vsri.16	q14, q9, #11
    3b14:	f442ca6d 	vst1.16	{d28-d29}, [r2 :128]!
    3b18:	e3100007 	tst	r0, #7
    3b1c:	0a00004a 	beq	3c4c <pixman_composite_over_8888_n_0565_asm_neon+0x458>
    3b20:	e3100004 	tst	r0, #4
    3b24:	0a000002 	beq	3b34 <pixman_composite_over_8888_n_0565_asm_neon+0x340>
    3b28:	f424aa8d 	vld1.32	{d10-d11}, [r4]!
    3b2c:	f426575d 	vld1.16	{d5}, [r6 :64]!
    3b30:	e28aa004 	add	sl, sl, #4
    3b34:	e3100002 	tst	r0, #2
    3b38:	0a000003 	beq	3b4c <pixman_composite_over_8888_n_0565_asm_neon+0x358>
    3b3c:	f424978d 	vld1.32	{d9}, [r4]!
    3b40:	f4a6448d 	vld1.16	{d4[2]}, [r6]!
    3b44:	f4a644cd 	vld1.16	{d4[3]}, [r6]!
    3b48:	e28aa002 	add	sl, sl, #2
    3b4c:	e3100001 	tst	r0, #1
    3b50:	0a000002 	beq	3b60 <pixman_composite_over_8888_n_0565_asm_neon+0x36c>
    3b54:	f4a4888d 	vld1.32	{d8[1]}, [r4]!
    3b58:	f4a6444d 	vld1.16	{d4[1]}, [r6]!
    3b5c:	e28aa001 	add	sl, sl, #1
    3b60:	f3b28109 	vuzp.8	d8, d9
    3b64:	f3b2a10b 	vuzp.8	d10, d11
    3b68:	f3b2910b 	vuzp.8	d9, d11
    3b6c:	f3b2810a 	vuzp.8	d8, d10
    3b70:	f3880c88 	vmull.u8	q0, d24, d8
    3b74:	f3882c89 	vmull.u8	q1, d24, d9
    3b78:	f388cc8a 	vmull.u8	q6, d24, d10
    3b7c:	f388ec8b 	vmull.u8	q7, d24, d11
    3b80:	f2886814 	vshrn.i16	d6, q2, #8
    3b84:	f28d7814 	vshrn.i16	d7, q2, #3
    3b88:	f3954554 	vsli.16	q2, q2, #5
    3b8c:	f3d80250 	vrshr.u16	q8, q0, #8
    3b90:	f3d82252 	vrshr.u16	q9, q1, #8
    3b94:	f3d8425c 	vrshr.u16	q10, q6, #8
    3b98:	f3d8625e 	vrshr.u16	q11, q7, #8
    3b9c:	f3800420 	vraddhn.i16	d0, q0, q8
    3ba0:	f3821422 	vraddhn.i16	d1, q1, q9
    3ba4:	f38c2424 	vraddhn.i16	d2, q6, q10
    3ba8:	f38e3426 	vraddhn.i16	d3, q7, q11
    3bac:	f38b6416 	vsri.8	d6, d6, #5
    3bb0:	f38a7417 	vsri.8	d7, d7, #6
    3bb4:	f3b03583 	vmvn	d3, d3
    3bb8:	f2cee814 	vshrn.i16	d30, q2, #2
    3bbc:	f3c30c06 	vmull.u8	q8, d3, d6
    3bc0:	f3c32c07 	vmull.u8	q9, d3, d7
    3bc4:	f3c34c2e 	vmull.u8	q10, d3, d30
    3bc8:	e319000f 	tst	r9, #15
    3bcc:	128aa008 	addne	sl, sl, #8
    3bd0:	12499001 	subne	r9, r9, #1
    3bd4:	e15a0007 	cmp	sl, r7
    3bd8:	f7dbf10a 	pld	[fp, sl, lsl #2]
    3bdc:	f7dcf08a 	pld	[ip, sl, lsl #1]
    3be0:	a04aa007 	subge	sl, sl, r7
    3be4:	a2599010 	subsge	r9, r9, #16
    3be8:	a7fb8105 	ldrbge	r8, [fp, r5, lsl #2]!
    3bec:	a7fc8083 	ldrbge	r8, [ip, r3, lsl #1]!
    3bf0:	f3d8a270 	vrshr.u16	q13, q8, #8
    3bf4:	f3d86272 	vrshr.u16	q11, q9, #8
    3bf8:	f3d8e274 	vrshr.u16	q15, q10, #8
    3bfc:	f3c004aa 	vraddhn.i16	d16, q8, q13
    3c00:	f3c2b4a6 	vraddhn.i16	d27, q9, q11
    3c04:	f3c4a4ae 	vraddhn.i16	d26, q10, q15
    3c08:	f3420030 	vqadd.u8	d16, d2, d16
    3c0c:	f340207a 	vqadd.u8	q9, q0, q13
    3c10:	f3f2c320 	vshll.i8	q14, d16, #8
    3c14:	f3f20323 	vshll.i8	q8, d19, #8
    3c18:	f3f22322 	vshll.i8	q9, d18, #8
    3c1c:	f3dbc470 	vsri.16	q14, q8, #5
    3c20:	f3d5c472 	vsri.16	q14, q9, #11
    3c24:	e3100004 	tst	r0, #4
    3c28:	0a000000 	beq	3c30 <pixman_composite_over_8888_n_0565_asm_neon+0x43c>
    3c2c:	f442d75d 	vst1.16	{d29}, [r2 :64]!
    3c30:	e3100002 	tst	r0, #2
    3c34:	0a000001 	beq	3c40 <pixman_composite_over_8888_n_0565_asm_neon+0x44c>
    3c38:	f4c2c48d 	vst1.16	{d28[2]}, [r2]!
    3c3c:	f4c2c4cd 	vst1.16	{d28[3]}, [r2]!
    3c40:	e3100001 	tst	r0, #1
    3c44:	0a000000 	beq	3c4c <pixman_composite_over_8888_n_0565_asm_neon+0x458>
    3c48:	f4c2c44d 	vst1.16	{d28[1]}, [r2]!
    3c4c:	e1a00007 	mov	r0, r7
    3c50:	e0822083 	add	r2, r2, r3, lsl #1
    3c54:	e0844105 	add	r4, r4, r5, lsl #2
    3c58:	e0422080 	sub	r2, r2, r0, lsl #1
    3c5c:	e0444100 	sub	r4, r4, r0, lsl #2
    3c60:	e2511001 	subs	r1, r1, #1
    3c64:	e1a06002 	mov	r6, r2
    3c68:	aafffef4 	bge	3840 <pixman_composite_over_8888_n_0565_asm_neon+0x4c>
    3c6c:	ecbd8b10 	vpop	{d8-d15}
    3c70:	e8bd9ff0 	pop	{r4, r5, r6, r7, r8, r9, sl, fp, ip, pc}
    3c74:	e3100008 	tst	r0, #8
    3c78:	0a000025 	beq	3d14 <pixman_composite_over_8888_n_0565_asm_neon+0x520>
    3c7c:	f4264a4d 	vld1.16	{d4-d5}, [r6]!
    3c80:	f424800d 	vld4.8	{d8-d11}, [r4]!
    3c84:	f3880c88 	vmull.u8	q0, d24, d8
    3c88:	f3882c89 	vmull.u8	q1, d24, d9
    3c8c:	f388cc8a 	vmull.u8	q6, d24, d10
    3c90:	f388ec8b 	vmull.u8	q7, d24, d11
    3c94:	f2886814 	vshrn.i16	d6, q2, #8
    3c98:	f28d7814 	vshrn.i16	d7, q2, #3
    3c9c:	f3954554 	vsli.16	q2, q2, #5
    3ca0:	f3d80250 	vrshr.u16	q8, q0, #8
    3ca4:	f3d82252 	vrshr.u16	q9, q1, #8
    3ca8:	f3d8425c 	vrshr.u16	q10, q6, #8
    3cac:	f3d8625e 	vrshr.u16	q11, q7, #8
    3cb0:	f3800420 	vraddhn.i16	d0, q0, q8
    3cb4:	f3821422 	vraddhn.i16	d1, q1, q9
    3cb8:	f38c2424 	vraddhn.i16	d2, q6, q10
    3cbc:	f38e3426 	vraddhn.i16	d3, q7, q11
    3cc0:	f38b6416 	vsri.8	d6, d6, #5
    3cc4:	f38a7417 	vsri.8	d7, d7, #6
    3cc8:	f3b03583 	vmvn	d3, d3
    3ccc:	f2cee814 	vshrn.i16	d30, q2, #2
    3cd0:	f3c30c06 	vmull.u8	q8, d3, d6
    3cd4:	f3c32c07 	vmull.u8	q9, d3, d7
    3cd8:	f3c34c2e 	vmull.u8	q10, d3, d30
    3cdc:	f3d8a270 	vrshr.u16	q13, q8, #8
    3ce0:	f3d86272 	vrshr.u16	q11, q9, #8
    3ce4:	f3d8e274 	vrshr.u16	q15, q10, #8
    3ce8:	f3c004aa 	vraddhn.i16	d16, q8, q13
    3cec:	f3c2b4a6 	vraddhn.i16	d27, q9, q11
    3cf0:	f3c4a4ae 	vraddhn.i16	d26, q10, q15
    3cf4:	f3420030 	vqadd.u8	d16, d2, d16
    3cf8:	f340207a 	vqadd.u8	q9, q0, q13
    3cfc:	f3f2c320 	vshll.i8	q14, d16, #8
    3d00:	f3f20323 	vshll.i8	q8, d19, #8
    3d04:	f3f22322 	vshll.i8	q9, d18, #8
    3d08:	f3dbc470 	vsri.16	q14, q8, #5
    3d0c:	f3d5c472 	vsri.16	q14, q9, #11
    3d10:	f442ca4d 	vst1.16	{d28-d29}, [r2]!
    3d14:	e3100007 	tst	r0, #7
    3d18:	0a00003d 	beq	3e14 <pixman_composite_over_8888_n_0565_asm_neon+0x620>
    3d1c:	e3100004 	tst	r0, #4
    3d20:	0a000001 	beq	3d2c <pixman_composite_over_8888_n_0565_asm_neon+0x538>
    3d24:	f424aa8d 	vld1.32	{d10-d11}, [r4]!
    3d28:	f426574d 	vld1.16	{d5}, [r6]!
    3d2c:	e3100002 	tst	r0, #2
    3d30:	0a000002 	beq	3d40 <pixman_composite_over_8888_n_0565_asm_neon+0x54c>
    3d34:	f424978d 	vld1.32	{d9}, [r4]!
    3d38:	f4a6448d 	vld1.16	{d4[2]}, [r6]!
    3d3c:	f4a644cd 	vld1.16	{d4[3]}, [r6]!
    3d40:	e3100001 	tst	r0, #1
    3d44:	0a000001 	beq	3d50 <pixman_composite_over_8888_n_0565_asm_neon+0x55c>
    3d48:	f4a4888d 	vld1.32	{d8[1]}, [r4]!
    3d4c:	f4a6444d 	vld1.16	{d4[1]}, [r6]!
    3d50:	f3b28109 	vuzp.8	d8, d9
    3d54:	f3b2a10b 	vuzp.8	d10, d11
    3d58:	f3b2910b 	vuzp.8	d9, d11
    3d5c:	f3b2810a 	vuzp.8	d8, d10
    3d60:	f3880c88 	vmull.u8	q0, d24, d8
    3d64:	f3882c89 	vmull.u8	q1, d24, d9
    3d68:	f388cc8a 	vmull.u8	q6, d24, d10
    3d6c:	f388ec8b 	vmull.u8	q7, d24, d11
    3d70:	f2886814 	vshrn.i16	d6, q2, #8
    3d74:	f28d7814 	vshrn.i16	d7, q2, #3
    3d78:	f3954554 	vsli.16	q2, q2, #5
    3d7c:	f3d80250 	vrshr.u16	q8, q0, #8
    3d80:	f3d82252 	vrshr.u16	q9, q1, #8
    3d84:	f3d8425c 	vrshr.u16	q10, q6, #8
    3d88:	f3d8625e 	vrshr.u16	q11, q7, #8
    3d8c:	f3800420 	vraddhn.i16	d0, q0, q8
    3d90:	f3821422 	vraddhn.i16	d1, q1, q9
    3d94:	f38c2424 	vraddhn.i16	d2, q6, q10
    3d98:	f38e3426 	vraddhn.i16	d3, q7, q11
    3d9c:	f38b6416 	vsri.8	d6, d6, #5
    3da0:	f38a7417 	vsri.8	d7, d7, #6
    3da4:	f3b03583 	vmvn	d3, d3
    3da8:	f2cee814 	vshrn.i16	d30, q2, #2
    3dac:	f3c30c06 	vmull.u8	q8, d3, d6
    3db0:	f3c32c07 	vmull.u8	q9, d3, d7
    3db4:	f3c34c2e 	vmull.u8	q10, d3, d30
    3db8:	f3d8a270 	vrshr.u16	q13, q8, #8
    3dbc:	f3d86272 	vrshr.u16	q11, q9, #8
    3dc0:	f3d8e274 	vrshr.u16	q15, q10, #8
    3dc4:	f3c004aa 	vraddhn.i16	d16, q8, q13
    3dc8:	f3c2b4a6 	vraddhn.i16	d27, q9, q11
    3dcc:	f3c4a4ae 	vraddhn.i16	d26, q10, q15
    3dd0:	f3420030 	vqadd.u8	d16, d2, d16
    3dd4:	f340207a 	vqadd.u8	q9, q0, q13
    3dd8:	f3f2c320 	vshll.i8	q14, d16, #8
    3ddc:	f3f20323 	vshll.i8	q8, d19, #8
    3de0:	f3f22322 	vshll.i8	q9, d18, #8
    3de4:	f3dbc470 	vsri.16	q14, q8, #5
    3de8:	f3d5c472 	vsri.16	q14, q9, #11
    3dec:	e3100004 	tst	r0, #4
    3df0:	0a000000 	beq	3df8 <pixman_composite_over_8888_n_0565_asm_neon+0x604>
    3df4:	f442d74d 	vst1.16	{d29}, [r2]!
    3df8:	e3100002 	tst	r0, #2
    3dfc:	0a000001 	beq	3e08 <pixman_composite_over_8888_n_0565_asm_neon+0x614>
    3e00:	f4c2c48d 	vst1.16	{d28[2]}, [r2]!
    3e04:	f4c2c4cd 	vst1.16	{d28[3]}, [r2]!
    3e08:	e3100001 	tst	r0, #1
    3e0c:	0a000000 	beq	3e14 <pixman_composite_over_8888_n_0565_asm_neon+0x620>
    3e10:	f4c2c44d 	vst1.16	{d28[1]}, [r2]!
    3e14:	e1a00007 	mov	r0, r7
    3e18:	e0822083 	add	r2, r2, r3, lsl #1
    3e1c:	e0844105 	add	r4, r4, r5, lsl #2
    3e20:	e0422080 	sub	r2, r2, r0, lsl #1
    3e24:	e0444100 	sub	r4, r4, r0, lsl #2
    3e28:	e2511001 	subs	r1, r1, #1
    3e2c:	e1a06002 	mov	r6, r2
    3e30:	aaffff8f 	bge	3c74 <pixman_composite_over_8888_n_0565_asm_neon+0x480>
    3e34:	ecbd8b10 	vpop	{d8-d15}
    3e38:	e8bd9ff0 	pop	{r4, r5, r6, r7, r8, r9, sl, fp, ip, pc}

00003e3c <pixman_composite_src_0565_0565_asm_neon>:
    3e3c:	e92d5ff0 	push	{r4, r5, r6, r7, r8, r9, sl, fp, ip, lr}
    3e40:	e59d4028 	ldr	r4, [sp, #40]	; 0x28
    3e44:	e3a0a000 	mov	sl, #0
    3e48:	e59d502c 	ldr	r5, [sp, #44]	; 0x2c
    3e4c:	e1a06002 	mov	r6, r2
    3e50:	e1a0b004 	mov	fp, r4
    3e54:	e1a0c006 	mov	ip, r6
    3e58:	e1a0e007 	mov	lr, r7
    3e5c:	e1a09201 	lsl	r9, r1, #4
    3e60:	e2499006 	sub	r9, r9, #6
    3e64:	e2511001 	subs	r1, r1, #1
    3e68:	e1a07000 	mov	r7, r0
    3e6c:	ba0000a0 	blt	40f4 <pixman_composite_src_0565_0565_asm_neon+0x2b8>
    3e70:	e3500020 	cmp	r0, #32
    3e74:	ba000076 	blt	4054 <pixman_composite_src_0565_0565_asm_neon+0x218>
    3e78:	e316000f 	tst	r6, #15
    3e7c:	0a000029 	beq	3f28 <pixman_composite_src_0565_0565_asm_neon+0xec>
    3e80:	e3160002 	tst	r6, #2
    3e84:	0a000003 	beq	3e98 <pixman_composite_src_0565_0565_asm_neon+0x5c>
    3e88:	f4a4044d 	vld1.16	{d0[1]}, [r4]!
    3e8c:	e2866002 	add	r6, r6, #2
    3e90:	e28aa001 	add	sl, sl, #1
    3e94:	e2400001 	sub	r0, r0, #1
    3e98:	e3160004 	tst	r6, #4
    3e9c:	0a000004 	beq	3eb4 <pixman_composite_src_0565_0565_asm_neon+0x78>
    3ea0:	f4a4048d 	vld1.16	{d0[2]}, [r4]!
    3ea4:	f4a404cd 	vld1.16	{d0[3]}, [r4]!
    3ea8:	e2866004 	add	r6, r6, #4
    3eac:	e28aa002 	add	sl, sl, #2
    3eb0:	e2400002 	sub	r0, r0, #2
    3eb4:	e3160008 	tst	r6, #8
    3eb8:	0a000003 	beq	3ecc <pixman_composite_src_0565_0565_asm_neon+0x90>
    3ebc:	f424174d 	vld1.16	{d1}, [r4]!
    3ec0:	e2866008 	add	r6, r6, #8
    3ec4:	e28aa004 	add	sl, sl, #4
    3ec8:	e2400004 	sub	r0, r0, #4
    3ecc:	f4242a4d 	vld1.16	{d2-d3}, [r4]!
    3ed0:	e2866010 	add	r6, r6, #16
    3ed4:	e28aa008 	add	sl, sl, #8
    3ed8:	e2400008 	sub	r0, r0, #8
    3edc:	e319000f 	tst	r9, #15
    3ee0:	128aa010 	addne	sl, sl, #16
    3ee4:	12499001 	subne	r9, r9, #1
    3ee8:	e15a0007 	cmp	sl, r7
    3eec:	f7dbf08a 	pld	[fp, sl, lsl #1]
    3ef0:	a04aa007 	subge	sl, sl, r7
    3ef4:	a2599010 	subsge	r9, r9, #16
    3ef8:	a7fb8085 	ldrbge	r8, [fp, r5, lsl #1]!
    3efc:	e3120002 	tst	r2, #2
    3f00:	0a000000 	beq	3f08 <pixman_composite_src_0565_0565_asm_neon+0xcc>
    3f04:	f482044d 	vst1.16	{d0[1]}, [r2]!
    3f08:	e3120004 	tst	r2, #4
    3f0c:	0a000001 	beq	3f18 <pixman_composite_src_0565_0565_asm_neon+0xdc>
    3f10:	f482048d 	vst1.16	{d0[2]}, [r2]!
    3f14:	f48204cd 	vst1.16	{d0[3]}, [r2]!
    3f18:	e3120008 	tst	r2, #8
    3f1c:	0a000000 	beq	3f24 <pixman_composite_src_0565_0565_asm_neon+0xe8>
    3f20:	f402175d 	vst1.16	{d1}, [r2 :64]!
    3f24:	f4022a6d 	vst1.16	{d2-d3}, [r2 :128]!
    3f28:	f424024d 	vld1.16	{d0-d3}, [r4]!
    3f2c:	e28aa010 	add	sl, sl, #16
    3f30:	e319000f 	tst	r9, #15
    3f34:	128aa010 	addne	sl, sl, #16
    3f38:	12499001 	subne	r9, r9, #1
    3f3c:	e15a0007 	cmp	sl, r7
    3f40:	f7dbf08a 	pld	[fp, sl, lsl #1]
    3f44:	a04aa007 	subge	sl, sl, r7
    3f48:	a2599010 	subsge	r9, r9, #16
    3f4c:	a7fb8085 	ldrbge	r8, [fp, r5, lsl #1]!
    3f50:	e2500020 	subs	r0, r0, #32
    3f54:	ba00000c 	blt	3f8c <pixman_composite_src_0565_0565_asm_neon+0x150>
    3f58:	f402026d 	vst1.16	{d0-d3}, [r2 :128]!
    3f5c:	f424024d 	vld1.16	{d0-d3}, [r4]!
    3f60:	e28aa010 	add	sl, sl, #16
    3f64:	e319000f 	tst	r9, #15
    3f68:	128aa010 	addne	sl, sl, #16
    3f6c:	12499001 	subne	r9, r9, #1
    3f70:	e15a0007 	cmp	sl, r7
    3f74:	f7dbf08a 	pld	[fp, sl, lsl #1]
    3f78:	a04aa007 	subge	sl, sl, r7
    3f7c:	a2599010 	subsge	r9, r9, #16
    3f80:	a7fb8085 	ldrbge	r8, [fp, r5, lsl #1]!
    3f84:	e2500010 	subs	r0, r0, #16
    3f88:	aafffff2 	bge	3f58 <pixman_composite_src_0565_0565_asm_neon+0x11c>
    3f8c:	f402026d 	vst1.16	{d0-d3}, [r2 :128]!
    3f90:	e310000f 	tst	r0, #15
    3f94:	0a000025 	beq	4030 <pixman_composite_src_0565_0565_asm_neon+0x1f4>
    3f98:	e3100008 	tst	r0, #8
    3f9c:	0a000001 	beq	3fa8 <pixman_composite_src_0565_0565_asm_neon+0x16c>
    3fa0:	f4242a4d 	vld1.16	{d2-d3}, [r4]!
    3fa4:	e28aa008 	add	sl, sl, #8
    3fa8:	e3100004 	tst	r0, #4
    3fac:	0a000001 	beq	3fb8 <pixman_composite_src_0565_0565_asm_neon+0x17c>
    3fb0:	f424174d 	vld1.16	{d1}, [r4]!
    3fb4:	e28aa004 	add	sl, sl, #4
    3fb8:	e3100002 	tst	r0, #2
    3fbc:	0a000002 	beq	3fcc <pixman_composite_src_0565_0565_asm_neon+0x190>
    3fc0:	f4a4048d 	vld1.16	{d0[2]}, [r4]!
    3fc4:	f4a404cd 	vld1.16	{d0[3]}, [r4]!
    3fc8:	e28aa002 	add	sl, sl, #2
    3fcc:	e3100001 	tst	r0, #1
    3fd0:	0a000001 	beq	3fdc <pixman_composite_src_0565_0565_asm_neon+0x1a0>
    3fd4:	f4a4044d 	vld1.16	{d0[1]}, [r4]!
    3fd8:	e28aa001 	add	sl, sl, #1
    3fdc:	e319000f 	tst	r9, #15
    3fe0:	128aa010 	addne	sl, sl, #16
    3fe4:	12499001 	subne	r9, r9, #1
    3fe8:	e15a0007 	cmp	sl, r7
    3fec:	f7dbf08a 	pld	[fp, sl, lsl #1]
    3ff0:	a04aa007 	subge	sl, sl, r7
    3ff4:	a2599010 	subsge	r9, r9, #16
    3ff8:	a7fb8085 	ldrbge	r8, [fp, r5, lsl #1]!
    3ffc:	e3100008 	tst	r0, #8
    4000:	0a000000 	beq	4008 <pixman_composite_src_0565_0565_asm_neon+0x1cc>
    4004:	f4022a6d 	vst1.16	{d2-d3}, [r2 :128]!
    4008:	e3100004 	tst	r0, #4
    400c:	0a000000 	beq	4014 <pixman_composite_src_0565_0565_asm_neon+0x1d8>
    4010:	f402175d 	vst1.16	{d1}, [r2 :64]!
    4014:	e3100002 	tst	r0, #2
    4018:	0a000001 	beq	4024 <pixman_composite_src_0565_0565_asm_neon+0x1e8>
    401c:	f482048d 	vst1.16	{d0[2]}, [r2]!
    4020:	f48204cd 	vst1.16	{d0[3]}, [r2]!
    4024:	e3100001 	tst	r0, #1
    4028:	0a000000 	beq	4030 <pixman_composite_src_0565_0565_asm_neon+0x1f4>
    402c:	f482044d 	vst1.16	{d0[1]}, [r2]!
    4030:	e1a00007 	mov	r0, r7
    4034:	e0822083 	add	r2, r2, r3, lsl #1
    4038:	e0844085 	add	r4, r4, r5, lsl #1
    403c:	e0422080 	sub	r2, r2, r0, lsl #1
    4040:	e0444080 	sub	r4, r4, r0, lsl #1
    4044:	e2511001 	subs	r1, r1, #1
    4048:	e1a06002 	mov	r6, r2
    404c:	aaffff89 	bge	3e78 <pixman_composite_src_0565_0565_asm_neon+0x3c>
    4050:	e8bd9ff0 	pop	{r4, r5, r6, r7, r8, r9, sl, fp, ip, pc}
    4054:	e3100010 	tst	r0, #16
    4058:	0a000001 	beq	4064 <pixman_composite_src_0565_0565_asm_neon+0x228>
    405c:	f424024d 	vld1.16	{d0-d3}, [r4]!
    4060:	f402024d 	vst1.16	{d0-d3}, [r2]!
    4064:	e310000f 	tst	r0, #15
    4068:	0a000019 	beq	40d4 <pixman_composite_src_0565_0565_asm_neon+0x298>
    406c:	e3100008 	tst	r0, #8
    4070:	0a000000 	beq	4078 <pixman_composite_src_0565_0565_asm_neon+0x23c>
    4074:	f4242a4d 	vld1.16	{d2-d3}, [r4]!
    4078:	e3100004 	tst	r0, #4
    407c:	0a000000 	beq	4084 <pixman_composite_src_0565_0565_asm_neon+0x248>
    4080:	f424174d 	vld1.16	{d1}, [r4]!
    4084:	e3100002 	tst	r0, #2
    4088:	0a000001 	beq	4094 <pixman_composite_src_0565_0565_asm_neon+0x258>
    408c:	f4a4048d 	vld1.16	{d0[2]}, [r4]!
    4090:	f4a404cd 	vld1.16	{d0[3]}, [r4]!
    4094:	e3100001 	tst	r0, #1
    4098:	0a000000 	beq	40a0 <pixman_composite_src_0565_0565_asm_neon+0x264>
    409c:	f4a4044d 	vld1.16	{d0[1]}, [r4]!
    40a0:	e3100008 	tst	r0, #8
    40a4:	0a000000 	beq	40ac <pixman_composite_src_0565_0565_asm_neon+0x270>
    40a8:	f4022a4d 	vst1.16	{d2-d3}, [r2]!
    40ac:	e3100004 	tst	r0, #4
    40b0:	0a000000 	beq	40b8 <pixman_composite_src_0565_0565_asm_neon+0x27c>
    40b4:	f402174d 	vst1.16	{d1}, [r2]!
    40b8:	e3100002 	tst	r0, #2
    40bc:	0a000001 	beq	40c8 <pixman_composite_src_0565_0565_asm_neon+0x28c>
    40c0:	f482048d 	vst1.16	{d0[2]}, [r2]!
    40c4:	f48204cd 	vst1.16	{d0[3]}, [r2]!
    40c8:	e3100001 	tst	r0, #1
    40cc:	0a000000 	beq	40d4 <pixman_composite_src_0565_0565_asm_neon+0x298>
    40d0:	f482044d 	vst1.16	{d0[1]}, [r2]!
    40d4:	e1a00007 	mov	r0, r7
    40d8:	e0822083 	add	r2, r2, r3, lsl #1
    40dc:	e0844085 	add	r4, r4, r5, lsl #1
    40e0:	e0422080 	sub	r2, r2, r0, lsl #1
    40e4:	e0444080 	sub	r4, r4, r0, lsl #1
    40e8:	e2511001 	subs	r1, r1, #1
    40ec:	e1a06002 	mov	r6, r2
    40f0:	aaffffd7 	bge	4054 <pixman_composite_src_0565_0565_asm_neon+0x218>
    40f4:	e8bd9ff0 	pop	{r4, r5, r6, r7, r8, r9, sl, fp, ip, pc}

000040f8 <pixman_composite_src_n_8_asm_neon>:
    40f8:	e92d5ff0 	push	{r4, r5, r6, r7, r8, r9, sl, fp, ip, lr}
    40fc:	e1a06002 	mov	r6, r2
    4100:	e28dc028 	add	ip, sp, #40	; 0x28
    4104:	f4ac080f 	vld1.32	{d0[0]}, [ip]
    4108:	f3880590 	vsli.64	d0, d0, #8
    410c:	f3900590 	vsli.64	d0, d0, #16
    4110:	f3a00590 	vsli.64	d0, d0, #32
    4114:	f2201110 	vorr	d1, d0, d0
    4118:	f2202150 	vorr	q1, q0, q0
    411c:	e2511001 	subs	r1, r1, #1
    4120:	e1a0a000 	mov	sl, r0
    4124:	ba00007a 	blt	4314 <pixman_composite_src_n_8_asm_neon+0x21c>
    4128:	e3500040 	cmp	r0, #64	; 0x40
    412c:	ba000050 	blt	4274 <pixman_composite_src_n_8_asm_neon+0x17c>
    4130:	e316000f 	tst	r6, #15
    4134:	0a000022 	beq	41c4 <pixman_composite_src_n_8_asm_neon+0xcc>
    4138:	e3160001 	tst	r6, #1
    413c:	0a000001 	beq	4148 <pixman_composite_src_n_8_asm_neon+0x50>
    4140:	e2866001 	add	r6, r6, #1
    4144:	e2400001 	sub	r0, r0, #1
    4148:	e3160002 	tst	r6, #2
    414c:	0a000001 	beq	4158 <pixman_composite_src_n_8_asm_neon+0x60>
    4150:	e2866002 	add	r6, r6, #2
    4154:	e2400002 	sub	r0, r0, #2
    4158:	e3160004 	tst	r6, #4
    415c:	0a000001 	beq	4168 <pixman_composite_src_n_8_asm_neon+0x70>
    4160:	e2866004 	add	r6, r6, #4
    4164:	e2400004 	sub	r0, r0, #4
    4168:	e3160008 	tst	r6, #8
    416c:	0a000001 	beq	4178 <pixman_composite_src_n_8_asm_neon+0x80>
    4170:	e2866008 	add	r6, r6, #8
    4174:	e2400008 	sub	r0, r0, #8
    4178:	e2866010 	add	r6, r6, #16
    417c:	e2400010 	sub	r0, r0, #16
    4180:	e3120001 	tst	r2, #1
    4184:	0a000000 	beq	418c <pixman_composite_src_n_8_asm_neon+0x94>
    4188:	f482002d 	vst1.8	{d0[1]}, [r2]!
    418c:	e3120002 	tst	r2, #2
    4190:	0a000001 	beq	419c <pixman_composite_src_n_8_asm_neon+0xa4>
    4194:	f482004d 	vst1.8	{d0[2]}, [r2]!
    4198:	f482006d 	vst1.8	{d0[3]}, [r2]!
    419c:	e3120004 	tst	r2, #4
    41a0:	0a000003 	beq	41b4 <pixman_composite_src_n_8_asm_neon+0xbc>
    41a4:	f482008d 	vst1.8	{d0[4]}, [r2]!
    41a8:	f48200ad 	vst1.8	{d0[5]}, [r2]!
    41ac:	f48200cd 	vst1.8	{d0[6]}, [r2]!
    41b0:	f48200ed 	vst1.8	{d0[7]}, [r2]!
    41b4:	e3120008 	tst	r2, #8
    41b8:	0a000000 	beq	41c0 <pixman_composite_src_n_8_asm_neon+0xc8>
    41bc:	f402171d 	vst1.8	{d1}, [r2 :64]!
    41c0:	f4022a2d 	vst1.8	{d2-d3}, [r2 :128]!
    41c4:	e2500040 	subs	r0, r0, #64	; 0x40
    41c8:	ba000002 	blt	41d8 <pixman_composite_src_n_8_asm_neon+0xe0>
    41cc:	f402022d 	vst1.8	{d0-d3}, [r2 :128]!
    41d0:	e2500020 	subs	r0, r0, #32
    41d4:	aafffffc 	bge	41cc <pixman_composite_src_n_8_asm_neon+0xd4>
    41d8:	f402022d 	vst1.8	{d0-d3}, [r2 :128]!
    41dc:	e310001f 	tst	r0, #31
    41e0:	0a00001c 	beq	4258 <pixman_composite_src_n_8_asm_neon+0x160>
    41e4:	e3100010 	tst	r0, #16
    41e8:	0affffff 	beq	41ec <pixman_composite_src_n_8_asm_neon+0xf4>
    41ec:	e3100008 	tst	r0, #8
    41f0:	0affffff 	beq	41f4 <pixman_composite_src_n_8_asm_neon+0xfc>
    41f4:	e3100004 	tst	r0, #4
    41f8:	0affffff 	beq	41fc <pixman_composite_src_n_8_asm_neon+0x104>
    41fc:	e3100002 	tst	r0, #2
    4200:	0affffff 	beq	4204 <pixman_composite_src_n_8_asm_neon+0x10c>
    4204:	e3100001 	tst	r0, #1
    4208:	0affffff 	beq	420c <pixman_composite_src_n_8_asm_neon+0x114>
    420c:	e3100010 	tst	r0, #16
    4210:	0a000000 	beq	4218 <pixman_composite_src_n_8_asm_neon+0x120>
    4214:	f4022a2d 	vst1.8	{d2-d3}, [r2 :128]!
    4218:	e3100008 	tst	r0, #8
    421c:	0a000000 	beq	4224 <pixman_composite_src_n_8_asm_neon+0x12c>
    4220:	f402171d 	vst1.8	{d1}, [r2 :64]!
    4224:	e3100004 	tst	r0, #4
    4228:	0a000003 	beq	423c <pixman_composite_src_n_8_asm_neon+0x144>
    422c:	f482008d 	vst1.8	{d0[4]}, [r2]!
    4230:	f48200ad 	vst1.8	{d0[5]}, [r2]!
    4234:	f48200cd 	vst1.8	{d0[6]}, [r2]!
    4238:	f48200ed 	vst1.8	{d0[7]}, [r2]!
    423c:	e3100002 	tst	r0, #2
    4240:	0a000001 	beq	424c <pixman_composite_src_n_8_asm_neon+0x154>
    4244:	f482004d 	vst1.8	{d0[2]}, [r2]!
    4248:	f482006d 	vst1.8	{d0[3]}, [r2]!
    424c:	e3100001 	tst	r0, #1
    4250:	0a000000 	beq	4258 <pixman_composite_src_n_8_asm_neon+0x160>
    4254:	f482002d 	vst1.8	{d0[1]}, [r2]!
    4258:	e1a0000a 	mov	r0, sl
    425c:	e0822003 	add	r2, r2, r3
    4260:	e0422000 	sub	r2, r2, r0
    4264:	e2511001 	subs	r1, r1, #1
    4268:	e1a06002 	mov	r6, r2
    426c:	aaffffaf 	bge	4130 <pixman_composite_src_n_8_asm_neon+0x38>
    4270:	e8bd9ff0 	pop	{r4, r5, r6, r7, r8, r9, sl, fp, ip, pc}
    4274:	e3100020 	tst	r0, #32
    4278:	0a000000 	beq	4280 <pixman_composite_src_n_8_asm_neon+0x188>
    427c:	f402020d 	vst1.8	{d0-d3}, [r2]!
    4280:	e310001f 	tst	r0, #31
    4284:	0a00001c 	beq	42fc <pixman_composite_src_n_8_asm_neon+0x204>
    4288:	e3100010 	tst	r0, #16
    428c:	0affffff 	beq	4290 <pixman_composite_src_n_8_asm_neon+0x198>
    4290:	e3100008 	tst	r0, #8
    4294:	0affffff 	beq	4298 <pixman_composite_src_n_8_asm_neon+0x1a0>
    4298:	e3100004 	tst	r0, #4
    429c:	0affffff 	beq	42a0 <pixman_composite_src_n_8_asm_neon+0x1a8>
    42a0:	e3100002 	tst	r0, #2
    42a4:	0affffff 	beq	42a8 <pixman_composite_src_n_8_asm_neon+0x1b0>
    42a8:	e3100001 	tst	r0, #1
    42ac:	0affffff 	beq	42b0 <pixman_composite_src_n_8_asm_neon+0x1b8>
    42b0:	e3100010 	tst	r0, #16
    42b4:	0a000000 	beq	42bc <pixman_composite_src_n_8_asm_neon+0x1c4>
    42b8:	f4022a0d 	vst1.8	{d2-d3}, [r2]!
    42bc:	e3100008 	tst	r0, #8
    42c0:	0a000000 	beq	42c8 <pixman_composite_src_n_8_asm_neon+0x1d0>
    42c4:	f402170d 	vst1.8	{d1}, [r2]!
    42c8:	e3100004 	tst	r0, #4
    42cc:	0a000003 	beq	42e0 <pixman_composite_src_n_8_asm_neon+0x1e8>
    42d0:	f482008d 	vst1.8	{d0[4]}, [r2]!
    42d4:	f48200ad 	vst1.8	{d0[5]}, [r2]!
    42d8:	f48200cd 	vst1.8	{d0[6]}, [r2]!
    42dc:	f48200ed 	vst1.8	{d0[7]}, [r2]!
    42e0:	e3100002 	tst	r0, #2
    42e4:	0a000001 	beq	42f0 <pixman_composite_src_n_8_asm_neon+0x1f8>
    42e8:	f482004d 	vst1.8	{d0[2]}, [r2]!
    42ec:	f482006d 	vst1.8	{d0[3]}, [r2]!
    42f0:	e3100001 	tst	r0, #1
    42f4:	0a000000 	beq	42fc <pixman_composite_src_n_8_asm_neon+0x204>
    42f8:	f482002d 	vst1.8	{d0[1]}, [r2]!
    42fc:	e1a0000a 	mov	r0, sl
    4300:	e0822003 	add	r2, r2, r3
    4304:	e0422000 	sub	r2, r2, r0
    4308:	e2511001 	subs	r1, r1, #1
    430c:	e1a06002 	mov	r6, r2
    4310:	aaffffd7 	bge	4274 <pixman_composite_src_n_8_asm_neon+0x17c>
    4314:	e8bd9ff0 	pop	{r4, r5, r6, r7, r8, r9, sl, fp, ip, pc}

00004318 <pixman_composite_src_n_0565_asm_neon>:
    4318:	e92d5ff0 	push	{r4, r5, r6, r7, r8, r9, sl, fp, ip, lr}
    431c:	e1a06002 	mov	r6, r2
    4320:	e28dc028 	add	ip, sp, #40	; 0x28
    4324:	f4ac080f 	vld1.32	{d0[0]}, [ip]
    4328:	f3900590 	vsli.64	d0, d0, #16
    432c:	f3a00590 	vsli.64	d0, d0, #32
    4330:	f2201110 	vorr	d1, d0, d0
    4334:	f2202150 	vorr	q1, q0, q0
    4338:	e2511001 	subs	r1, r1, #1
    433c:	e1a0a000 	mov	sl, r0
    4340:	ba000060 	blt	44c8 <pixman_composite_src_n_0565_asm_neon+0x1b0>
    4344:	e3500020 	cmp	r0, #32
    4348:	ba00003e 	blt	4448 <pixman_composite_src_n_0565_asm_neon+0x130>
    434c:	e316000f 	tst	r6, #15
    4350:	0a000018 	beq	43b8 <pixman_composite_src_n_0565_asm_neon+0xa0>
    4354:	e3160002 	tst	r6, #2
    4358:	0a000001 	beq	4364 <pixman_composite_src_n_0565_asm_neon+0x4c>
    435c:	e2866002 	add	r6, r6, #2
    4360:	e2400001 	sub	r0, r0, #1
    4364:	e3160004 	tst	r6, #4
    4368:	0a000001 	beq	4374 <pixman_composite_src_n_0565_asm_neon+0x5c>
    436c:	e2866004 	add	r6, r6, #4
    4370:	e2400002 	sub	r0, r0, #2
    4374:	e3160008 	tst	r6, #8
    4378:	0a000001 	beq	4384 <pixman_composite_src_n_0565_asm_neon+0x6c>
    437c:	e2866008 	add	r6, r6, #8
    4380:	e2400004 	sub	r0, r0, #4
    4384:	e2866010 	add	r6, r6, #16
    4388:	e2400008 	sub	r0, r0, #8
    438c:	e3120002 	tst	r2, #2
    4390:	0a000000 	beq	4398 <pixman_composite_src_n_0565_asm_neon+0x80>
    4394:	f482044d 	vst1.16	{d0[1]}, [r2]!
    4398:	e3120004 	tst	r2, #4
    439c:	0a000001 	beq	43a8 <pixman_composite_src_n_0565_asm_neon+0x90>
    43a0:	f482048d 	vst1.16	{d0[2]}, [r2]!
    43a4:	f48204cd 	vst1.16	{d0[3]}, [r2]!
    43a8:	e3120008 	tst	r2, #8
    43ac:	0a000000 	beq	43b4 <pixman_composite_src_n_0565_asm_neon+0x9c>
    43b0:	f402175d 	vst1.16	{d1}, [r2 :64]!
    43b4:	f4022a6d 	vst1.16	{d2-d3}, [r2 :128]!
    43b8:	e2500020 	subs	r0, r0, #32
    43bc:	ba000002 	blt	43cc <pixman_composite_src_n_0565_asm_neon+0xb4>
    43c0:	f402026d 	vst1.16	{d0-d3}, [r2 :128]!
    43c4:	e2500010 	subs	r0, r0, #16
    43c8:	aafffffc 	bge	43c0 <pixman_composite_src_n_0565_asm_neon+0xa8>
    43cc:	f402026d 	vst1.16	{d0-d3}, [r2 :128]!
    43d0:	e310000f 	tst	r0, #15
    43d4:	0a000014 	beq	442c <pixman_composite_src_n_0565_asm_neon+0x114>
    43d8:	e3100008 	tst	r0, #8
    43dc:	0affffff 	beq	43e0 <pixman_composite_src_n_0565_asm_neon+0xc8>
    43e0:	e3100004 	tst	r0, #4
    43e4:	0affffff 	beq	43e8 <pixman_composite_src_n_0565_asm_neon+0xd0>
    43e8:	e3100002 	tst	r0, #2
    43ec:	0affffff 	beq	43f0 <pixman_composite_src_n_0565_asm_neon+0xd8>
    43f0:	e3100001 	tst	r0, #1
    43f4:	0affffff 	beq	43f8 <pixman_composite_src_n_0565_asm_neon+0xe0>
    43f8:	e3100008 	tst	r0, #8
    43fc:	0a000000 	beq	4404 <pixman_composite_src_n_0565_asm_neon+0xec>
    4400:	f4022a6d 	vst1.16	{d2-d3}, [r2 :128]!
    4404:	e3100004 	tst	r0, #4
    4408:	0a000000 	beq	4410 <pixman_composite_src_n_0565_asm_neon+0xf8>
    440c:	f402175d 	vst1.16	{d1}, [r2 :64]!
    4410:	e3100002 	tst	r0, #2
    4414:	0a000001 	beq	4420 <pixman_composite_src_n_0565_asm_neon+0x108>
    4418:	f482048d 	vst1.16	{d0[2]}, [r2]!
    441c:	f48204cd 	vst1.16	{d0[3]}, [r2]!
    4420:	e3100001 	tst	r0, #1
    4424:	0a000000 	beq	442c <pixman_composite_src_n_0565_asm_neon+0x114>
    4428:	f482044d 	vst1.16	{d0[1]}, [r2]!
    442c:	e1a0000a 	mov	r0, sl
    4430:	e0822083 	add	r2, r2, r3, lsl #1
    4434:	e0422080 	sub	r2, r2, r0, lsl #1
    4438:	e2511001 	subs	r1, r1, #1
    443c:	e1a06002 	mov	r6, r2
    4440:	aaffffc1 	bge	434c <pixman_composite_src_n_0565_asm_neon+0x34>
    4444:	e8bd9ff0 	pop	{r4, r5, r6, r7, r8, r9, sl, fp, ip, pc}
    4448:	e3100010 	tst	r0, #16
    444c:	0a000000 	beq	4454 <pixman_composite_src_n_0565_asm_neon+0x13c>
    4450:	f402024d 	vst1.16	{d0-d3}, [r2]!
    4454:	e310000f 	tst	r0, #15
    4458:	0a000014 	beq	44b0 <pixman_composite_src_n_0565_asm_neon+0x198>
    445c:	e3100008 	tst	r0, #8
    4460:	0affffff 	beq	4464 <pixman_composite_src_n_0565_asm_neon+0x14c>
    4464:	e3100004 	tst	r0, #4
    4468:	0affffff 	beq	446c <pixman_composite_src_n_0565_asm_neon+0x154>
    446c:	e3100002 	tst	r0, #2
    4470:	0affffff 	beq	4474 <pixman_composite_src_n_0565_asm_neon+0x15c>
    4474:	e3100001 	tst	r0, #1
    4478:	0affffff 	beq	447c <pixman_composite_src_n_0565_asm_neon+0x164>
    447c:	e3100008 	tst	r0, #8
    4480:	0a000000 	beq	4488 <pixman_composite_src_n_0565_asm_neon+0x170>
    4484:	f4022a4d 	vst1.16	{d2-d3}, [r2]!
    4488:	e3100004 	tst	r0, #4
    448c:	0a000000 	beq	4494 <pixman_composite_src_n_0565_asm_neon+0x17c>
    4490:	f402174d 	vst1.16	{d1}, [r2]!
    4494:	e3100002 	tst	r0, #2
    4498:	0a000001 	beq	44a4 <pixman_composite_src_n_0565_asm_neon+0x18c>
    449c:	f482048d 	vst1.16	{d0[2]}, [r2]!
    44a0:	f48204cd 	vst1.16	{d0[3]}, [r2]!
    44a4:	e3100001 	tst	r0, #1
    44a8:	0a000000 	beq	44b0 <pixman_composite_src_n_0565_asm_neon+0x198>
    44ac:	f482044d 	vst1.16	{d0[1]}, [r2]!
    44b0:	e1a0000a 	mov	r0, sl
    44b4:	e0822083 	add	r2, r2, r3, lsl #1
    44b8:	e0422080 	sub	r2, r2, r0, lsl #1
    44bc:	e2511001 	subs	r1, r1, #1
    44c0:	e1a06002 	mov	r6, r2
    44c4:	aaffffdf 	bge	4448 <pixman_composite_src_n_0565_asm_neon+0x130>
    44c8:	e8bd9ff0 	pop	{r4, r5, r6, r7, r8, r9, sl, fp, ip, pc}

000044cc <pixman_composite_src_n_8888_asm_neon>:
    44cc:	e92d5ff0 	push	{r4, r5, r6, r7, r8, r9, sl, fp, ip, lr}
    44d0:	e1a06002 	mov	r6, r2
    44d4:	e28dc028 	add	ip, sp, #40	; 0x28
    44d8:	f4ac080f 	vld1.32	{d0[0]}, [ip]
    44dc:	f3a00590 	vsli.64	d0, d0, #32
    44e0:	f2201110 	vorr	d1, d0, d0
    44e4:	f2202150 	vorr	q1, q0, q0
    44e8:	e2511001 	subs	r1, r1, #1
    44ec:	e1a0a000 	mov	sl, r0
    44f0:	ba00004c 	blt	4628 <pixman_composite_src_n_8888_asm_neon+0x15c>
    44f4:	e3500010 	cmp	r0, #16
    44f8:	ba000030 	blt	45c0 <pixman_composite_src_n_8888_asm_neon+0xf4>
    44fc:	e316000f 	tst	r6, #15
    4500:	0a000010 	beq	4548 <pixman_composite_src_n_8888_asm_neon+0x7c>
    4504:	e3160004 	tst	r6, #4
    4508:	0a000001 	beq	4514 <pixman_composite_src_n_8888_asm_neon+0x48>
    450c:	e2866004 	add	r6, r6, #4
    4510:	e2400001 	sub	r0, r0, #1
    4514:	e3160008 	tst	r6, #8
    4518:	0a000001 	beq	4524 <pixman_composite_src_n_8888_asm_neon+0x58>
    451c:	e2866008 	add	r6, r6, #8
    4520:	e2400002 	sub	r0, r0, #2
    4524:	e2866010 	add	r6, r6, #16
    4528:	e2400004 	sub	r0, r0, #4
    452c:	e3120004 	tst	r2, #4
    4530:	0a000000 	beq	4538 <pixman_composite_src_n_8888_asm_neon+0x6c>
    4534:	f482088d 	vst1.32	{d0[1]}, [r2]!
    4538:	e3120008 	tst	r2, #8
    453c:	0a000000 	beq	4544 <pixman_composite_src_n_8888_asm_neon+0x78>
    4540:	f402179d 	vst1.32	{d1}, [r2 :64]!
    4544:	f4022aad 	vst1.32	{d2-d3}, [r2 :128]!
    4548:	e2500010 	subs	r0, r0, #16
    454c:	ba000002 	blt	455c <pixman_composite_src_n_8888_asm_neon+0x90>
    4550:	f40202ad 	vst1.32	{d0-d3}, [r2 :128]!
    4554:	e2500008 	subs	r0, r0, #8
    4558:	aafffffc 	bge	4550 <pixman_composite_src_n_8888_asm_neon+0x84>
    455c:	f40202ad 	vst1.32	{d0-d3}, [r2 :128]!
    4560:	e3100007 	tst	r0, #7
    4564:	0a00000e 	beq	45a4 <pixman_composite_src_n_8888_asm_neon+0xd8>
    4568:	e3100004 	tst	r0, #4
    456c:	0affffff 	beq	4570 <pixman_composite_src_n_8888_asm_neon+0xa4>
    4570:	e3100002 	tst	r0, #2
    4574:	0affffff 	beq	4578 <pixman_composite_src_n_8888_asm_neon+0xac>
    4578:	e3100001 	tst	r0, #1
    457c:	0affffff 	beq	4580 <pixman_composite_src_n_8888_asm_neon+0xb4>
    4580:	e3100004 	tst	r0, #4
    4584:	0a000000 	beq	458c <pixman_composite_src_n_8888_asm_neon+0xc0>
    4588:	f4022aad 	vst1.32	{d2-d3}, [r2 :128]!
    458c:	e3100002 	tst	r0, #2
    4590:	0a000000 	beq	4598 <pixman_composite_src_n_8888_asm_neon+0xcc>
    4594:	f402179d 	vst1.32	{d1}, [r2 :64]!
    4598:	e3100001 	tst	r0, #1
    459c:	0a000000 	beq	45a4 <pixman_composite_src_n_8888_asm_neon+0xd8>
    45a0:	f482088d 	vst1.32	{d0[1]}, [r2]!
    45a4:	e1a0000a 	mov	r0, sl
    45a8:	e0822103 	add	r2, r2, r3, lsl #2
    45ac:	e0422100 	sub	r2, r2, r0, lsl #2
    45b0:	e2511001 	subs	r1, r1, #1
    45b4:	e1a06002 	mov	r6, r2
    45b8:	aaffffcf 	bge	44fc <pixman_composite_src_n_8888_asm_neon+0x30>
    45bc:	e8bd9ff0 	pop	{r4, r5, r6, r7, r8, r9, sl, fp, ip, pc}
    45c0:	e3100008 	tst	r0, #8
    45c4:	0a000000 	beq	45cc <pixman_composite_src_n_8888_asm_neon+0x100>
    45c8:	f402028d 	vst1.32	{d0-d3}, [r2]!
    45cc:	e3100007 	tst	r0, #7
    45d0:	0a00000e 	beq	4610 <pixman_composite_src_n_8888_asm_neon+0x144>
    45d4:	e3100004 	tst	r0, #4
    45d8:	0affffff 	beq	45dc <pixman_composite_src_n_8888_asm_neon+0x110>
    45dc:	e3100002 	tst	r0, #2
    45e0:	0affffff 	beq	45e4 <pixman_composite_src_n_8888_asm_neon+0x118>
    45e4:	e3100001 	tst	r0, #1
    45e8:	0affffff 	beq	45ec <pixman_composite_src_n_8888_asm_neon+0x120>
    45ec:	e3100004 	tst	r0, #4
    45f0:	0a000000 	beq	45f8 <pixman_composite_src_n_8888_asm_neon+0x12c>
    45f4:	f4022a8d 	vst1.32	{d2-d3}, [r2]!
    45f8:	e3100002 	tst	r0, #2
    45fc:	0a000000 	beq	4604 <pixman_composite_src_n_8888_asm_neon+0x138>
    4600:	f402178d 	vst1.32	{d1}, [r2]!
    4604:	e3100001 	tst	r0, #1
    4608:	0a000000 	beq	4610 <pixman_composite_src_n_8888_asm_neon+0x144>
    460c:	f482088d 	vst1.32	{d0[1]}, [r2]!
    4610:	e1a0000a 	mov	r0, sl
    4614:	e0822103 	add	r2, r2, r3, lsl #2
    4618:	e0422100 	sub	r2, r2, r0, lsl #2
    461c:	e2511001 	subs	r1, r1, #1
    4620:	e1a06002 	mov	r6, r2
    4624:	aaffffe5 	bge	45c0 <pixman_composite_src_n_8888_asm_neon+0xf4>
    4628:	e8bd9ff0 	pop	{r4, r5, r6, r7, r8, r9, sl, fp, ip, pc}

0000462c <pixman_composite_src_8888_8888_asm_neon>:
    462c:	e92d5ff0 	push	{r4, r5, r6, r7, r8, r9, sl, fp, ip, lr}
    4630:	e59d4028 	ldr	r4, [sp, #40]	; 0x28
    4634:	e3a0a000 	mov	sl, #0
    4638:	e59d502c 	ldr	r5, [sp, #44]	; 0x2c
    463c:	e1a06002 	mov	r6, r2
    4640:	e1a0b004 	mov	fp, r4
    4644:	e1a0c006 	mov	ip, r6
    4648:	e1a0e007 	mov	lr, r7
    464c:	e1a09201 	lsl	r9, r1, #4
    4650:	e2499006 	sub	r9, r9, #6
    4654:	e2511001 	subs	r1, r1, #1
    4658:	e1a07000 	mov	r7, r0
    465c:	ba000084 	blt	4874 <pixman_composite_src_8888_8888_asm_neon+0x248>
    4660:	e3500010 	cmp	r0, #16
    4664:	ba000062 	blt	47f4 <pixman_composite_src_8888_8888_asm_neon+0x1c8>
    4668:	e316000f 	tst	r6, #15
    466c:	0a00001e 	beq	46ec <pixman_composite_src_8888_8888_asm_neon+0xc0>
    4670:	e3160004 	tst	r6, #4
    4674:	0a000003 	beq	4688 <pixman_composite_src_8888_8888_asm_neon+0x5c>
    4678:	f4a4088d 	vld1.32	{d0[1]}, [r4]!
    467c:	e2866004 	add	r6, r6, #4
    4680:	e28aa001 	add	sl, sl, #1
    4684:	e2400001 	sub	r0, r0, #1
    4688:	e3160008 	tst	r6, #8
    468c:	0a000003 	beq	46a0 <pixman_composite_src_8888_8888_asm_neon+0x74>
    4690:	f424178d 	vld1.32	{d1}, [r4]!
    4694:	e2866008 	add	r6, r6, #8
    4698:	e28aa002 	add	sl, sl, #2
    469c:	e2400002 	sub	r0, r0, #2
    46a0:	f4242a8d 	vld1.32	{d2-d3}, [r4]!
    46a4:	e2866010 	add	r6, r6, #16
    46a8:	e28aa004 	add	sl, sl, #4
    46ac:	e2400004 	sub	r0, r0, #4
    46b0:	e319000f 	tst	r9, #15
    46b4:	128aa008 	addne	sl, sl, #8
    46b8:	12499001 	subne	r9, r9, #1
    46bc:	e15a0007 	cmp	sl, r7
    46c0:	f7dbf10a 	pld	[fp, sl, lsl #2]
    46c4:	a04aa007 	subge	sl, sl, r7
    46c8:	a2599010 	subsge	r9, r9, #16
    46cc:	a7fb8105 	ldrbge	r8, [fp, r5, lsl #2]!
    46d0:	e3120004 	tst	r2, #4
    46d4:	0a000000 	beq	46dc <pixman_composite_src_8888_8888_asm_neon+0xb0>
    46d8:	f482088d 	vst1.32	{d0[1]}, [r2]!
    46dc:	e3120008 	tst	r2, #8
    46e0:	0a000000 	beq	46e8 <pixman_composite_src_8888_8888_asm_neon+0xbc>
    46e4:	f402179d 	vst1.32	{d1}, [r2 :64]!
    46e8:	f4022aad 	vst1.32	{d2-d3}, [r2 :128]!
    46ec:	f424028d 	vld1.32	{d0-d3}, [r4]!
    46f0:	e28aa008 	add	sl, sl, #8
    46f4:	e319000f 	tst	r9, #15
    46f8:	128aa008 	addne	sl, sl, #8
    46fc:	12499001 	subne	r9, r9, #1
    4700:	e15a0007 	cmp	sl, r7
    4704:	f7dbf10a 	pld	[fp, sl, lsl #2]
    4708:	a04aa007 	subge	sl, sl, r7
    470c:	a2599010 	subsge	r9, r9, #16
    4710:	a7fb8105 	ldrbge	r8, [fp, r5, lsl #2]!
    4714:	e2500010 	subs	r0, r0, #16
    4718:	ba00000c 	blt	4750 <pixman_composite_src_8888_8888_asm_neon+0x124>
    471c:	f40202ad 	vst1.32	{d0-d3}, [r2 :128]!
    4720:	f424028d 	vld1.32	{d0-d3}, [r4]!
    4724:	e28aa008 	add	sl, sl, #8
    4728:	e319000f 	tst	r9, #15
    472c:	128aa008 	addne	sl, sl, #8
    4730:	12499001 	subne	r9, r9, #1
    4734:	e15a0007 	cmp	sl, r7
    4738:	f7dbf10a 	pld	[fp, sl, lsl #2]
    473c:	a04aa007 	subge	sl, sl, r7
    4740:	a2599010 	subsge	r9, r9, #16
    4744:	a7fb8105 	ldrbge	r8, [fp, r5, lsl #2]!
    4748:	e2500008 	subs	r0, r0, #8
    474c:	aafffff2 	bge	471c <pixman_composite_src_8888_8888_asm_neon+0xf0>
    4750:	f40202ad 	vst1.32	{d0-d3}, [r2 :128]!
    4754:	e3100007 	tst	r0, #7
    4758:	0a00001c 	beq	47d0 <pixman_composite_src_8888_8888_asm_neon+0x1a4>
    475c:	e3100004 	tst	r0, #4
    4760:	0a000001 	beq	476c <pixman_composite_src_8888_8888_asm_neon+0x140>
    4764:	f4242a8d 	vld1.32	{d2-d3}, [r4]!
    4768:	e28aa004 	add	sl, sl, #4
    476c:	e3100002 	tst	r0, #2
    4770:	0a000001 	beq	477c <pixman_composite_src_8888_8888_asm_neon+0x150>
    4774:	f424178d 	vld1.32	{d1}, [r4]!
    4778:	e28aa002 	add	sl, sl, #2
    477c:	e3100001 	tst	r0, #1
    4780:	0a000001 	beq	478c <pixman_composite_src_8888_8888_asm_neon+0x160>
    4784:	f4a4088d 	vld1.32	{d0[1]}, [r4]!
    4788:	e28aa001 	add	sl, sl, #1
    478c:	e319000f 	tst	r9, #15
    4790:	128aa008 	addne	sl, sl, #8
    4794:	12499001 	subne	r9, r9, #1
    4798:	e15a0007 	cmp	sl, r7
    479c:	f7dbf10a 	pld	[fp, sl, lsl #2]
    47a0:	a04aa007 	subge	sl, sl, r7
    47a4:	a2599010 	subsge	r9, r9, #16
    47a8:	a7fb8105 	ldrbge	r8, [fp, r5, lsl #2]!
    47ac:	e3100004 	tst	r0, #4
    47b0:	0a000000 	beq	47b8 <pixman_composite_src_8888_8888_asm_neon+0x18c>
    47b4:	f4022aad 	vst1.32	{d2-d3}, [r2 :128]!
    47b8:	e3100002 	tst	r0, #2
    47bc:	0a000000 	beq	47c4 <pixman_composite_src_8888_8888_asm_neon+0x198>
    47c0:	f402179d 	vst1.32	{d1}, [r2 :64]!
    47c4:	e3100001 	tst	r0, #1
    47c8:	0a000000 	beq	47d0 <pixman_composite_src_8888_8888_asm_neon+0x1a4>
    47cc:	f482088d 	vst1.32	{d0[1]}, [r2]!
    47d0:	e1a00007 	mov	r0, r7
    47d4:	e0822103 	add	r2, r2, r3, lsl #2
    47d8:	e0844105 	add	r4, r4, r5, lsl #2
    47dc:	e0422100 	sub	r2, r2, r0, lsl #2
    47e0:	e0444100 	sub	r4, r4, r0, lsl #2
    47e4:	e2511001 	subs	r1, r1, #1
    47e8:	e1a06002 	mov	r6, r2
    47ec:	aaffff9d 	bge	4668 <pixman_composite_src_8888_8888_asm_neon+0x3c>
    47f0:	e8bd9ff0 	pop	{r4, r5, r6, r7, r8, r9, sl, fp, ip, pc}
    47f4:	e3100008 	tst	r0, #8
    47f8:	0a000001 	beq	4804 <pixman_composite_src_8888_8888_asm_neon+0x1d8>
    47fc:	f424028d 	vld1.32	{d0-d3}, [r4]!
    4800:	f402028d 	vst1.32	{d0-d3}, [r2]!
    4804:	e3100007 	tst	r0, #7
    4808:	0a000011 	beq	4854 <pixman_composite_src_8888_8888_asm_neon+0x228>
    480c:	e3100004 	tst	r0, #4
    4810:	0a000000 	beq	4818 <pixman_composite_src_8888_8888_asm_neon+0x1ec>
    4814:	f4242a8d 	vld1.32	{d2-d3}, [r4]!
    4818:	e3100002 	tst	r0, #2
    481c:	0a000000 	beq	4824 <pixman_composite_src_8888_8888_asm_neon+0x1f8>
    4820:	f424178d 	vld1.32	{d1}, [r4]!
    4824:	e3100001 	tst	r0, #1
    4828:	0a000000 	beq	4830 <pixman_composite_src_8888_8888_asm_neon+0x204>
    482c:	f4a4088d 	vld1.32	{d0[1]}, [r4]!
    4830:	e3100004 	tst	r0, #4
    4834:	0a000000 	beq	483c <pixman_composite_src_8888_8888_asm_neon+0x210>
    4838:	f4022a8d 	vst1.32	{d2-d3}, [r2]!
    483c:	e3100002 	tst	r0, #2
    4840:	0a000000 	beq	4848 <pixman_composite_src_8888_8888_asm_neon+0x21c>
    4844:	f402178d 	vst1.32	{d1}, [r2]!
    4848:	e3100001 	tst	r0, #1
    484c:	0a000000 	beq	4854 <pixman_composite_src_8888_8888_asm_neon+0x228>
    4850:	f482088d 	vst1.32	{d0[1]}, [r2]!
    4854:	e1a00007 	mov	r0, r7
    4858:	e0822103 	add	r2, r2, r3, lsl #2
    485c:	e0844105 	add	r4, r4, r5, lsl #2
    4860:	e0422100 	sub	r2, r2, r0, lsl #2
    4864:	e0444100 	sub	r4, r4, r0, lsl #2
    4868:	e2511001 	subs	r1, r1, #1
    486c:	e1a06002 	mov	r6, r2
    4870:	aaffffdf 	bge	47f4 <pixman_composite_src_8888_8888_asm_neon+0x1c8>
    4874:	e8bd9ff0 	pop	{r4, r5, r6, r7, r8, r9, sl, fp, ip, pc}

00004878 <pixman_composite_src_x888_8888_asm_neon>:
    4878:	e92d5ff0 	push	{r4, r5, r6, r7, r8, r9, sl, fp, ip, lr}
    487c:	e59d4028 	ldr	r4, [sp, #40]	; 0x28
    4880:	e3a0a000 	mov	sl, #0
    4884:	e59d502c 	ldr	r5, [sp, #44]	; 0x2c
    4888:	e1a06002 	mov	r6, r2
    488c:	e1a0b004 	mov	fp, r4
    4890:	e1a0c006 	mov	ip, r6
    4894:	e1a0e007 	mov	lr, r7
    4898:	e1a09201 	lsl	r9, r1, #4
    489c:	e2499006 	sub	r9, r9, #6
    48a0:	f3874e5f 	vmov.i8	q2, #255	; 0xff
    48a4:	f2b84554 	vshl.s32	q2, q2, #24
    48a8:	e2511001 	subs	r1, r1, #1
    48ac:	e1a07000 	mov	r7, r0
    48b0:	ba000090 	blt	4af8 <pixman_composite_src_x888_8888_asm_neon+0x280>
    48b4:	e3500010 	cmp	r0, #16
    48b8:	ba00006a 	blt	4a68 <pixman_composite_src_x888_8888_asm_neon+0x1f0>
    48bc:	e316000f 	tst	r6, #15
    48c0:	0a000020 	beq	4948 <pixman_composite_src_x888_8888_asm_neon+0xd0>
    48c4:	e3160004 	tst	r6, #4
    48c8:	0a000003 	beq	48dc <pixman_composite_src_x888_8888_asm_neon+0x64>
    48cc:	f4a4088d 	vld1.32	{d0[1]}, [r4]!
    48d0:	e2866004 	add	r6, r6, #4
    48d4:	e28aa001 	add	sl, sl, #1
    48d8:	e2400001 	sub	r0, r0, #1
    48dc:	e3160008 	tst	r6, #8
    48e0:	0a000003 	beq	48f4 <pixman_composite_src_x888_8888_asm_neon+0x7c>
    48e4:	f424178d 	vld1.32	{d1}, [r4]!
    48e8:	e2866008 	add	r6, r6, #8
    48ec:	e28aa002 	add	sl, sl, #2
    48f0:	e2400002 	sub	r0, r0, #2
    48f4:	f4242a8d 	vld1.32	{d2-d3}, [r4]!
    48f8:	e2866010 	add	r6, r6, #16
    48fc:	e28aa004 	add	sl, sl, #4
    4900:	e2400004 	sub	r0, r0, #4
    4904:	f2200154 	vorr	q0, q0, q2
    4908:	f2222154 	vorr	q1, q1, q2
    490c:	e319000f 	tst	r9, #15
    4910:	128aa008 	addne	sl, sl, #8
    4914:	12499001 	subne	r9, r9, #1
    4918:	e15a0007 	cmp	sl, r7
    491c:	f7dbf10a 	pld	[fp, sl, lsl #2]
    4920:	a04aa007 	subge	sl, sl, r7
    4924:	a2599010 	subsge	r9, r9, #16
    4928:	a7fb8105 	ldrbge	r8, [fp, r5, lsl #2]!
    492c:	e3120004 	tst	r2, #4
    4930:	0a000000 	beq	4938 <pixman_composite_src_x888_8888_asm_neon+0xc0>
    4934:	f482088d 	vst1.32	{d0[1]}, [r2]!
    4938:	e3120008 	tst	r2, #8
    493c:	0a000000 	beq	4944 <pixman_composite_src_x888_8888_asm_neon+0xcc>
    4940:	f402179d 	vst1.32	{d1}, [r2 :64]!
    4944:	f4022aad 	vst1.32	{d2-d3}, [r2 :128]!
    4948:	f424028d 	vld1.32	{d0-d3}, [r4]!
    494c:	e28aa008 	add	sl, sl, #8
    4950:	f2200154 	vorr	q0, q0, q2
    4954:	f2222154 	vorr	q1, q1, q2
    4958:	e319000f 	tst	r9, #15
    495c:	128aa008 	addne	sl, sl, #8
    4960:	12499001 	subne	r9, r9, #1
    4964:	e15a0007 	cmp	sl, r7
    4968:	f7dbf10a 	pld	[fp, sl, lsl #2]
    496c:	a04aa007 	subge	sl, sl, r7
    4970:	a2599010 	subsge	r9, r9, #16
    4974:	a7fb8105 	ldrbge	r8, [fp, r5, lsl #2]!
    4978:	e2500010 	subs	r0, r0, #16
    497c:	ba00000e 	blt	49bc <pixman_composite_src_x888_8888_asm_neon+0x144>
    4980:	f40202ad 	vst1.32	{d0-d3}, [r2 :128]!
    4984:	f424028d 	vld1.32	{d0-d3}, [r4]!
    4988:	f2200154 	vorr	q0, q0, q2
    498c:	f2222154 	vorr	q1, q1, q2
    4990:	e28aa008 	add	sl, sl, #8
    4994:	e319000f 	tst	r9, #15
    4998:	128aa008 	addne	sl, sl, #8
    499c:	12499001 	subne	r9, r9, #1
    49a0:	e15a0007 	cmp	sl, r7
    49a4:	f7dbf10a 	pld	[fp, sl, lsl #2]
    49a8:	a04aa007 	subge	sl, sl, r7
    49ac:	a2599010 	subsge	r9, r9, #16
    49b0:	a7fb8105 	ldrbge	r8, [fp, r5, lsl #2]!
    49b4:	e2500008 	subs	r0, r0, #8
    49b8:	aafffff0 	bge	4980 <pixman_composite_src_x888_8888_asm_neon+0x108>
    49bc:	f40202ad 	vst1.32	{d0-d3}, [r2 :128]!
    49c0:	e3100007 	tst	r0, #7
    49c4:	0a00001e 	beq	4a44 <pixman_composite_src_x888_8888_asm_neon+0x1cc>
    49c8:	e3100004 	tst	r0, #4
    49cc:	0a000001 	beq	49d8 <pixman_composite_src_x888_8888_asm_neon+0x160>
    49d0:	f4242a8d 	vld1.32	{d2-d3}, [r4]!
    49d4:	e28aa004 	add	sl, sl, #4
    49d8:	e3100002 	tst	r0, #2
    49dc:	0a000001 	beq	49e8 <pixman_composite_src_x888_8888_asm_neon+0x170>
    49e0:	f424178d 	vld1.32	{d1}, [r4]!
    49e4:	e28aa002 	add	sl, sl, #2
    49e8:	e3100001 	tst	r0, #1
    49ec:	0a000001 	beq	49f8 <pixman_composite_src_x888_8888_asm_neon+0x180>
    49f0:	f4a4088d 	vld1.32	{d0[1]}, [r4]!
    49f4:	e28aa001 	add	sl, sl, #1
    49f8:	f2200154 	vorr	q0, q0, q2
    49fc:	f2222154 	vorr	q1, q1, q2
    4a00:	e319000f 	tst	r9, #15
    4a04:	128aa008 	addne	sl, sl, #8
    4a08:	12499001 	subne	r9, r9, #1
    4a0c:	e15a0007 	cmp	sl, r7
    4a10:	f7dbf10a 	pld	[fp, sl, lsl #2]
    4a14:	a04aa007 	subge	sl, sl, r7
    4a18:	a2599010 	subsge	r9, r9, #16
    4a1c:	a7fb8105 	ldrbge	r8, [fp, r5, lsl #2]!
    4a20:	e3100004 	tst	r0, #4
    4a24:	0a000000 	beq	4a2c <pixman_composite_src_x888_8888_asm_neon+0x1b4>
    4a28:	f4022aad 	vst1.32	{d2-d3}, [r2 :128]!
    4a2c:	e3100002 	tst	r0, #2
    4a30:	0a000000 	beq	4a38 <pixman_composite_src_x888_8888_asm_neon+0x1c0>
    4a34:	f402179d 	vst1.32	{d1}, [r2 :64]!
    4a38:	e3100001 	tst	r0, #1
    4a3c:	0a000000 	beq	4a44 <pixman_composite_src_x888_8888_asm_neon+0x1cc>
    4a40:	f482088d 	vst1.32	{d0[1]}, [r2]!
    4a44:	e1a00007 	mov	r0, r7
    4a48:	e0822103 	add	r2, r2, r3, lsl #2
    4a4c:	e0844105 	add	r4, r4, r5, lsl #2
    4a50:	e0422100 	sub	r2, r2, r0, lsl #2
    4a54:	e0444100 	sub	r4, r4, r0, lsl #2
    4a58:	e2511001 	subs	r1, r1, #1
    4a5c:	e1a06002 	mov	r6, r2
    4a60:	aaffff95 	bge	48bc <pixman_composite_src_x888_8888_asm_neon+0x44>
    4a64:	e8bd9ff0 	pop	{r4, r5, r6, r7, r8, r9, sl, fp, ip, pc}
    4a68:	e3100008 	tst	r0, #8
    4a6c:	0a000003 	beq	4a80 <pixman_composite_src_x888_8888_asm_neon+0x208>
    4a70:	f424028d 	vld1.32	{d0-d3}, [r4]!
    4a74:	f2200154 	vorr	q0, q0, q2
    4a78:	f2222154 	vorr	q1, q1, q2
    4a7c:	f402028d 	vst1.32	{d0-d3}, [r2]!
    4a80:	e3100007 	tst	r0, #7
    4a84:	0a000013 	beq	4ad8 <pixman_composite_src_x888_8888_asm_neon+0x260>
    4a88:	e3100004 	tst	r0, #4
    4a8c:	0a000000 	beq	4a94 <pixman_composite_src_x888_8888_asm_neon+0x21c>
    4a90:	f4242a8d 	vld1.32	{d2-d3}, [r4]!
    4a94:	e3100002 	tst	r0, #2
    4a98:	0a000000 	beq	4aa0 <pixman_composite_src_x888_8888_asm_neon+0x228>
    4a9c:	f424178d 	vld1.32	{d1}, [r4]!
    4aa0:	e3100001 	tst	r0, #1
    4aa4:	0a000000 	beq	4aac <pixman_composite_src_x888_8888_asm_neon+0x234>
    4aa8:	f4a4088d 	vld1.32	{d0[1]}, [r4]!
    4aac:	f2200154 	vorr	q0, q0, q2
    4ab0:	f2222154 	vorr	q1, q1, q2
    4ab4:	e3100004 	tst	r0, #4
    4ab8:	0a000000 	beq	4ac0 <pixman_composite_src_x888_8888_asm_neon+0x248>
    4abc:	f4022a8d 	vst1.32	{d2-d3}, [r2]!
    4ac0:	e3100002 	tst	r0, #2
    4ac4:	0a000000 	beq	4acc <pixman_composite_src_x888_8888_asm_neon+0x254>
    4ac8:	f402178d 	vst1.32	{d1}, [r2]!
    4acc:	e3100001 	tst	r0, #1
    4ad0:	0a000000 	beq	4ad8 <pixman_composite_src_x888_8888_asm_neon+0x260>
    4ad4:	f482088d 	vst1.32	{d0[1]}, [r2]!
    4ad8:	e1a00007 	mov	r0, r7
    4adc:	e0822103 	add	r2, r2, r3, lsl #2
    4ae0:	e0844105 	add	r4, r4, r5, lsl #2
    4ae4:	e0422100 	sub	r2, r2, r0, lsl #2
    4ae8:	e0444100 	sub	r4, r4, r0, lsl #2
    4aec:	e2511001 	subs	r1, r1, #1
    4af0:	e1a06002 	mov	r6, r2
    4af4:	aaffffdb 	bge	4a68 <pixman_composite_src_x888_8888_asm_neon+0x1f0>
    4af8:	e8bd9ff0 	pop	{r4, r5, r6, r7, r8, r9, sl, fp, ip, pc}

00004afc <pixman_composite_src_n_8_8888_asm_neon>:
    4afc:	e92d5ff0 	push	{r4, r5, r6, r7, r8, r9, sl, fp, ip, lr}
    4b00:	e59d7030 	ldr	r7, [sp, #48]	; 0x30
    4b04:	e3a0a000 	mov	sl, #0
    4b08:	e59d8034 	ldr	r8, [sp, #52]	; 0x34
    4b0c:	e1a06002 	mov	r6, r2
    4b10:	e1a0b004 	mov	fp, r4
    4b14:	e1a0c006 	mov	ip, r6
    4b18:	e1a0e007 	mov	lr, r7
    4b1c:	e1a09201 	lsl	r9, r1, #4
    4b20:	e249900b 	sub	r9, r9, #11
    4b24:	e28d5028 	add	r5, sp, #40	; 0x28
    4b28:	f4a5380f 	vld1.32	{d3[0]}, [r5]
    4b2c:	f3b10c03 	vdup.8	d0, d3[0]
    4b30:	f3b31c03 	vdup.8	d1, d3[1]
    4b34:	f3b52c03 	vdup.8	d2, d3[2]
    4b38:	f3b73c03 	vdup.8	d3, d3[3]
    4b3c:	e2511001 	subs	r1, r1, #1
    4b40:	e1a04000 	mov	r4, r0
    4b44:	ba0000e4 	blt	4edc <pixman_composite_src_n_8_8888_asm_neon+0x3e0>
    4b48:	e3500010 	cmp	r0, #16
    4b4c:	ba0000a2 	blt	4ddc <pixman_composite_src_n_8_8888_asm_neon+0x2e0>
    4b50:	e316000f 	tst	r6, #15
    4b54:	0a000032 	beq	4c24 <pixman_composite_src_n_8_8888_asm_neon+0x128>
    4b58:	e3160004 	tst	r6, #4
    4b5c:	0a000003 	beq	4b70 <pixman_composite_src_n_8_8888_asm_neon+0x74>
    4b60:	f4e7802d 	vld1.8	{d24[1]}, [r7]!
    4b64:	e2866004 	add	r6, r6, #4
    4b68:	e28aa001 	add	sl, sl, #1
    4b6c:	e2400001 	sub	r0, r0, #1
    4b70:	e3160008 	tst	r6, #8
    4b74:	0a000004 	beq	4b8c <pixman_composite_src_n_8_8888_asm_neon+0x90>
    4b78:	f4e7804d 	vld1.8	{d24[2]}, [r7]!
    4b7c:	f4e7806d 	vld1.8	{d24[3]}, [r7]!
    4b80:	e2866008 	add	r6, r6, #8
    4b84:	e28aa002 	add	sl, sl, #2
    4b88:	e2400002 	sub	r0, r0, #2
    4b8c:	f4e7808d 	vld1.8	{d24[4]}, [r7]!
    4b90:	f4e780ad 	vld1.8	{d24[5]}, [r7]!
    4b94:	f4e780cd 	vld1.8	{d24[6]}, [r7]!
    4b98:	f4e780ed 	vld1.8	{d24[7]}, [r7]!
    4b9c:	e2866010 	add	r6, r6, #16
    4ba0:	e28aa004 	add	sl, sl, #4
    4ba4:	e2400004 	sub	r0, r0, #4
    4ba8:	f3c80c80 	vmull.u8	q8, d24, d0
    4bac:	f3c82c81 	vmull.u8	q9, d24, d1
    4bb0:	f3c84c82 	vmull.u8	q10, d24, d2
    4bb4:	f3c86c83 	vmull.u8	q11, d24, d3
    4bb8:	f3d80370 	vrsra.u16	q8, q8, #8
    4bbc:	f3d82372 	vrsra.u16	q9, q9, #8
    4bc0:	f3d84374 	vrsra.u16	q10, q10, #8
    4bc4:	f3d86376 	vrsra.u16	q11, q11, #8
    4bc8:	e319000f 	tst	r9, #15
    4bcc:	128aa008 	addne	sl, sl, #8
    4bd0:	12499001 	subne	r9, r9, #1
    4bd4:	e15a0004 	cmp	sl, r4
    4bd8:	f7def00a 	pld	[lr, sl]
    4bdc:	a04aa004 	subge	sl, sl, r4
    4be0:	a2599010 	subsge	r9, r9, #16
    4be4:	a7fe5008 	ldrbge	r5, [lr, r8]!
    4be8:	f2c8c870 	vrshrn.i16	d28, q8, #8
    4bec:	f2c8d872 	vrshrn.i16	d29, q9, #8
    4bf0:	f2c8e874 	vrshrn.i16	d30, q10, #8
    4bf4:	f2c8f876 	vrshrn.i16	d31, q11, #8
    4bf8:	f3f2c1ae 	vzip.8	d28, d30
    4bfc:	f3f2d1af 	vzip.8	d29, d31
    4c00:	f3f2e1af 	vzip.8	d30, d31
    4c04:	f3f2c1ad 	vzip.8	d28, d29
    4c08:	e3120004 	tst	r2, #4
    4c0c:	0a000000 	beq	4c14 <pixman_composite_src_n_8_8888_asm_neon+0x118>
    4c10:	f4c2c88d 	vst1.32	{d28[1]}, [r2]!
    4c14:	e3120008 	tst	r2, #8
    4c18:	0a000000 	beq	4c20 <pixman_composite_src_n_8_8888_asm_neon+0x124>
    4c1c:	f442d79d 	vst1.32	{d29}, [r2 :64]!
    4c20:	f442eaad 	vst1.32	{d30-d31}, [r2 :128]!
    4c24:	f467870d 	vld1.8	{d24}, [r7]!
    4c28:	e28aa008 	add	sl, sl, #8
    4c2c:	f3c80c80 	vmull.u8	q8, d24, d0
    4c30:	f3c82c81 	vmull.u8	q9, d24, d1
    4c34:	f3c84c82 	vmull.u8	q10, d24, d2
    4c38:	f3c86c83 	vmull.u8	q11, d24, d3
    4c3c:	f3d80370 	vrsra.u16	q8, q8, #8
    4c40:	f3d82372 	vrsra.u16	q9, q9, #8
    4c44:	f3d84374 	vrsra.u16	q10, q10, #8
    4c48:	f3d86376 	vrsra.u16	q11, q11, #8
    4c4c:	e319000f 	tst	r9, #15
    4c50:	128aa008 	addne	sl, sl, #8
    4c54:	12499001 	subne	r9, r9, #1
    4c58:	e15a0004 	cmp	sl, r4
    4c5c:	f7def00a 	pld	[lr, sl]
    4c60:	a04aa004 	subge	sl, sl, r4
    4c64:	a2599010 	subsge	r9, r9, #16
    4c68:	a7fe5008 	ldrbge	r5, [lr, r8]!
    4c6c:	e2500010 	subs	r0, r0, #16
    4c70:	ba000018 	blt	4cd8 <pixman_composite_src_n_8_8888_asm_neon+0x1dc>
    4c74:	f467870d 	vld1.8	{d24}, [r7]!
    4c78:	e28aa008 	add	sl, sl, #8
    4c7c:	f2c8c870 	vrshrn.i16	d28, q8, #8
    4c80:	e319000f 	tst	r9, #15
    4c84:	f2c8d872 	vrshrn.i16	d29, q9, #8
    4c88:	128aa008 	addne	sl, sl, #8
    4c8c:	f2c8e874 	vrshrn.i16	d30, q10, #8
    4c90:	12499001 	subne	r9, r9, #1
    4c94:	f2c8f876 	vrshrn.i16	d31, q11, #8
    4c98:	e15a0004 	cmp	sl, r4
    4c9c:	f3c80c80 	vmull.u8	q8, d24, d0
    4ca0:	f7def00a 	pld	[lr, sl]
    4ca4:	f3c82c81 	vmull.u8	q9, d24, d1
    4ca8:	a04aa004 	subge	sl, sl, r4
    4cac:	f3c84c82 	vmull.u8	q10, d24, d2
    4cb0:	a2599010 	subsge	r9, r9, #16
    4cb4:	f3c86c83 	vmull.u8	q11, d24, d3
    4cb8:	a7fe5008 	ldrbge	r5, [lr, r8]!
    4cbc:	f442c02d 	vst4.8	{d28-d31}, [r2 :128]!
    4cc0:	f3d80370 	vrsra.u16	q8, q8, #8
    4cc4:	f3d82372 	vrsra.u16	q9, q9, #8
    4cc8:	f3d84374 	vrsra.u16	q10, q10, #8
    4ccc:	f3d86376 	vrsra.u16	q11, q11, #8
    4cd0:	e2500008 	subs	r0, r0, #8
    4cd4:	aaffffe6 	bge	4c74 <pixman_composite_src_n_8_8888_asm_neon+0x178>
    4cd8:	f2c8c870 	vrshrn.i16	d28, q8, #8
    4cdc:	f2c8d872 	vrshrn.i16	d29, q9, #8
    4ce0:	f2c8e874 	vrshrn.i16	d30, q10, #8
    4ce4:	f2c8f876 	vrshrn.i16	d31, q11, #8
    4ce8:	f442c02d 	vst4.8	{d28-d31}, [r2 :128]!
    4cec:	e3100007 	tst	r0, #7
    4cf0:	0a000030 	beq	4db8 <pixman_composite_src_n_8_8888_asm_neon+0x2bc>
    4cf4:	e3100004 	tst	r0, #4
    4cf8:	0a000004 	beq	4d10 <pixman_composite_src_n_8_8888_asm_neon+0x214>
    4cfc:	f4e7808d 	vld1.8	{d24[4]}, [r7]!
    4d00:	f4e780ad 	vld1.8	{d24[5]}, [r7]!
    4d04:	f4e780cd 	vld1.8	{d24[6]}, [r7]!
    4d08:	f4e780ed 	vld1.8	{d24[7]}, [r7]!
    4d0c:	e28aa004 	add	sl, sl, #4
    4d10:	e3100002 	tst	r0, #2
    4d14:	0a000002 	beq	4d24 <pixman_composite_src_n_8_8888_asm_neon+0x228>
    4d18:	f4e7804d 	vld1.8	{d24[2]}, [r7]!
    4d1c:	f4e7806d 	vld1.8	{d24[3]}, [r7]!
    4d20:	e28aa002 	add	sl, sl, #2
    4d24:	e3100001 	tst	r0, #1
    4d28:	0a000001 	beq	4d34 <pixman_composite_src_n_8_8888_asm_neon+0x238>
    4d2c:	f4e7802d 	vld1.8	{d24[1]}, [r7]!
    4d30:	e28aa001 	add	sl, sl, #1
    4d34:	f3c80c80 	vmull.u8	q8, d24, d0
    4d38:	f3c82c81 	vmull.u8	q9, d24, d1
    4d3c:	f3c84c82 	vmull.u8	q10, d24, d2
    4d40:	f3c86c83 	vmull.u8	q11, d24, d3
    4d44:	f3d80370 	vrsra.u16	q8, q8, #8
    4d48:	f3d82372 	vrsra.u16	q9, q9, #8
    4d4c:	f3d84374 	vrsra.u16	q10, q10, #8
    4d50:	f3d86376 	vrsra.u16	q11, q11, #8
    4d54:	e319000f 	tst	r9, #15
    4d58:	128aa008 	addne	sl, sl, #8
    4d5c:	12499001 	subne	r9, r9, #1
    4d60:	e15a0004 	cmp	sl, r4
    4d64:	f7def00a 	pld	[lr, sl]
    4d68:	a04aa004 	subge	sl, sl, r4
    4d6c:	a2599010 	subsge	r9, r9, #16
    4d70:	a7fe5008 	ldrbge	r5, [lr, r8]!
    4d74:	f2c8c870 	vrshrn.i16	d28, q8, #8
    4d78:	f2c8d872 	vrshrn.i16	d29, q9, #8
    4d7c:	f2c8e874 	vrshrn.i16	d30, q10, #8
    4d80:	f2c8f876 	vrshrn.i16	d31, q11, #8
    4d84:	f3f2c1ae 	vzip.8	d28, d30
    4d88:	f3f2d1af 	vzip.8	d29, d31
    4d8c:	f3f2e1af 	vzip.8	d30, d31
    4d90:	f3f2c1ad 	vzip.8	d28, d29
    4d94:	e3100004 	tst	r0, #4
    4d98:	0a000000 	beq	4da0 <pixman_composite_src_n_8_8888_asm_neon+0x2a4>
    4d9c:	f442eaad 	vst1.32	{d30-d31}, [r2 :128]!
    4da0:	e3100002 	tst	r0, #2
    4da4:	0a000000 	beq	4dac <pixman_composite_src_n_8_8888_asm_neon+0x2b0>
    4da8:	f442d79d 	vst1.32	{d29}, [r2 :64]!
    4dac:	e3100001 	tst	r0, #1
    4db0:	0a000000 	beq	4db8 <pixman_composite_src_n_8_8888_asm_neon+0x2bc>
    4db4:	f4c2c88d 	vst1.32	{d28[1]}, [r2]!
    4db8:	e1a00004 	mov	r0, r4
    4dbc:	e0822103 	add	r2, r2, r3, lsl #2
    4dc0:	e0877008 	add	r7, r7, r8
    4dc4:	e0422100 	sub	r2, r2, r0, lsl #2
    4dc8:	e0477000 	sub	r7, r7, r0
    4dcc:	e2511001 	subs	r1, r1, #1
    4dd0:	e1a06002 	mov	r6, r2
    4dd4:	aaffff5d 	bge	4b50 <pixman_composite_src_n_8_8888_asm_neon+0x54>
    4dd8:	e8bd9ff0 	pop	{r4, r5, r6, r7, r8, r9, sl, fp, ip, pc}
    4ddc:	e3100008 	tst	r0, #8
    4de0:	0a00000d 	beq	4e1c <pixman_composite_src_n_8_8888_asm_neon+0x320>
    4de4:	f467870d 	vld1.8	{d24}, [r7]!
    4de8:	f3c80c80 	vmull.u8	q8, d24, d0
    4dec:	f3c82c81 	vmull.u8	q9, d24, d1
    4df0:	f3c84c82 	vmull.u8	q10, d24, d2
    4df4:	f3c86c83 	vmull.u8	q11, d24, d3
    4df8:	f3d80370 	vrsra.u16	q8, q8, #8
    4dfc:	f3d82372 	vrsra.u16	q9, q9, #8
    4e00:	f3d84374 	vrsra.u16	q10, q10, #8
    4e04:	f3d86376 	vrsra.u16	q11, q11, #8
    4e08:	f2c8c870 	vrshrn.i16	d28, q8, #8
    4e0c:	f2c8d872 	vrshrn.i16	d29, q9, #8
    4e10:	f2c8e874 	vrshrn.i16	d30, q10, #8
    4e14:	f2c8f876 	vrshrn.i16	d31, q11, #8
    4e18:	f442c00d 	vst4.8	{d28-d31}, [r2]!
    4e1c:	e3100007 	tst	r0, #7
    4e20:	0a000025 	beq	4ebc <pixman_composite_src_n_8_8888_asm_neon+0x3c0>
    4e24:	e3100004 	tst	r0, #4
    4e28:	0a000003 	beq	4e3c <pixman_composite_src_n_8_8888_asm_neon+0x340>
    4e2c:	f4e7808d 	vld1.8	{d24[4]}, [r7]!
    4e30:	f4e780ad 	vld1.8	{d24[5]}, [r7]!
    4e34:	f4e780cd 	vld1.8	{d24[6]}, [r7]!
    4e38:	f4e780ed 	vld1.8	{d24[7]}, [r7]!
    4e3c:	e3100002 	tst	r0, #2
    4e40:	0a000001 	beq	4e4c <pixman_composite_src_n_8_8888_asm_neon+0x350>
    4e44:	f4e7804d 	vld1.8	{d24[2]}, [r7]!
    4e48:	f4e7806d 	vld1.8	{d24[3]}, [r7]!
    4e4c:	e3100001 	tst	r0, #1
    4e50:	0a000000 	beq	4e58 <pixman_composite_src_n_8_8888_asm_neon+0x35c>
    4e54:	f4e7802d 	vld1.8	{d24[1]}, [r7]!
    4e58:	f3c80c80 	vmull.u8	q8, d24, d0
    4e5c:	f3c82c81 	vmull.u8	q9, d24, d1
    4e60:	f3c84c82 	vmull.u8	q10, d24, d2
    4e64:	f3c86c83 	vmull.u8	q11, d24, d3
    4e68:	f3d80370 	vrsra.u16	q8, q8, #8
    4e6c:	f3d82372 	vrsra.u16	q9, q9, #8
    4e70:	f3d84374 	vrsra.u16	q10, q10, #8
    4e74:	f3d86376 	vrsra.u16	q11, q11, #8
    4e78:	f2c8c870 	vrshrn.i16	d28, q8, #8
    4e7c:	f2c8d872 	vrshrn.i16	d29, q9, #8
    4e80:	f2c8e874 	vrshrn.i16	d30, q10, #8
    4e84:	f2c8f876 	vrshrn.i16	d31, q11, #8
    4e88:	f3f2c1ae 	vzip.8	d28, d30
    4e8c:	f3f2d1af 	vzip.8	d29, d31
    4e90:	f3f2e1af 	vzip.8	d30, d31
    4e94:	f3f2c1ad 	vzip.8	d28, d29
    4e98:	e3100004 	tst	r0, #4
    4e9c:	0a000000 	beq	4ea4 <pixman_composite_src_n_8_8888_asm_neon+0x3a8>
    4ea0:	f442ea8d 	vst1.32	{d30-d31}, [r2]!
    4ea4:	e3100002 	tst	r0, #2
    4ea8:	0a000000 	beq	4eb0 <pixman_composite_src_n_8_8888_asm_neon+0x3b4>
    4eac:	f442d78d 	vst1.32	{d29}, [r2]!
    4eb0:	e3100001 	tst	r0, #1
    4eb4:	0a000000 	beq	4ebc <pixman_composite_src_n_8_8888_asm_neon+0x3c0>
    4eb8:	f4c2c88d 	vst1.32	{d28[1]}, [r2]!
    4ebc:	e1a00004 	mov	r0, r4
    4ec0:	e0822103 	add	r2, r2, r3, lsl #2
    4ec4:	e0877008 	add	r7, r7, r8
    4ec8:	e0422100 	sub	r2, r2, r0, lsl #2
    4ecc:	e0477000 	sub	r7, r7, r0
    4ed0:	e2511001 	subs	r1, r1, #1
    4ed4:	e1a06002 	mov	r6, r2
    4ed8:	aaffffbf 	bge	4ddc <pixman_composite_src_n_8_8888_asm_neon+0x2e0>
    4edc:	e8bd9ff0 	pop	{r4, r5, r6, r7, r8, r9, sl, fp, ip, pc}

00004ee0 <pixman_composite_src_n_8_8_asm_neon>:
    4ee0:	e92d5ff0 	push	{r4, r5, r6, r7, r8, r9, sl, fp, ip, lr}
    4ee4:	e59d7030 	ldr	r7, [sp, #48]	; 0x30
    4ee8:	e3a0a000 	mov	sl, #0
    4eec:	e59d8034 	ldr	r8, [sp, #52]	; 0x34
    4ef0:	e1a06002 	mov	r6, r2
    4ef4:	e1a0b004 	mov	fp, r4
    4ef8:	e1a0c006 	mov	ip, r6
    4efc:	e1a0e007 	mov	lr, r7
    4f00:	e1a09201 	lsl	r9, r1, #4
    4f04:	e249900b 	sub	r9, r9, #11
    4f08:	e28d5028 	add	r5, sp, #40	; 0x28
    4f0c:	f4e5080f 	vld1.32	{d16[0]}, [r5]
    4f10:	f3f70c20 	vdup.8	d16, d16[3]
    4f14:	e2511001 	subs	r1, r1, #1
    4f18:	e1a04000 	mov	r4, r0
    4f1c:	ba000110 	blt	5364 <pixman_composite_src_n_8_8_asm_neon+0x484>
    4f20:	e3500040 	cmp	r0, #64	; 0x40
    4f24:	ba0000c2 	blt	5234 <pixman_composite_src_n_8_8_asm_neon+0x354>
    4f28:	e316000f 	tst	r6, #15
    4f2c:	0a000044 	beq	5044 <pixman_composite_src_n_8_8_asm_neon+0x164>
    4f30:	e3160001 	tst	r6, #1
    4f34:	0a000003 	beq	4f48 <pixman_composite_src_n_8_8_asm_neon+0x68>
    4f38:	f4e7802d 	vld1.8	{d24[1]}, [r7]!
    4f3c:	e2866001 	add	r6, r6, #1
    4f40:	e28aa001 	add	sl, sl, #1
    4f44:	e2400001 	sub	r0, r0, #1
    4f48:	e3160002 	tst	r6, #2
    4f4c:	0a000004 	beq	4f64 <pixman_composite_src_n_8_8_asm_neon+0x84>
    4f50:	f4e7804d 	vld1.8	{d24[2]}, [r7]!
    4f54:	f4e7806d 	vld1.8	{d24[3]}, [r7]!
    4f58:	e2866002 	add	r6, r6, #2
    4f5c:	e28aa002 	add	sl, sl, #2
    4f60:	e2400002 	sub	r0, r0, #2
    4f64:	e3160004 	tst	r6, #4
    4f68:	0a000006 	beq	4f88 <pixman_composite_src_n_8_8_asm_neon+0xa8>
    4f6c:	f4e7808d 	vld1.8	{d24[4]}, [r7]!
    4f70:	f4e780ad 	vld1.8	{d24[5]}, [r7]!
    4f74:	f4e780cd 	vld1.8	{d24[6]}, [r7]!
    4f78:	f4e780ed 	vld1.8	{d24[7]}, [r7]!
    4f7c:	e2866004 	add	r6, r6, #4
    4f80:	e28aa004 	add	sl, sl, #4
    4f84:	e2400004 	sub	r0, r0, #4
    4f88:	e3160008 	tst	r6, #8
    4f8c:	0a000003 	beq	4fa0 <pixman_composite_src_n_8_8_asm_neon+0xc0>
    4f90:	f467970d 	vld1.8	{d25}, [r7]!
    4f94:	e2866008 	add	r6, r6, #8
    4f98:	e28aa008 	add	sl, sl, #8
    4f9c:	e2400008 	sub	r0, r0, #8
    4fa0:	f467aa0d 	vld1.8	{d26-d27}, [r7]!
    4fa4:	e2866010 	add	r6, r6, #16
    4fa8:	e28aa010 	add	sl, sl, #16
    4fac:	e2400010 	sub	r0, r0, #16
    4fb0:	f3880ca0 	vmull.u8	q0, d24, d16
    4fb4:	f3892ca0 	vmull.u8	q1, d25, d16
    4fb8:	f38a4ca0 	vmull.u8	q2, d26, d16
    4fbc:	f38b6ca0 	vmull.u8	q3, d27, d16
    4fc0:	f3980350 	vrsra.u16	q0, q0, #8
    4fc4:	f3982352 	vrsra.u16	q1, q1, #8
    4fc8:	f3984354 	vrsra.u16	q2, q2, #8
    4fcc:	f3986356 	vrsra.u16	q3, q3, #8
    4fd0:	e319000f 	tst	r9, #15
    4fd4:	128aa020 	addne	sl, sl, #32
    4fd8:	12499001 	subne	r9, r9, #1
    4fdc:	e15a0004 	cmp	sl, r4
    4fe0:	f7def00a 	pld	[lr, sl]
    4fe4:	a04aa004 	subge	sl, sl, r4
    4fe8:	a2599010 	subsge	r9, r9, #16
    4fec:	a7fe5008 	ldrbge	r5, [lr, r8]!
    4ff0:	f2c8c850 	vrshrn.i16	d28, q0, #8
    4ff4:	f2c8d852 	vrshrn.i16	d29, q1, #8
    4ff8:	f2c8e854 	vrshrn.i16	d30, q2, #8
    4ffc:	f2c8f856 	vrshrn.i16	d31, q3, #8
    5000:	e3120001 	tst	r2, #1
    5004:	0a000000 	beq	500c <pixman_composite_src_n_8_8_asm_neon+0x12c>
    5008:	f4c2c02d 	vst1.8	{d28[1]}, [r2]!
    500c:	e3120002 	tst	r2, #2
    5010:	0a000001 	beq	501c <pixman_composite_src_n_8_8_asm_neon+0x13c>
    5014:	f4c2c04d 	vst1.8	{d28[2]}, [r2]!
    5018:	f4c2c06d 	vst1.8	{d28[3]}, [r2]!
    501c:	e3120004 	tst	r2, #4
    5020:	0a000003 	beq	5034 <pixman_composite_src_n_8_8_asm_neon+0x154>
    5024:	f4c2c08d 	vst1.8	{d28[4]}, [r2]!
    5028:	f4c2c0ad 	vst1.8	{d28[5]}, [r2]!
    502c:	f4c2c0cd 	vst1.8	{d28[6]}, [r2]!
    5030:	f4c2c0ed 	vst1.8	{d28[7]}, [r2]!
    5034:	e3120008 	tst	r2, #8
    5038:	0a000000 	beq	5040 <pixman_composite_src_n_8_8_asm_neon+0x160>
    503c:	f442d71d 	vst1.8	{d29}, [r2 :64]!
    5040:	f442ea2d 	vst1.8	{d30-d31}, [r2 :128]!
    5044:	f467820d 	vld1.8	{d24-d27}, [r7]!
    5048:	e28aa020 	add	sl, sl, #32
    504c:	f3880ca0 	vmull.u8	q0, d24, d16
    5050:	f3892ca0 	vmull.u8	q1, d25, d16
    5054:	f38a4ca0 	vmull.u8	q2, d26, d16
    5058:	f38b6ca0 	vmull.u8	q3, d27, d16
    505c:	f3980350 	vrsra.u16	q0, q0, #8
    5060:	f3982352 	vrsra.u16	q1, q1, #8
    5064:	f3984354 	vrsra.u16	q2, q2, #8
    5068:	f3986356 	vrsra.u16	q3, q3, #8
    506c:	e319000f 	tst	r9, #15
    5070:	128aa020 	addne	sl, sl, #32
    5074:	12499001 	subne	r9, r9, #1
    5078:	e15a0004 	cmp	sl, r4
    507c:	f7def00a 	pld	[lr, sl]
    5080:	a04aa004 	subge	sl, sl, r4
    5084:	a2599010 	subsge	r9, r9, #16
    5088:	a7fe5008 	ldrbge	r5, [lr, r8]!
    508c:	e2500040 	subs	r0, r0, #64	; 0x40
    5090:	ba000018 	blt	50f8 <pixman_composite_src_n_8_8_asm_neon+0x218>
    5094:	f467820d 	vld1.8	{d24-d27}, [r7]!
    5098:	e28aa008 	add	sl, sl, #8
    509c:	f2c8c850 	vrshrn.i16	d28, q0, #8
    50a0:	e319000f 	tst	r9, #15
    50a4:	f2c8d852 	vrshrn.i16	d29, q1, #8
    50a8:	128aa008 	addne	sl, sl, #8
    50ac:	f2c8e854 	vrshrn.i16	d30, q2, #8
    50b0:	12499001 	subne	r9, r9, #1
    50b4:	f2c8f856 	vrshrn.i16	d31, q3, #8
    50b8:	e15a0004 	cmp	sl, r4
    50bc:	f3880ca0 	vmull.u8	q0, d24, d16
    50c0:	f7def00a 	pld	[lr, sl]
    50c4:	f3892ca0 	vmull.u8	q1, d25, d16
    50c8:	a04aa004 	subge	sl, sl, r4
    50cc:	f38a4ca0 	vmull.u8	q2, d26, d16
    50d0:	a2599010 	subsge	r9, r9, #16
    50d4:	f38b6ca0 	vmull.u8	q3, d27, d16
    50d8:	a7fe5008 	ldrbge	r5, [lr, r8]!
    50dc:	f442c22d 	vst1.8	{d28-d31}, [r2 :128]!
    50e0:	f3980350 	vrsra.u16	q0, q0, #8
    50e4:	f3982352 	vrsra.u16	q1, q1, #8
    50e8:	f3984354 	vrsra.u16	q2, q2, #8
    50ec:	f3986356 	vrsra.u16	q3, q3, #8
    50f0:	e2500020 	subs	r0, r0, #32
    50f4:	aaffffe6 	bge	5094 <pixman_composite_src_n_8_8_asm_neon+0x1b4>
    50f8:	f2c8c850 	vrshrn.i16	d28, q0, #8
    50fc:	f2c8d852 	vrshrn.i16	d29, q1, #8
    5100:	f2c8e854 	vrshrn.i16	d30, q2, #8
    5104:	f2c8f856 	vrshrn.i16	d31, q3, #8
    5108:	f442c22d 	vst1.8	{d28-d31}, [r2 :128]!
    510c:	e310001f 	tst	r0, #31
    5110:	0a00003e 	beq	5210 <pixman_composite_src_n_8_8_asm_neon+0x330>
    5114:	e3100010 	tst	r0, #16
    5118:	0a000001 	beq	5124 <pixman_composite_src_n_8_8_asm_neon+0x244>
    511c:	f467aa0d 	vld1.8	{d26-d27}, [r7]!
    5120:	e28aa010 	add	sl, sl, #16
    5124:	e3100008 	tst	r0, #8
    5128:	0a000001 	beq	5134 <pixman_composite_src_n_8_8_asm_neon+0x254>
    512c:	f467970d 	vld1.8	{d25}, [r7]!
    5130:	e28aa008 	add	sl, sl, #8
    5134:	e3100004 	tst	r0, #4
    5138:	0a000004 	beq	5150 <pixman_composite_src_n_8_8_asm_neon+0x270>
    513c:	f4e7808d 	vld1.8	{d24[4]}, [r7]!
    5140:	f4e780ad 	vld1.8	{d24[5]}, [r7]!
    5144:	f4e780cd 	vld1.8	{d24[6]}, [r7]!
    5148:	f4e780ed 	vld1.8	{d24[7]}, [r7]!
    514c:	e28aa004 	add	sl, sl, #4
    5150:	e3100002 	tst	r0, #2
    5154:	0a000002 	beq	5164 <pixman_composite_src_n_8_8_asm_neon+0x284>
    5158:	f4e7804d 	vld1.8	{d24[2]}, [r7]!
    515c:	f4e7806d 	vld1.8	{d24[3]}, [r7]!
    5160:	e28aa002 	add	sl, sl, #2
    5164:	e3100001 	tst	r0, #1
    5168:	0a000001 	beq	5174 <pixman_composite_src_n_8_8_asm_neon+0x294>
    516c:	f4e7802d 	vld1.8	{d24[1]}, [r7]!
    5170:	e28aa001 	add	sl, sl, #1
    5174:	f3880ca0 	vmull.u8	q0, d24, d16
    5178:	f3892ca0 	vmull.u8	q1, d25, d16
    517c:	f38a4ca0 	vmull.u8	q2, d26, d16
    5180:	f38b6ca0 	vmull.u8	q3, d27, d16
    5184:	f3980350 	vrsra.u16	q0, q0, #8
    5188:	f3982352 	vrsra.u16	q1, q1, #8
    518c:	f3984354 	vrsra.u16	q2, q2, #8
    5190:	f3986356 	vrsra.u16	q3, q3, #8
    5194:	e319000f 	tst	r9, #15
    5198:	128aa020 	addne	sl, sl, #32
    519c:	12499001 	subne	r9, r9, #1
    51a0:	e15a0004 	cmp	sl, r4
    51a4:	f7def00a 	pld	[lr, sl]
    51a8:	a04aa004 	subge	sl, sl, r4
    51ac:	a2599010 	subsge	r9, r9, #16
    51b0:	a7fe5008 	ldrbge	r5, [lr, r8]!
    51b4:	f2c8c850 	vrshrn.i16	d28, q0, #8
    51b8:	f2c8d852 	vrshrn.i16	d29, q1, #8
    51bc:	f2c8e854 	vrshrn.i16	d30, q2, #8
    51c0:	f2c8f856 	vrshrn.i16	d31, q3, #8
    51c4:	e3100010 	tst	r0, #16
    51c8:	0a000000 	beq	51d0 <pixman_composite_src_n_8_8_asm_neon+0x2f0>
    51cc:	f442ea2d 	vst1.8	{d30-d31}, [r2 :128]!
    51d0:	e3100008 	tst	r0, #8
    51d4:	0a000000 	beq	51dc <pixman_composite_src_n_8_8_asm_neon+0x2fc>
    51d8:	f442d71d 	vst1.8	{d29}, [r2 :64]!
    51dc:	e3100004 	tst	r0, #4
    51e0:	0a000003 	beq	51f4 <pixman_composite_src_n_8_8_asm_neon+0x314>
    51e4:	f4c2c08d 	vst1.8	{d28[4]}, [r2]!
    51e8:	f4c2c0ad 	vst1.8	{d28[5]}, [r2]!
    51ec:	f4c2c0cd 	vst1.8	{d28[6]}, [r2]!
    51f0:	f4c2c0ed 	vst1.8	{d28[7]}, [r2]!
    51f4:	e3100002 	tst	r0, #2
    51f8:	0a000001 	beq	5204 <pixman_composite_src_n_8_8_asm_neon+0x324>
    51fc:	f4c2c04d 	vst1.8	{d28[2]}, [r2]!
    5200:	f4c2c06d 	vst1.8	{d28[3]}, [r2]!
    5204:	e3100001 	tst	r0, #1
    5208:	0a000000 	beq	5210 <pixman_composite_src_n_8_8_asm_neon+0x330>
    520c:	f4c2c02d 	vst1.8	{d28[1]}, [r2]!
    5210:	e1a00004 	mov	r0, r4
    5214:	e0822003 	add	r2, r2, r3
    5218:	e0877008 	add	r7, r7, r8
    521c:	e0422000 	sub	r2, r2, r0
    5220:	e0477000 	sub	r7, r7, r0
    5224:	e2511001 	subs	r1, r1, #1
    5228:	e1a06002 	mov	r6, r2
    522c:	aaffff3d 	bge	4f28 <pixman_composite_src_n_8_8_asm_neon+0x48>
    5230:	e8bd9ff0 	pop	{r4, r5, r6, r7, r8, r9, sl, fp, ip, pc}
    5234:	e3100020 	tst	r0, #32
    5238:	0a00000d 	beq	5274 <pixman_composite_src_n_8_8_asm_neon+0x394>
    523c:	f467820d 	vld1.8	{d24-d27}, [r7]!
    5240:	f3880ca0 	vmull.u8	q0, d24, d16
    5244:	f3892ca0 	vmull.u8	q1, d25, d16
    5248:	f38a4ca0 	vmull.u8	q2, d26, d16
    524c:	f38b6ca0 	vmull.u8	q3, d27, d16
    5250:	f3980350 	vrsra.u16	q0, q0, #8
    5254:	f3982352 	vrsra.u16	q1, q1, #8
    5258:	f3984354 	vrsra.u16	q2, q2, #8
    525c:	f3986356 	vrsra.u16	q3, q3, #8
    5260:	f2c8c850 	vrshrn.i16	d28, q0, #8
    5264:	f2c8d852 	vrshrn.i16	d29, q1, #8
    5268:	f2c8e854 	vrshrn.i16	d30, q2, #8
    526c:	f2c8f856 	vrshrn.i16	d31, q3, #8
    5270:	f442c20d 	vst1.8	{d28-d31}, [r2]!
    5274:	e310001f 	tst	r0, #31
    5278:	0a000031 	beq	5344 <pixman_composite_src_n_8_8_asm_neon+0x464>
    527c:	e3100010 	tst	r0, #16
    5280:	0a000000 	beq	5288 <pixman_composite_src_n_8_8_asm_neon+0x3a8>
    5284:	f467aa0d 	vld1.8	{d26-d27}, [r7]!
    5288:	e3100008 	tst	r0, #8
    528c:	0a000000 	beq	5294 <pixman_composite_src_n_8_8_asm_neon+0x3b4>
    5290:	f467970d 	vld1.8	{d25}, [r7]!
    5294:	e3100004 	tst	r0, #4
    5298:	0a000003 	beq	52ac <pixman_composite_src_n_8_8_asm_neon+0x3cc>
    529c:	f4e7808d 	vld1.8	{d24[4]}, [r7]!
    52a0:	f4e780ad 	vld1.8	{d24[5]}, [r7]!
    52a4:	f4e780cd 	vld1.8	{d24[6]}, [r7]!
    52a8:	f4e780ed 	vld1.8	{d24[7]}, [r7]!
    52ac:	e3100002 	tst	r0, #2
    52b0:	0a000001 	beq	52bc <pixman_composite_src_n_8_8_asm_neon+0x3dc>
    52b4:	f4e7804d 	vld1.8	{d24[2]}, [r7]!
    52b8:	f4e7806d 	vld1.8	{d24[3]}, [r7]!
    52bc:	e3100001 	tst	r0, #1
    52c0:	0a000000 	beq	52c8 <pixman_composite_src_n_8_8_asm_neon+0x3e8>
    52c4:	f4e7802d 	vld1.8	{d24[1]}, [r7]!
    52c8:	f3880ca0 	vmull.u8	q0, d24, d16
    52cc:	f3892ca0 	vmull.u8	q1, d25, d16
    52d0:	f38a4ca0 	vmull.u8	q2, d26, d16
    52d4:	f38b6ca0 	vmull.u8	q3, d27, d16
    52d8:	f3980350 	vrsra.u16	q0, q0, #8
    52dc:	f3982352 	vrsra.u16	q1, q1, #8
    52e0:	f3984354 	vrsra.u16	q2, q2, #8
    52e4:	f3986356 	vrsra.u16	q3, q3, #8
    52e8:	f2c8c850 	vrshrn.i16	d28, q0, #8
    52ec:	f2c8d852 	vrshrn.i16	d29, q1, #8
    52f0:	f2c8e854 	vrshrn.i16	d30, q2, #8
    52f4:	f2c8f856 	vrshrn.i16	d31, q3, #8
    52f8:	e3100010 	tst	r0, #16
    52fc:	0a000000 	beq	5304 <pixman_composite_src_n_8_8_asm_neon+0x424>
    5300:	f442ea0d 	vst1.8	{d30-d31}, [r2]!
    5304:	e3100008 	tst	r0, #8
    5308:	0a000000 	beq	5310 <pixman_composite_src_n_8_8_asm_neon+0x430>
    530c:	f442d70d 	vst1.8	{d29}, [r2]!
    5310:	e3100004 	tst	r0, #4
    5314:	0a000003 	beq	5328 <pixman_composite_src_n_8_8_asm_neon+0x448>
    5318:	f4c2c08d 	vst1.8	{d28[4]}, [r2]!
    531c:	f4c2c0ad 	vst1.8	{d28[5]}, [r2]!
    5320:	f4c2c0cd 	vst1.8	{d28[6]}, [r2]!
    5324:	f4c2c0ed 	vst1.8	{d28[7]}, [r2]!
    5328:	e3100002 	tst	r0, #2
    532c:	0a000001 	beq	5338 <pixman_composite_src_n_8_8_asm_neon+0x458>
    5330:	f4c2c04d 	vst1.8	{d28[2]}, [r2]!
    5334:	f4c2c06d 	vst1.8	{d28[3]}, [r2]!
    5338:	e3100001 	tst	r0, #1
    533c:	0a000000 	beq	5344 <pixman_composite_src_n_8_8_asm_neon+0x464>
    5340:	f4c2c02d 	vst1.8	{d28[1]}, [r2]!
    5344:	e1a00004 	mov	r0, r4
    5348:	e0822003 	add	r2, r2, r3
    534c:	e0877008 	add	r7, r7, r8
    5350:	e0422000 	sub	r2, r2, r0
    5354:	e0477000 	sub	r7, r7, r0
    5358:	e2511001 	subs	r1, r1, #1
    535c:	e1a06002 	mov	r6, r2
    5360:	aaffffb3 	bge	5234 <pixman_composite_src_n_8_8_asm_neon+0x354>
    5364:	e8bd9ff0 	pop	{r4, r5, r6, r7, r8, r9, sl, fp, ip, pc}

00005368 <pixman_composite_over_n_8_8888_asm_neon>:
    5368:	e92d5ff0 	push	{r4, r5, r6, r7, r8, r9, sl, fp, ip, lr}
    536c:	e59d7030 	ldr	r7, [sp, #48]	; 0x30
    5370:	e3a0a000 	mov	sl, #0
    5374:	e59d8034 	ldr	r8, [sp, #52]	; 0x34
    5378:	e1a06002 	mov	r6, r2
    537c:	e1a0b004 	mov	fp, r4
    5380:	e1a0c006 	mov	ip, r6
    5384:	e1a0e007 	mov	lr, r7
    5388:	e1a09201 	lsl	r9, r1, #4
    538c:	e249900b 	sub	r9, r9, #11
    5390:	e28d5028 	add	r5, sp, #40	; 0x28
    5394:	ed2d8b10 	vpush	{d8-d15}
    5398:	f4a5b80f 	vld1.32	{d11[0]}, [r5]
    539c:	f3b18c0b 	vdup.8	d8, d11[0]
    53a0:	f3b39c0b 	vdup.8	d9, d11[1]
    53a4:	f3b5ac0b 	vdup.8	d10, d11[2]
    53a8:	f3b7bc0b 	vdup.8	d11, d11[3]
    53ac:	e2511001 	subs	r1, r1, #1
    53b0:	e1a04000 	mov	r4, r0
    53b4:	ba00015c 	blt	592c <pixman_composite_over_n_8_8888_asm_neon+0x5c4>
    53b8:	e3500010 	cmp	r0, #16
    53bc:	ba0000f4 	blt	5794 <pixman_composite_over_n_8_8888_asm_neon+0x42c>
    53c0:	e316000f 	tst	r6, #15
    53c4:	0a000047 	beq	54e8 <pixman_composite_over_n_8_8888_asm_neon+0x180>
    53c8:	e3160004 	tst	r6, #4
    53cc:	0a000003 	beq	53e0 <pixman_composite_over_n_8_8888_asm_neon+0x78>
    53d0:	f4e7802d 	vld1.8	{d24[1]}, [r7]!
    53d4:	f4a6488d 	vld1.32	{d4[1]}, [r6]!
    53d8:	e28aa001 	add	sl, sl, #1
    53dc:	e2400001 	sub	r0, r0, #1
    53e0:	e3160008 	tst	r6, #8
    53e4:	0a000004 	beq	53fc <pixman_composite_over_n_8_8888_asm_neon+0x94>
    53e8:	f4e7804d 	vld1.8	{d24[2]}, [r7]!
    53ec:	f4e7806d 	vld1.8	{d24[3]}, [r7]!
    53f0:	f426579d 	vld1.32	{d5}, [r6 :64]!
    53f4:	e28aa002 	add	sl, sl, #2
    53f8:	e2400002 	sub	r0, r0, #2
    53fc:	f4e7808d 	vld1.8	{d24[4]}, [r7]!
    5400:	f4e780ad 	vld1.8	{d24[5]}, [r7]!
    5404:	f4e780cd 	vld1.8	{d24[6]}, [r7]!
    5408:	f4e780ed 	vld1.8	{d24[7]}, [r7]!
    540c:	f4266aad 	vld1.32	{d6-d7}, [r6 :128]!
    5410:	e28aa004 	add	sl, sl, #4
    5414:	e2400004 	sub	r0, r0, #4
    5418:	f3b24105 	vuzp.8	d4, d5
    541c:	f3b26107 	vuzp.8	d6, d7
    5420:	f3b25107 	vuzp.8	d5, d7
    5424:	f3b24106 	vuzp.8	d4, d6
    5428:	f388cc88 	vmull.u8	q6, d24, d8
    542c:	f388ec89 	vmull.u8	q7, d24, d9
    5430:	f3c80c8a 	vmull.u8	q8, d24, d10
    5434:	f3c82c8b 	vmull.u8	q9, d24, d11
    5438:	f3d8425c 	vrshr.u16	q10, q6, #8
    543c:	f3d8625e 	vrshr.u16	q11, q7, #8
    5440:	f3d88270 	vrshr.u16	q12, q8, #8
    5444:	f3d8a272 	vrshr.u16	q13, q9, #8
    5448:	f38c0424 	vraddhn.i16	d0, q6, q10
    544c:	f38e1426 	vraddhn.i16	d1, q7, q11
    5450:	f38024a8 	vraddhn.i16	d2, q8, q12
    5454:	f38234aa 	vraddhn.i16	d3, q9, q13
    5458:	f3f09583 	vmvn	d25, d3
    545c:	f3c90c84 	vmull.u8	q8, d25, d4
    5460:	f3c92c85 	vmull.u8	q9, d25, d5
    5464:	f3c94c86 	vmull.u8	q10, d25, d6
    5468:	f3c96c87 	vmull.u8	q11, d25, d7
    546c:	e319000f 	tst	r9, #15
    5470:	128aa008 	addne	sl, sl, #8
    5474:	12499001 	subne	r9, r9, #1
    5478:	e15a0004 	cmp	sl, r4
    547c:	f7dcf10a 	pld	[ip, sl, lsl #2]
    5480:	f7def00a 	pld	[lr, sl]
    5484:	a04aa004 	subge	sl, sl, r4
    5488:	a2599010 	subsge	r9, r9, #16
    548c:	a7fc5103 	ldrbge	r5, [ip, r3, lsl #2]!
    5490:	a7fe5008 	ldrbge	r5, [lr, r8]!
    5494:	f3d8c270 	vrshr.u16	q14, q8, #8
    5498:	f3d8e272 	vrshr.u16	q15, q9, #8
    549c:	f398c274 	vrshr.u16	q6, q10, #8
    54a0:	f398e276 	vrshr.u16	q7, q11, #8
    54a4:	f3ccc4a0 	vraddhn.i16	d28, q14, q8
    54a8:	f3ced4a2 	vraddhn.i16	d29, q15, q9
    54ac:	f3cce424 	vraddhn.i16	d30, q6, q10
    54b0:	f3cef426 	vraddhn.i16	d31, q7, q11
    54b4:	f340c07c 	vqadd.u8	q14, q0, q14
    54b8:	f342e07e 	vqadd.u8	q15, q1, q15
    54bc:	f3f2c1ae 	vzip.8	d28, d30
    54c0:	f3f2d1af 	vzip.8	d29, d31
    54c4:	f3f2e1af 	vzip.8	d30, d31
    54c8:	f3f2c1ad 	vzip.8	d28, d29
    54cc:	e3120004 	tst	r2, #4
    54d0:	0a000000 	beq	54d8 <pixman_composite_over_n_8_8888_asm_neon+0x170>
    54d4:	f4c2c88d 	vst1.32	{d28[1]}, [r2]!
    54d8:	e3120008 	tst	r2, #8
    54dc:	0a000000 	beq	54e4 <pixman_composite_over_n_8_8888_asm_neon+0x17c>
    54e0:	f442d79d 	vst1.32	{d29}, [r2 :64]!
    54e4:	f442eaad 	vst1.32	{d30-d31}, [r2 :128]!
    54e8:	f426402d 	vld4.8	{d4-d7}, [r6 :128]!
    54ec:	f467870d 	vld1.8	{d24}, [r7]!
    54f0:	e28aa008 	add	sl, sl, #8
    54f4:	f388cc88 	vmull.u8	q6, d24, d8
    54f8:	f388ec89 	vmull.u8	q7, d24, d9
    54fc:	f3c80c8a 	vmull.u8	q8, d24, d10
    5500:	f3c82c8b 	vmull.u8	q9, d24, d11
    5504:	f3d8425c 	vrshr.u16	q10, q6, #8
    5508:	f3d8625e 	vrshr.u16	q11, q7, #8
    550c:	f3d88270 	vrshr.u16	q12, q8, #8
    5510:	f3d8a272 	vrshr.u16	q13, q9, #8
    5514:	f38c0424 	vraddhn.i16	d0, q6, q10
    5518:	f38e1426 	vraddhn.i16	d1, q7, q11
    551c:	f38024a8 	vraddhn.i16	d2, q8, q12
    5520:	f38234aa 	vraddhn.i16	d3, q9, q13
    5524:	f3f09583 	vmvn	d25, d3
    5528:	f3c90c84 	vmull.u8	q8, d25, d4
    552c:	f3c92c85 	vmull.u8	q9, d25, d5
    5530:	f3c94c86 	vmull.u8	q10, d25, d6
    5534:	f3c96c87 	vmull.u8	q11, d25, d7
    5538:	e319000f 	tst	r9, #15
    553c:	128aa008 	addne	sl, sl, #8
    5540:	12499001 	subne	r9, r9, #1
    5544:	e15a0004 	cmp	sl, r4
    5548:	f7dcf10a 	pld	[ip, sl, lsl #2]
    554c:	f7def00a 	pld	[lr, sl]
    5550:	a04aa004 	subge	sl, sl, r4
    5554:	a2599010 	subsge	r9, r9, #16
    5558:	a7fc5103 	ldrbge	r5, [ip, r3, lsl #2]!
    555c:	a7fe5008 	ldrbge	r5, [lr, r8]!
    5560:	e2500010 	subs	r0, r0, #16
    5564:	ba00002a 	blt	5614 <pixman_composite_over_n_8_8888_asm_neon+0x2ac>
    5568:	f3d8c270 	vrshr.u16	q14, q8, #8
    556c:	f426402d 	vld4.8	{d4-d7}, [r6 :128]!
    5570:	f3d8e272 	vrshr.u16	q15, q9, #8
    5574:	f467870d 	vld1.8	{d24}, [r7]!
    5578:	f398c274 	vrshr.u16	q6, q10, #8
    557c:	e28aa008 	add	sl, sl, #8
    5580:	f398e276 	vrshr.u16	q7, q11, #8
    5584:	e319000f 	tst	r9, #15
    5588:	f3ccc4a0 	vraddhn.i16	d28, q14, q8
    558c:	128aa008 	addne	sl, sl, #8
    5590:	f3ced4a2 	vraddhn.i16	d29, q15, q9
    5594:	12499001 	subne	r9, r9, #1
    5598:	f3cce424 	vraddhn.i16	d30, q6, q10
    559c:	e15a0004 	cmp	sl, r4
    55a0:	f3cef426 	vraddhn.i16	d31, q7, q11
    55a4:	f7dcf10a 	pld	[ip, sl, lsl #2]
    55a8:	f388cc88 	vmull.u8	q6, d24, d8
    55ac:	f7def00a 	pld	[lr, sl]
    55b0:	f388ec89 	vmull.u8	q7, d24, d9
    55b4:	a04aa004 	subge	sl, sl, r4
    55b8:	f3c80c8a 	vmull.u8	q8, d24, d10
    55bc:	a2599010 	subsge	r9, r9, #16
    55c0:	f3c82c8b 	vmull.u8	q9, d24, d11
    55c4:	a7fc5103 	ldrbge	r5, [ip, r3, lsl #2]!
    55c8:	f340c07c 	vqadd.u8	q14, q0, q14
    55cc:	a7fe5008 	ldrbge	r5, [lr, r8]!
    55d0:	f342e07e 	vqadd.u8	q15, q1, q15
    55d4:	f3d8425c 	vrshr.u16	q10, q6, #8
    55d8:	f3d8625e 	vrshr.u16	q11, q7, #8
    55dc:	f3d88270 	vrshr.u16	q12, q8, #8
    55e0:	f3d8a272 	vrshr.u16	q13, q9, #8
    55e4:	f38c0424 	vraddhn.i16	d0, q6, q10
    55e8:	f38e1426 	vraddhn.i16	d1, q7, q11
    55ec:	f38024a8 	vraddhn.i16	d2, q8, q12
    55f0:	f38234aa 	vraddhn.i16	d3, q9, q13
    55f4:	f442c02d 	vst4.8	{d28-d31}, [r2 :128]!
    55f8:	f3f09583 	vmvn	d25, d3
    55fc:	f3c90c84 	vmull.u8	q8, d25, d4
    5600:	f3c92c85 	vmull.u8	q9, d25, d5
    5604:	f3c94c86 	vmull.u8	q10, d25, d6
    5608:	f3c96c87 	vmull.u8	q11, d25, d7
    560c:	e2500008 	subs	r0, r0, #8
    5610:	aaffffd4 	bge	5568 <pixman_composite_over_n_8_8888_asm_neon+0x200>
    5614:	f3d8c270 	vrshr.u16	q14, q8, #8
    5618:	f3d8e272 	vrshr.u16	q15, q9, #8
    561c:	f398c274 	vrshr.u16	q6, q10, #8
    5620:	f398e276 	vrshr.u16	q7, q11, #8
    5624:	f3ccc4a0 	vraddhn.i16	d28, q14, q8
    5628:	f3ced4a2 	vraddhn.i16	d29, q15, q9
    562c:	f3cce424 	vraddhn.i16	d30, q6, q10
    5630:	f3cef426 	vraddhn.i16	d31, q7, q11
    5634:	f340c07c 	vqadd.u8	q14, q0, q14
    5638:	f342e07e 	vqadd.u8	q15, q1, q15
